(dp0
S'.OXXOX.XO'
p1
F0.5
sS'XOOOOXXXX'
p2
I1
sS'OXXXO....'
p3
F0.5
sS'XX.OO..XO'
p4
F0.5
sS'.X.OXXO.O'
p5
F0.5
sS'.XO.X.OX.'
p6
I1
sS'.XO.XXOO.'
p7
F0.5
sS'XXOX.O...'
p8
F0.5
sS'X..OX.OXO'
p9
F0.5
sS'.XO.XXOOX'
p10
F0.5
sS'X.XOOXX.O'
p11
F0.5
sS'XX.OO..X.'
p12
F0.5
sS'.X.OXXO..'
p13
F0.5
sS'XXOX.O..O'
p14
I0
sS'.XXO.XXOO'
p15
F0.5
sS'X..OX.OX.'
p16
F0.5
sS'OXOOXXO.X'
p17
I0
sS'XXO.X.OXO'
p18
I1
sS'OOXOX.X.X'
p19
I1
sS'XOOOOXXX.'
p20
F0.5
sS'OXXXO...O'
p21
I0
sS'XO..X..XO'
p22
F0.5
sS'XXOOOXX..'
p23
F0.5
sS'OO.XXOOXX'
p24
F0.5
sS'X..OXO..X'
p25
I1
sS'..X.OX...'
p26
F0.5
sS'.XX...O.O'
p27
F0.5
sS'O.XXOOXOX'
p28
F0.5
sS'..XOX.X.O'
p29
I1
sS'.XX...O..'
p30
F0.5
sS'..X.OX..O'
p31
F0.5
sS'X..OXO...'
p32
F0.5
sS'.OXO..XOX'
p33
F0.5
sS'XX..O.O.X'
p34
F0.5
sS'XX.OOX...'
p35
F0.5
sS'XXO.OOX.X'
p36
F0.5
sS'OOXX....X'
p37
F0.5
sS'OXXXOOOX.'
p38
F0.5
sS'.X..O.OX.'
p39
F0.5
sS'.OX..XXOO'
p40
F0.5
sS'O...X.XO.'
p41
F0.5
sS'....X..O.'
p42
F0.5
sS'XOXOXOXXO'
p43
I1
sS'XOOO..XX.'
p44
F0.5
sS'XO......X'
p45
F0.5
sS'XOOO..XXX'
p46
I1
sS'.OX..XXO.'
p47
F0.5
sS'XO.......'
p48
F0.5
sS'X.X..OOOX'
p49
F0.5
sS'X.O..XOX.'
p50
F0.5
sS'....X..OX'
p51
F0.5
sS'.XOO.XXXO'
p52
F0.5
sS'O...X.XOX'
p53
F0.5
sS'XX.OOX..O'
p54
F0.5
sS'OXXXOOOXX'
p55
F0.5
sS'XX..O.O..'
p56
F0.5
sS'OOXX.....'
p57
F0.5
sS'.XXOX.OOX'
p58
F0.5
sS'O.OX..OXX'
p59
F0.5
sS'OXOO.X..X'
p60
F0.5
sS'XX.O...O.'
p61
F0.5
sS'.XOOXO..X'
p62
F0.5
sS'.XO.X..O.'
p63
F0.5
sS'...OOX..X'
p64
F0.5
sS'XOXXO..O.'
p65
I0
sS'.X....OXO'
p66
F0.5
sS'OXO.XXXO.'
p67
F0.5
sS'XOXXO.OOX'
p68
I0
sS'.X....OX.'
p69
F0.5
sS'.XO.X..OX'
p70
F0.5
sS'OXO.XXXOO'
p71
F0.5
sS'.OOX.XXOX'
p72
F0.5
sS'XXOOX.X.O'
p73
F0.5
sS'XX.O...OX'
p74
F0.5
sS'.O.XX.XO.'
p75
F0.5
sS'O...XOXOX'
p76
F0.5
sS'XOX....OX'
p77
F0.5
sS'.X.XO.X.O'
p78
F0.5
sS'XOX....O.'
p79
F0.5
sS'.X.O.XX.O'
p80
F0.5
sS'X.O..XXO.'
p81
F0.5
sS'.O.XX.XOO'
p82
F0.5
sS'O.OXXXXO.'
p83
I1
sS'XX......O'
p84
F0.5
sS'O..OXX.OX'
p85
F0.5
sS'...XXOOOX'
p86
F1.0
sS'..OXXOXO.'
p87
F0.9
sS'OXO.XX..O'
p88
F0.5
sS'XXO.OOOXX'
p89
I0
sS'O.XXOX..O'
p90
I0
sS'OO.XOXX..'
p91
F0.5
sS'.OXXOOXX.'
p92
F0.5
sS'.O.X..OXX'
p93
F0.5
sS'XO...OXX.'
p94
F0.5
sS'.X..OXO.X'
p95
F0.5
sS'OXO.OXX.X'
p96
F0.5
sS'.X..XO...'
p97
F0.5
sS'....X.OOX'
p98
F0.5
sS'X.X...OOX'
p99
F0.5
sS'.OX.OX...'
p100
F0.5
sS'.OO..X..X'
p101
F0.5
sS'...OX.X.O'
p102
F1.0
sS'.OX.OX..X'
p103
I1
sS'XO...OXXO'
p104
F0.5
sS'X.X...OO.'
p105
F0.5
sS'.X..XO..O'
p106
F0.5
sS'...O..XOX'
p107
F0.5
sS'OXO.OXX..'
p108
F0.5
sS'.X..OXO..'
p109
F0.5
sS'OO.XOXX.X'
p110
F0.5
sS'XO.X.XOXO'
p111
F0.5
sS'.O.X..OX.'
p112
F0.5
sS'OXO.XX...'
p113
F0.5
sS'O.XXOX...'
p114
F0.5
sS'..OXXOXOX'
p115
F0.5
sS'.OXXOOXXO'
p116
F0.5
sS'....XOXOX'
p117
F0.5
sS'XOXXOO.X.'
p118
F0.5
sS'.OX.OXX.O'
p119
F0.5
sS'.OOX.X..X'
p120
F0.5
sS'X.XO.OXOX'
p121
F0.5
sS'.O.OX...X'
p122
F0.5
sS'..XX...O.'
p123
F0.5
sS'..XX.OO..'
p124
F0.5
sS'O.X.XX.O.'
p125
F0.5
sS'..XX...OO'
p126
F0.5
sS'..XX.OO.X'
p127
F0.5
sS'O.X.XX.OO'
p128
F0.5
sS'OX..O...X'
p129
F0.5
sS'X...XXO.O'
p130
F0.5
sS'.XOO.XO.X'
p131
F0.5
sS'XOXXOO.XO'
p132
F0.5
sS'X.X.X..OO'
p133
F0.5
sS'.OX.OXX..'
p134
F0.5
sS'XXO.OO..X'
p135
F0.5
sS'XO.XO.OXX'
p136
F0.5
sS'....XOXO.'
p137
F0.5
sS'X.XO.OXO.'
p138
F0.5
sS'.OOX.X...'
p139
F0.5
sS'.XOOXOX..'
p140
F0.5
sS'.OXO...X.'
p141
F0.5
sS'...XOXXOO'
p142
F0.5
sS'XOO.OXXX.'
p143
F0.5
sS'.OX.XXOXO'
p144
F0.5
sS'O..O.XXOX'
p145
F0.5
sS'.XO..OX.X'
p146
F0.5
sS'XOO.OXXXO'
p147
F0.5
sS'.XO..OX..'
p148
F0.5
sS'.X.OX..XO'
p149
I1
sS'.O.XOO.XX'
p150
F0.5
sS'..OOXXXXO'
p151
F0.5
sS'.XOOXOX.X'
p152
F0.5
sS'.OXO...XX'
p153
F0.5
sS'...XOXXO.'
p154
F0.5
sS'..X.O.X..'
p155
F0.5
sS'O.OXOXX..'
p156
F0.5
sS'.X.XO..OX'
p157
F0.5
sS'O.OX.X...'
p158
F0.5
sS'OX..OXX.O'
p159
I0
sS'O.XX.XO.O'
p160
F0.5
sS'XXXO.XO.O'
p161
I1
sS'OX..OXX..'
p162
F0.5
sS'O.XX.XO..'
p163
F0.5
sS'.X.X.X.OO'
p164
F0.5
sS'..X.O.X.O'
p165
F0.5
sS'XOXOOO.XX'
p166
F0.0
sS'OOX..OX.X'
p167
F0.5
sS'.X.XO..O.'
p168
F0.5
sS'O.OXOXX.X'
p169
F0.5
sS'..XOXO.OX'
p170
F0.5
sS'.XO.OOXXX'
p171
I1
sS'.OX...XOX'
p172
F0.5
sS'XXO.X.XOO'
p173
F0.5
sS'X..OOXXO.'
p174
F0.5
sS'...XOOOXX'
p175
F0.5
sS'XXOXO.O..'
p176
I0
sS'OOXX..X.O'
p177
F0.5
sS'OOXX.OXXO'
p178
F0.5
sS'.O.XO..X.'
p179
F0.5
sS'X.X.XOO.O'
p180
F0.5
sS'OOXX.OXX.'
p181
F0.5
sS'X.OXO.X..'
p182
I1
sS'X.X.XOO..'
p183
F0.5
sS'.O.XO..XX'
p184
F0.5
sS'.X.OOOX.X'
p185
I0
sS'X..OOXXOX'
p186
F0.5
sS'.XO.OOXX.'
p187
F0.5
sS'.OX...XO.'
p188
F0.5
sS'OX.OX..X.'
p189
I1
sS'X.X.OX.O.'
p190
F0.5
sS'XO.X..X.O'
p191
I1
sS'..O.X.X..'
p192
F0.5
sS'XXO.XOXOO'
p193
I0
sS'OX..XOOXX'
p194
I1
sS'X.O..X.OX'
p195
F0.5
sS'.OXXOO.X.'
p196
F0.5
sS'..X.OO.X.'
p197
F0.5
sS'..XXO.O..'
p198
F0.5
sS'XX.XOOO.X'
p199
F0.5
sS'XOOOXXXXO'
p200
F0.5
sS'..OXOO.XX'
p201
F0.5
sS'OXOXOX.XO'
p202
I0
sS'XX.XOOO..'
p203
F0.5
sS'X.O..OX.X'
p204
F0.5
sS'X..O..OX.'
p205
F0.5
sS'.XOOO.X.X'
p206
F0.5
sS'..XXO.O.X'
p207
F0.5
sS'XOXOXO.XO'
p208
F0.5
sS'X.O.X.O..'
p209
F0.5
sS'OXOXOX.X.'
p210
F0.5
sS'X.X.OX.OO'
p211
F0.5
sS'.OXXOO.XX'
p212
F0.5
sS'..X.OO.XX'
p213
F0.5
sS'X.O..X.O.'
p214
F0.5
sS'..O.X.X.O'
p215
F0.5
sS'XXO.XOXO.'
p216
F0.5
sS'X.XOOOX..'
p217
I0
sS'XXO....XO'
p218
F0.5
sS'.OOXXO.X.'
p219
F0.5
sS'.XOXOOXX.'
p220
F0.5
sS'..X.XOXO.'
p221
I1
sS'.O.OX..X.'
p222
F0.5
sS'.OOO.XX.X'
p223
F0.5
sS'X.O..O..X'
p224
F0.5
sS'OXX.X.OXO'
p225
I1
sS'.XXO.XOXO'
p226
F0.5
sS'OOXXOOXXX'
p227
I1
sS'XOOOXX.X.'
p228
F0.5
sS'X.XOO.O.X'
p229
F0.5
sS'O...OXX..'
p230
F0.5
sS'XXO.XOO.X'
p231
I1
sS'OXOOX.XOX'
p232
F0.5
sS'XXO.XOO..'
p233
F0.5
sS'O...OXX.X'
p234
F0.5
sS'XOOOXX.XO'
p235
F0.5
sS'X.XO.OOXX'
p236
F0.5
sS'O..XXXXOO'
p237
I1
sS'..O...OXX'
p238
F0.5
sS'.XOXOOXXO'
p239
I0
sS'.OOXXO.XX'
p240
F0.5
sS'OO.XXXXO.'
p241
I1
sS'.X.XOOXO.'
p242
F0.5
sS'X..OXXOXO'
p243
F0.5
sS'XOX.XO.O.'
p244
F0.5
sS'.X..X.OO.'
p245
F0.5
sS'OXXOXOXXO'
p246
I1
sS'...OXX.XO'
p247
F0.5
sS'OOX.XX.XO'
p248
F0.5
sS'.XXOX.OO.'
p249
F0.5
sS'XO..OOX.X'
p250
F0.5
sS'OXO.O..XX'
p251
F0.5
sS'O...X.O.X'
p252
F0.5
sS'XOXX..XOO'
p253
I1
sS'XXO.XXO.O'
p254
F0.5
sS'.X.XOOXOX'
p255
F0.5
sS'X.XO..O..'
p256
F0.5
sS'..OOXX.X.'
p257
F0.5
sS'O.XOO.XXX'
p258
I1
sS'.XOXX..OO'
p259
F0.5
sS'.XXOO....'
p260
F0.5
sS'.XOXX.OO.'
p261
F0.5
sS'XO.XXXO.O'
p262
I1
sS'XOXO.O.X.'
p263
F0.5
sS'.OOX..X..'
p264
F0.5
sS'.XOO.XX.O'
p265
F0.5
sS'.OOX..X.X'
p266
F0.5
sS'.XOXX.OOX'
p267
F0.5
sS'.XXOO...X'
p268
F0.5
sS'XOXO.O.XX'
p269
F0.5
sS'.XOO.XX..'
p270
F0.5
sS'O.XOO.XX.'
p271
F0.5
sS'X.XO..O.X'
p272
F0.5
sS'.XOXX..O.'
p273
F0.5
sS'XOO.XXXOO'
p274
F0.5
sS'.XXOX.O.O'
p275
F0.5
sS'.OXX.X.O.'
p276
F0.5
sS'X.OOX.XO.'
p277
F0.5
sS'..OOX..X.'
p278
F0.5
sS'XXO.OOXOX'
p279
F0.5
sS'.X..OOX.X'
p280
F0.5
sS'X.OOXOX.X'
p281
I1
sS'O.XX.OXOX'
p282
F0.5
sS'.OOXXXO.X'
p283
I1
sS'X.O..XOXO'
p284
F0.5
sS'O..X.O.XX'
p285
F0.5
sS'OX.XX.OOX'
p286
F0.5
sS'.XX.OO..X'
p287
F0.5
sS'.XX.OO...'
p288
F0.5
sS'OX.XX.OO.'
p289
F0.5
sS'.XX...XOO'
p290
F0.5
sS'XXO..O.OX'
p291
F0.5
sS'O..X.O.X.'
p292
F0.5
sS'OX..XOO.X'
p293
F0.5
sS'..OOX..XX'
p294
F0.5
sS'O.XX.OXO.'
p295
F0.5
sS'.X..OOX..'
p296
F0.5
sS'XOO.XXXO.'
p297
F0.5
sS'X.OOX.XOX'
p298
I1
sS'.XXOX.O..'
p299
F0.5
sS'..XOX.OOX'
p300
F0.5
sS'.OXX.X.OO'
p301
F0.5
sS'OX.XX..OO'
p302
F0.5
sS'XXX.O.O..'
p303
I1
sS'.XOX.OX.O'
p304
I0
sS'.OOX.OXX.'
p305
F0.5
sS'.XXOO.X..'
p306
F0.5
sS'XO..OX...'
p307
F0.5
sS'..XXXOXOO'
p308
I1
sS'.OXXO.XXO'
p309
F0.5
sS'O.XXXO.XO'
p310
F0.5
sS'..OO..XXX'
p311
I1
sS'.XOXO.OX.'
p312
I0
sS'...X..X.O'
p313
F0.5
sS'OO.XXO..X'
p314
F0.5
sS'XO..OX..X'
p315
F0.5
sS'OX.XX..O.'
p316
F0.5
sS'XXXOOX..O'
p317
I1
sS'.OOX.OXXX'
p318
I1
sS'.XOX.OX..'
p319
F0.5
sS'OXOXXXO..'
p320
I1
sS'X.OXOXOOX'
p321
I0
sS'OXXXOO...'
p322
F0.5
sS'..XXO..OX'
p323
F0.5
sS'OOOX..XX.'
p324
I0
sS'X.X..O..O'
p325
F0.5
sS'.XO..O.X.'
p326
F0.5
sS'.XXOO..XO'
p327
F0.5
sS'O..OXX.X.'
p328
F0.5
sS'XO...OX.X'
p329
F0.5
sS'.OOX..XXO'
p330
F0.5
sS'XO...OX..'
p331
F0.5
sS'.OOX..XX.'
p332
F0.5
sS'.OXOX.X..'
p333
I1
sS'...XO.O.X'
p334
F0.5
sS'OOXXXO...'
p335
F0.5
sS'.XO..O.XX'
p336
F0.5
sS'X.X..O...'
p337
F0.5
sS'.X.O.X.XO'
p338
F0.5
sS'OOX...OXX'
p339
F0.5
sS'.XXOO..X.'
p340
F0.5
sS'OXXXOO..X'
p341
F0.5
sS'..XXO..O.'
p342
F0.5
sS'.XXXOO.OX'
p343
F0.5
sS'..XOXOOX.'
p344
F0.5
sS'..OOX...X'
p345
F0.98
sS'.XXO.X..O'
p346
F0.5
sS'...XXOO.X'
p347
F0.5
sS'XO.OX..XO'
p348
F0.5
sS'OOXX.O.X.'
p349
F0.5
sS'XX.X.OXOO'
p350
I1
sS'.XX.X..OO'
p351
F0.5
sS'XOOXXX..O'
p352
I1
sS'.O.X.XXO.'
p353
F0.5
sS'XO.OX..X.'
p354
F0.5
sS'...XXOO..'
p355
F0.5
sS'XX..OXOXO'
p356
F0.5
sS'.O.X.XXOO'
p357
F0.5
sS'OOXX.O.XX'
p358
F0.5
sS'O..OX.XOX'
p359
F0.5
sS'OO...XXOX'
p360
F0.5
sS'XXO.OOX..'
p361
F0.5
sS'.XXOOX.XO'
p362
F0.5
sS'..XOXOOXX'
p363
F0.5
sS'.XXXOO.O.'
p364
F0.5
sS'O..XOOXX.'
p365
F0.5
sS'OXOO.XX.X'
p366
F0.5
sS'.OOXXXOX.'
p367
I1
sS'.OOXX.OX.'
p368
F0.5
sS'O...XX..O'
p369
F0.5
sS'XO..OX.XO'
p370
F0.5
sS'XOXXOOXXO'
p371
I1
sS'XOXO..XO.'
p372
F0.5
sS'....XOX.O'
p373
F0.5
sS'XOXO..XOX'
p374
F0.5
sS'OOX.....X'
p375
F0.5
sS'X..O.O.X.'
p376
F0.5
sS'OXOOXXXOX'
p377
F0.5
sS'.OOX.XXO.'
p378
F0.5
sS'.XXXOOOOX'
p379
F0.5
sS'.OOXX.OXX'
p380
F0.5
sS'XXOOXXXOO'
p381
F0.5
sS'XXXOO..OX'
p382
I1
sS'...O..OXX'
p383
F0.5
sS'O...XX...'
p384
F0.5
sS'X..XO.XO.'
p385
I1
sS'OXOO.XX..'
p386
F0.5
sS'XO..OX.X.'
p387
F0.5
sS'O..XOOXXX'
p388
I1
sS'O.XOOXX.X'
p389
I1
sS'.XOOX.XO.'
p390
F0.5
sS'O..XOX...'
p391
F0.5
sS'.X.XO.O..'
p392
F0.5
sS'O..X..X.O'
p393
F0.5
sS'XO..O..X.'
p394
F0.5
sS'.O.XOXX..'
p395
F0.5
sS'.XO...X..'
p396
F0.5
sS'OO.XOXXXO'
p397
I0
sS'OOX.XXO..'
p398
F1.0
sS'OO..OXX.X'
p399
F0.5
sS'OO.XOXXX.'
p400
F0.5
sS'.OOX.OX.X'
p401
F0.5
sS'OOX.XXO.X'
p402
I1
sS'XO..O..XX'
p403
F0.5
sS'O.XOOXX..'
p404
F0.5
sS'O..X..X..'
p405
F0.5
sS'....XOX..'
p406
F0.5
sS'.O.XOXX.O'
p407
F0.5
sS'O..XOX..X'
p408
F0.5
sS'.XOOX.XOX'
p409
F0.5
sS'.XO...X.O'
p410
F0.5
sS'OXX..XOO.'
p411
F0.5
sS'OXXX.O.O.'
p412
F0.5
sS'.OOX....X'
p413
F0.5
sS'.X...X..O'
p414
F0.5
sS'O.OXOXXOX'
p415
F0.5
sS'.XXOXOXO.'
p416
I1
sS'OXO.O.XX.'
p417
F0.5
sS'O..O.XX..'
p418
F0.5
sS'OXO.XX.XO'
p419
I1
sS'O..O.XX.X'
p420
F0.5
sS'.O.XXO.X.'
p421
F0.5
sS'.O..XX.XO'
p422
F0.5
sS'OXO.O.XXX'
p423
I1
sS'OOXXXO..X'
p424
F0.5
sS'OXXX.O.OX'
p425
F0.5
sS'OXX..XOOX'
p426
I1
sS'X.XOXOOXO'
p427
F0.5
sS'.XX.OXO..'
p428
F0.5
sS'XOXXX.O.O'
p429
F0.5
sS'..OOX.X.X'
p430
F0.5
sS'XXOX.O.O.'
p431
F0.5
sS'..XOXO..X'
p432
F0.5
sS'O.O...XX.'
p433
F0.5
sS'O.O...XXX'
p434
I1
sS'XOX..XOXO'
p435
F0.5
sS'..XOXO...'
p436
F1.0
sS'XXOX.O.OX'
p437
F0.5
sS'..OOX.X..'
p438
F0.5
sS'.XX.OXO.O'
p439
F0.5
sS'XX..OOO.X'
p440
F0.5
sS'..OO.X.XX'
p441
F0.5
sS'..XXX.O.O'
p442
F0.5
sS'X.O...XOX'
p443
F0.5
sS'.XOO....X'
p444
F0.5
sS'OX..OX.OX'
p445
F0.5
sS'X.XOOOXOX'
p446
I0
sS'XO.X..XO.'
p447
I1
sS'.OX.XXO.O'
p448
F1.0
sS'..OO.X.X.'
p449
F0.5
sS'X.O...XO.'
p450
F0.5
sS'XOO.X..XO'
p451
F0.5
sS'O.XXOOX..'
p452
F0.5
sS'X.XOOXOXO'
p453
F0.5
sS'XOOXOXXXO'
p454
I1
sS'OXX...OX.'
p455
F0.5
sS'XXOXX.O.O'
p456
F0.5
sS'.X.XOO...'
p457
F0.5
sS'.X.XOO..X'
p458
F0.5
sS'OXX...OXO'
p459
F0.5
sS'XX.XOOOOX'
p460
F0.5
sS'..XXOOXXO'
p461
F0.5
sS'O...X.OX.'
p462
F1.0
sS'.XO.OXO.X'
p463
I0
sS'XOO.X..X.'
p464
F0.5
sS'.XXOOO..X'
p465
I0
sS'XXXO..OOX'
p466
I1
sS'OOO.XXXOX'
p467
I0
sS'X.XOOXOX.'
p468
F0.5
sS'O..XXXO..'
p469
I1
sS'O.XXOOX.X'
p470
F0.5
sS'.XX.OOXXO'
p471
F0.5
sS'O.O.XX.X.'
p472
F0.5
sS'.X.XOOX.O'
p473
F0.5
sS'O...XO..X'
p474
F0.5
sS'XO..X..O.'
p475
F0.5
sS'OXX..X.O.'
p476
F0.5
sS'OXX..X.OO'
p477
F0.5
sS'.XX..O.XO'
p478
F0.5
sS'.O.O.XOXX'
p479
F0.5
sS'.XO.OO.XX'
p480
F0.5
sS'O.O.XX.XO'
p481
F0.5
sS'XO..X..OX'
p482
I1
sS'.X.XOOX..'
p483
F0.5
sS'OOO.X.XX.'
p484
I0
sS'OXOO..X.X'
p485
F0.5
sS'XX.OXOXOO'
p486
F0.5
sS'OXX..OX..'
p487
F0.5
sS'.X...OXXO'
p488
F0.5
sS'XX.....OO'
p489
F0.5
sS'OO.X.X...'
p490
F0.5
sS'.O.XX.X.O'
p491
F0.5
sS'..XO.OXXO'
p492
F0.5
sS'OXOO.X.X.'
p493
F0.5
sS'O.XXO..X.'
p494
F0.5
sS'X.OX.X.OO'
p495
F0.5
sS'XOXO.XOX.'
p496
F0.5
sS'.O.OXX...'
p497
F0.5
sS'XOX..O...'
p498
F0.5
sS'.O.OXX..X'
p499
F0.5
sS'.O..O..XX'
p500
F0.5
sS'..OXXO...'
p501
F0.5
sS'X.X..O.OX'
p502
F0.5
sS'XOX..O..X'
p503
F0.5
sS'XXO.OX.XO'
p504
F0.5
sS'X.OX.X.O.'
p505
F0.5
sS'XOXO.XOXO'
p506
F0.5
sS'XX.OXOXO.'
p507
F0.5
sS'OO.X.X..X'
p508
F0.5
sS'OXX..OX.O'
p509
F0.5
sS'OXOO.X.XX'
p510
F0.5
sS'XX.....O.'
p511
F0.5
sS'O.XOO.X.X'
p512
F0.5
sS'X..O..O.X'
p513
F0.5
sS'..XO.OXX.'
p514
F0.5
sS'O.XXO..XO'
p515
I0
sS'O.OXX..XO'
p516
F0.5
sS'OX.X...XO'
p517
F0.5
sS'XOXOOX...'
p518
F0.5
sS'XOO.OXOXX'
p519
I0
sS'...O..X..'
p520
F0.5
sS'.XOO..X..'
p521
F0.5
sS'...XXO.XO'
p522
F0.5
sS'X.OOX.X.O'
p523
F0.5
sS'XXO.O..OX'
p524
F0.5
sS'X.X..OOX.'
p525
F0.5
sS'OXO..X..X'
p526
F0.5
sS'X.O.OO.XX'
p527
F0.5
sS'X.X..OOXO'
p528
F0.5
sS'OOX.XO..X'
p529
F0.5
sS'O.OXX..X.'
p530
F0.5
sS'.XOO..X.X'
p531
F0.5
sS'...O..X.X'
p532
F0.5
sS'XOXOOX..X'
p533
I1
sS'X.OOX.X..'
p534
F0.5
sS'...OOXX.X'
p535
F0.5
sS'..XOXOX..'
p536
I1
sS'X..OOXO.X'
p537
F0.5
sS'X.O.X.OXO'
p538
F0.5
sS'XOX.XXOO.'
p539
F0.5
sS'..OO...XX'
p540
F0.5
sS'X.XOO.XO.'
p541
F0.5
sS'...X.OX.O'
p542
F0.5
sS'....X.O..'
p543
F0.5
sS'.OOXXXXO.'
p544
I1
sS'XXO.O.OX.'
p545
I0
sS'X....O.XO'
p546
F0.5
sS'..OOXOX.X'
p547
F0.5
sS'OXO..XXO.'
p548
F0.5
sS'XX.OX...O'
p549
F0.5
sS'...X.OX..'
p550
F0.5
sS'OXO..XXOX'
p551
F0.5
sS'.X..OXOOX'
p552
F0.5
sS'..XX..OXO'
p553
F0.5
sS'....X.O.X'
p554
F0.5
sS'X....O.X.'
p555
F0.5
sS'X.XOO.XOX'
p556
F0.5
sS'..XX.OOOX'
p557
F0.5
sS'X...O..OX'
p558
F0.5
sS'...OOXX..'
p559
F0.5
sS'X.O.X.OX.'
p560
F0.5
sS'XOX.XXOOO'
p561
I0
sS'X.O.XXO.O'
p562
F0.5
sS'XOOO.XXXO'
p563
F0.5
sS'XXO..OO.X'
p564
F0.5
sS'..OXXO..X'
p565
F0.5
sS'OX.O...X.'
p566
F0.5
sS'..XX.OX.O'
p567
F0.5
sS'O..X.X...'
p568
F0.5
sS'.OX.X..XO'
p569
F0.5
sS'..OXXXO..'
p570
I1
sS'OX.......'
p571
F0.5
sS'.OXO.OXX.'
p572
F0.5
sS'OO.OXXOXX'
p573
I0
sS'OOO.X.X.X'
p574
I0
sS'X....OXXO'
p575
F0.5
sS'.OXO.OXXX'
p576
I1
sS'OX......X'
p577
F0.5
sS'XOOO.XXX.'
p578
F0.5
sS'OX.O...XX'
p579
F0.5
sS'.X..X.OXO'
p580
I1
sS'O..X.X..O'
p581
F0.5
sS'..O..X.OX'
p582
F0.5
sS'.XX.OO.X.'
p583
F0.5
sS'O.O..XXXO'
p584
F0.5
sS'..O.OX.XX'
p585
F0.5
sS'X.X.O.OX.'
p586
F0.5
sS'OX.XO..OX'
p587
F0.5
sS'..XO...OX'
p588
F0.5
sS'X.X.OXO..'
p589
F0.5
sS'XO.OX.XXO'
p590
F0.5
sS'X.XXOO...'
p591
F0.5
sS'.O.X.XO.X'
p592
F0.5
sS'XOO.XX.XO'
p593
F0.5
sS'.XOOXXX.O'
p594
F0.5
sS'.XXOXOX.O'
p595
I1
sS'O.XXXOO.X'
p596
F0.5
sS'O.OX.X.XO'
p597
F0.5
sS'X...X.O..'
p598
F0.5
sS'OOX.OXX.X'
p599
I1
sS'.XXO.X.OO'
p600
F0.5
sS'.X...OX..'
p601
F0.5
sS'OXXOOXOX.'
p602
I0
sS'O.OX.X.X.'
p603
F0.5
sS'X...X.O.O'
p604
F0.5
sS'.XOO.OXXX'
p605
I1
sS'.XXO.X.O.'
p606
F0.5
sS'O.XXXOO..'
p607
F0.5
sS'XXOOXX..O'
p608
F0.5
sS'..OXX.X.O'
p609
F0.5
sS'XX..OOXXO'
p610
F0.5
sS'OOX.OXX..'
p611
F0.5
sS'.XX.OO.XO'
p612
F0.5
sS'O.O..XXX.'
p613
F0.5
sS'X.X.O.OXO'
p614
F0.5
sS'.OXXOOXOX'
p615
I0
sS'XOO...XXO'
p616
F0.5
sS'X.X.OXO.O'
p617
F0.5
sS'.O.X.XO..'
p618
F0.5
sS'X.XXOO..O'
p619
F0.5
sS'..O.OX.X.'
p620
F0.5
sS'O..OXXO.X'
p621
I0
sS'....OXXXO'
p622
F0.5
sS'XX....OOX'
p623
F0.5
sS'XX.XOO.XO'
p624
F0.5
sS'OOXOX.XX.'
p625
I1
sS'.........'
p626
F0.5
sS'OXOO.XXX.'
p627
F0.5
sS'X.XO.OXXO'
p628
F0.5
sS'...X.XXOO'
p629
F0.5
sS'.X..OX.OX'
p630
F0.5
sS'XO.OXX.XO'
p631
F0.5
sS'X.X..OO..'
p632
F0.5
sS'.XOOX....'
p633
F0.5
sS'.XOOX...X'
p634
F0.5
sS'X..X.OX.O'
p635
I1
sS'X.OOOX.X.'
p636
F0.5
sS'........X'
p637
F0.5
sS'XXX.XOOO.'
p638
I1
sS'.O....OXX'
p639
F0.5
sS'XOXXOO.OX'
p640
I0
sS'..OO..X.X'
p641
F0.5
sS'OXOO.XXXO'
p642
F0.5
sS'O..XOXXOX'
p643
F0.5
sS'.XOOX.X.O'
p644
F0.5
sS'.XO.O.XXO'
p645
F0.5
sS'XOX.O....'
p646
F0.5
sS'X..O.X.XO'
p647
F0.5
sS'OOOOXX.XX'
p648
I0
sS'..XXO.OXO'
p649
F0.5
sS'O..XXOX.O'
p650
F0.5
sS'XX.OXO...'
p651
F0.5
sS'O..O.XXXO'
p652
F0.5
sS'.O.O.XXOX'
p653
F0.5
sS'..XXO.OX.'
p654
F0.5
sS'XXOOOXOX.'
p655
I0
sS'O..XXOX..'
p656
F0.5
sS'XX.OXO..O'
p657
F0.5
sS'X......OX'
p658
F0.5
sS'O..O.XXX.'
p659
F0.5
sS'XOX.O...X'
p660
F0.5
sS'XOXXO.X.O'
p661
I1
sS'.XOOX.X..'
p662
F0.5
sS'.XO.O.XX.'
p663
F0.5
sS'O..XOXXO.'
p664
F0.5
sS'.XXXOXO.O'
p665
F0.5
sS'XO.OX....'
p666
F0.5
sS'.OO.XXXO.'
p667
F0.5
sS'X.XO.XXOO'
p668
F0.5
sS'XOX..XO.O'
p669
F0.5
sS'O.X.X..OX'
p670
F0.5
sS'..X....OX'
p671
F0.5
sS'O.X.X.OOX'
p672
F0.5
sS'XOX..XO..'
p673
F0.5
sS'O.X.X..O.'
p674
F0.5
sS'XXOO..XXO'
p675
F0.5
sS'O...OXXOX'
p676
F0.5
sS'X..OXXXOO'
p677
F0.5
sS'XO.OX...X'
p678
I1
sS'.OO.XXXOX'
p679
F0.5
sS'.X....XOO'
p680
F0.5
sS'X.XOXOO..'
p681
F0.5
sS'OXXOXX.OO'
p682
F0.5
sS'X.OOXXX.O'
p683
F0.5
sS'X.XOXXOO.'
p684
F0.5
sS'XOOO.X.XX'
p685
F0.5
sS'.XXOOXXO.'
p686
F0.5
sS'.O..OXOXX'
p687
F0.5
sS'XOXOO.XOX'
p688
I0
sS'O.....OXX'
p689
F0.5
sS'.OX.O...X'
p690
F0.5
sS'.X....XO.'
p691
F0.5
sS'XOOO.X.X.'
p692
F0.5
sS'OXXOXX.O.'
p693
F0.5
sS'.X.OXXOXO'
p694
I1
sS'X.XOXXOOO'
p695
I0
sS'X.XOXOO.X'
p696
I1
sS'OX..XO.OX'
p697
F0.5
sS'.XXOOXXOO'
p698
F0.5
sS'XOOO..X.X'
p699
F0.5
sS'XOXXX.OOO'
p700
I0
sS'.XO..XO.X'
p701
F0.5
sS'X.XOOOOXX'
p702
I0
sS'X.OO..X..'
p703
F0.5
sS'.X..O....'
p704
F0.5
sS'OX....X.O'
p705
F0.5
sS'...OX.X..'
p706
F0.5
sS'XOXXO...O'
p707
F0.5
sS'XO...O.X.'
p708
F0.5
sS'OOXO.XXX.'
p709
F0.5
sS'..X...O..'
p710
F0.5
sS'OX....X..'
p711
F0.5
sS'.OX.O.XOX'
p712
I0
sS'.X..O...X'
p713
F0.5
sS'OOXO.XXXO'
p714
F0.5
sS'XOXXX.OO.'
p715
F0.5
sS'X.OO..X.X'
p716
F0.5
sS'XX.O..OXO'
p717
F0.5
sS'.O.XXX..O'
p718
I1
sS'..X.....O'
p719
F0.5
sS'XX..O..O.'
p720
F0.5
sS'..XXOX.OO'
p721
F0.5
sS'O...XXOXO'
p722
F0.5
sS'.XX...OXO'
p723
F0.5
sS'.X...O..X'
p724
F0.5
sS'XOO.XOX.X'
p725
I1
sS'..XX..XOO'
p726
F0.5
sS'....XO...'
p727
F0.5
sS'XX..O.OX.'
p728
F0.5
sS'XOXOXXO..'
p729
F0.5
sS'.XOO.XXO.'
p730
F0.5
sS'.XOO.XXOX'
p731
F0.5
sS'XOOX.O.X.'
p732
F0.5
sS'XX..O.OXO'
p733
F0.5
sS'.XOX.XOXO'
p734
F0.5
sS'XOXOXXO.O'
p735
F0.5
sS'XOO.XOX..'
p736
F0.5
sS'.X...O...'
p737
F0.5
sS'OXOXO.OXX'
p738
I0
sS'..X......'
p739
F0.5
sS'XO..O.XOX'
p740
I0
sS'..XXOX.O.'
p741
F0.5
sS'O...XXOX.'
p742
F0.5
sS'XX..O..OX'
p743
F0.5
sS'XOO.XXO..'
p744
F0.5
sS'XXXO..O..'
p745
I1
sS'XO.O.OXXX'
p746
I1
sS'.XO..XOOX'
p747
F0.5
sS'XX.O.XOXO'
p748
F0.5
sS'.OXXO..XO'
p749
F0.5
sS'OXO.X.O.X'
p750
F0.5
sS'.OXXO..X.'
p751
F0.5
sS'XOOXX..XO'
p752
F0.5
sS'XO.O.OXX.'
p753
F0.5
sS'XXO.OO.XX'
p754
F0.5
sS'OO..X...X'
p755
F0.5
sS'OXX..O.OX'
p756
F0.5
sS'O.XO...XX'
p757
F0.5
sS'X..O.OXXO'
p758
F0.5
sS'XO.XOXO..'
p759
F0.5
sS'..X...X.O'
p760
F0.5
sS'XX.OXOX.O'
p761
F0.5
sS'X.X.XO..O'
p762
F0.5
sS'O.X..X.XO'
p763
F0.5
sS'O.O.X..X.'
p764
F0.5
sS'.O.X.OX.X'
p765
F0.5
sS'.XO.OXOX.'
p766
I0
sS'.XOXX.OXO'
p767
I1
sS'.O.X.OX..'
p768
F0.5
sS'.XO.O.OXX'
p769
I0
sS'XO.XOXO.X'
p770
F0.5
sS'X..O.OXX.'
p771
F0.5
sS'X.O.XOXOX'
p772
I1
sS'XO.X.XOO.'
p773
F0.5
sS'..XOX.OX.'
p774
F0.5
sS'.OO..X.X.'
p775
F0.5
sS'XO..XXOOX'
p776
I1
sS'X.X...OXO'
p777
F0.5
sS'XXO..O.X.'
p778
F0.5
sS'.OX.OO.XX'
p779
F0.5
sS'XO.X.O.OX'
p780
F0.5
sS'XO...OXOX'
p781
F0.5
sS'XO..OO.XX'
p782
F0.5
sS'XXO..O.XO'
p783
I0
sS'..XOX.OXO'
p784
F0.5
sS'.OXOX.XOX'
p785
I1
sS'OX....XXO'
p786
F0.5
sS'XO.X.XOOX'
p787
F0.5
sS'.OO..X.XX'
p788
F0.5
sS'XOOXXX.O.'
p789
I1
sS'OX..OOXXX'
p790
I1
sS'...XO.XXO'
p791
F0.5
sS'.XOXXOO.X'
p792
F0.5
sS'XO.XX.OO.'
p793
F0.5
sS'.X.......'
p794
F0.5
sS'O.O.XXOX.'
p795
F0.5
sS'.XOOXXOOX'
p796
F0.5
sS'O.O.XXOXX'
p797
F0.5
sS'.X......O'
p798
F0.5
sS'X..XOOO.X'
p799
F0.5
sS'X.OX.OOX.'
p800
F0.5
sS'XO.X..O..'
p801
F0.5
sS'OX..OOXX.'
p802
F0.5
sS'XOOO.XX..'
p803
F0.5
sS'..O.XXX.O'
p804
F0.5
sS'..XOOOX.X'
p805
I0
sS'.....O..X'
p806
F0.5
sS'OXO.XXOX.'
p807
I1
sS'XO....OXX'
p808
F0.5
sS'OXOXOO.XX'
p809
F0.5
sS'OXXXOOX..'
p810
F0.5
sS'XXOO.OOXX'
p811
F0.5
sS'OOX.XO.XX'
p812
F0.5
sS'O..OOXXXX'
p813
I1
sS'OOX.XO.X.'
p814
F0.5
sS'XOXOXO.X.'
p815
F0.5
sS'O.OXX.O.X'
p816
F0.5
sS'OXXXOOX.O'
p817
I0
sS'O..OOXXX.'
p818
F0.5
sS'XO....OX.'
p819
F0.5
sS'OXO.X.OXX'
p820
I1
sS'XXO.....O'
p821
F0.5
sS'XOOO.XX.X'
p822
F0.5
sS'XXXO..XOO'
p823
I1
sS'..OXOXX..'
p824
F0.5
sS'O.XXOXO..'
p825
F0.5
sS'OX.X.OXOX'
p826
F0.5
sS'OX..OX..X'
p827
F0.5
sS'.X..X..O.'
p828
F0.5
sS'XOXOX.X.O'
p829
I1
sS'..O.XX.OX'
p830
F0.5
sS'OOXXOOX.X'
p831
F0.5
sS'.OXX..OOX'
p832
F0.5
sS'..O.XX.O.'
p833
F1.0
sS'OX.O.X.OX'
p834
F0.5
sS'OOX.O.X.X'
p835
F0.5
sS'OX.X.OXO.'
p836
F0.5
sS'O.XXOXO.X'
p837
I1
sS'.XX.OXOOX'
p838
I1
sS'XOXOXO..X'
p839
I1
sS'OX.X.X.OO'
p840
F0.5
sS'.OXX...OX'
p841
F0.5
sS'XXX.XOO.O'
p842
I1
sS'O..X.X.XO'
p843
F0.5
sS'.O...XXOX'
p844
F0.5
sS'...OOXXX.'
p845
F0.5
sS'X.O.XO...'
p846
F0.5
sS'.XX.O.XO.'
p847
F0.5
sS'O.OX...XX'
p848
F0.5
sS'X.OX..OXO'
p849
F0.5
sS'...OOXXXO'
p850
F0.5
sS'O.OX...X.'
p851
F0.5
sS'OX.....XO'
p852
F0.5
sS'XX.OXXOO.'
p853
F0.5
sS'X.O.XO..X'
p854
I1
sS'.O...XXO.'
p855
F0.5
sS'.OXX...O.'
p856
F0.5
sS'.XO.OX.OX'
p857
F0.5
sS'XOXOXO...'
p858
F0.5
sS'OX.X.X.O.'
p859
F0.5
sS'OXOXXO.X.'
p860
I1
sS'.XX.OXOO.'
p861
F0.5
sS'OXXO.....'
p862
F0.5
sS'O.XOX.OX.'
p863
I0
sS'XOX.XO..O'
p864
F0.5
sS'.X.X.OXO.'
p865
F0.5
sS'XXO..XO..'
p866
F0.5
sS'..OXXO.XO'
p867
F0.0
sS'XO.XO.OX.'
p868
F0.5
sS'OX..X..OX'
p869
F0.5
sS'OO..XO.XX'
p870
F0.5
sS'X.O....X.'
p871
F0.5
sS'X.OOO..XX'
p872
F0.5
sS'O.X.O...X'
p873
F0.5
sS'.XXX.OOXO'
p874
F0.5
sS'X.O....XO'
p875
F0.5
sS'..XXOO.OX'
p876
F0.5
sS'OOXXXOXXO'
p877
I1
sS'XO.XO..OX'
p878
I0
sS'.X.X.OXOO'
p879
F0.5
sS'OX..X..O.'
p880
F0.5
sS'XXO..XO.O'
p881
F0.5
sS'OXXO....X'
p882
F0.5
sS'XOX.XO...'
p883
F0.5
sS'XXX.OO.XO'
p884
I1
sS'.OXX.XO.O'
p885
F0.5
sS'XOXX.OOXO'
p886
F0.5
sS'X.XO....O'
p887
F0.5
sS'OXXXX.OO.'
p888
F0.5
sS'..OOOXX.X'
p889
F0.5
sS'XO.X.XO.O'
p890
F0.5
sS'.O..XOOXX'
p891
F1.0
sS'.XXXXOOOO'
p892
F0.0
sS'XOXO.OOXX'
p893
F0.5
sS'OXX.O.O.X'
p894
F0.5
sS'OOXX.XX.O'
p895
F0.5
sS'OX.XOXOOX'
p896
F0.5
sS'OXXXX.OOO'
p897
I0
sS'.XXXXOOO.'
p898
F0.5
sS'X.....OX.'
p899
F0.5
sS'O.OX.X..X'
p900
F0.5
sS'XOXX.OOX.'
p901
F0.5
sS'OXOXO.XOX'
p902
F0.5
sS'X.XOXXO.O'
p903
F0.5
sS'.XXXXO.OO'
p904
F0.5
sS'.OOXXOXX.'
p905
F0.5
sS'XOX.XOX.O'
p906
I1
sS'.XO.OXX.O'
p907
F0.5
sS'..OO.XXOX'
p908
F0.5
sS'.X....X.O'
p909
F0.5
sS'XXOXX.OO.'
p910
F0.5
sS'OXXOXX..O'
p911
F0.5
sS'O.XXX.OXO'
p912
F0.5
sS'X....X.OO'
p913
F0.5
sS'X.O.XO.XO'
p914
I0
sS'.O...OXX.'
p915
F0.5
sS'XXOXX.OOO'
p916
I0
sS'.O...OXXX'
p917
I1
sS'X....X.O.'
p918
F0.5
sS'X.O.XO.X.'
p919
F0.5
sS'.O.X..XXO'
p920
F0.5
sS'XOXXO..XO'
p921
F0.5
sS'..OOXXO.X'
p922
F0.5
sS'OXX..X..O'
p923
F0.5
sS'.OOX.XXXO'
p924
F0.5
sS'.XO.OXX..'
p925
F0.5
sS'X.OX.OXOX'
p926
I1
sS'OOOXOXX.X'
p927
I0
sS'X.X..O.XO'
p928
F0.5
sS'X...O.O.X'
p929
F0.5
sS'...OX...X'
p930
F0.5
sS'OOXX.XO.X'
p931
I1
sS'.OX..XO..'
p932
F0.5
sS'.XOX..OXO'
p933
F0.5
sS'XX..OXO.O'
p934
F0.5
sS'XXOO.OXX.'
p935
F0.5
sS'.XOX..OX.'
p936
F0.5
sS'XX..OXO..'
p937
F0.5
sS'XXOO.OXXO'
p938
I0
sS'OOOXX..X.'
p939
I0
sS'.O.OXX.OX'
p940
F0.5
sS'.OX..XO.X'
p941
I1
sS'OOXX.XO..'
p942
F0.5
sS'.XOXX.XOO'
p943
F0.5
sS'XXOOOXO.X'
p944
I0
sS'OX.X.O...'
p945
F0.5
sS'OOOX.X..X'
p946
I0
sS'O.OOXXX..'
p947
F0.5
sS'.XX...OO.'
p948
F0.5
sS'.XXOXO...'
p949
F0.5
sS'.OXXOXXOO'
p950
I0
sS'.XOXOX.O.'
p951
F0.5
sS'X.X..OO.X'
p952
F0.5
sS'OOX....XX'
p953
F0.5
sS'.OO....XX'
p954
F0.5
sS'XOXXXOOXO'
p955
F0.5
sS'OXO..X.XO'
p956
F0.5
sS'OXOOXX.X.'
p957
I1
sS'XO.OOXOXX'
p958
F0.5
sS'OOX....X.'
p959
F0.5
sS'.XOXOX.OX'
p960
F0.5
sS'OXO..X.X.'
p961
F0.5
sS'O.OOXXX.X'
p962
F0.5
sS'O..X.XOOX'
p963
F0.5
sS'.XX...OOX'
p964
F0.5
sS'..XOX.XO.'
p965
I1
sS'OX.X.O..X'
p966
F0.5
sS'.XXOXO..O'
p967
F0.5
sS'..XOXOXOX'
p968
I1
sS'OO..X.XOX'
p969
F0.5
sS'..OXOX..X'
p970
F0.5
sS'OX.O..OXX'
p971
I0
sS'..XO...X.'
p972
F0.5
sS'XO.....OX'
p973
F0.5
sS'OOXO.XX.X'
p974
I1
sS'O.XXXO.OX'
p975
F0.5
sS'OX.OX.X.O'
p976
F0.5
sS'.XXOO.O.X'
p977
F0.5
sS'OXOOXXXXO'
p978
I1
sS'X.O.O.XOX'
p979
F0.5
sS'.OXO.O.XX'
p980
F0.5
sS'XOXXO....'
p981
F0.5
sS'OX.XX.XOO'
p982
F0.5
sS'.XO..XO..'
p983
F0.5
sS'O.XXXO.O.'
p984
F0.5
sS'OX.OXOXOX'
p985
F0.5
sS'OOXO.XX..'
p986
F0.5
sS'...OXXOX.'
p987
F0.5
sS'..XO...XO'
p988
F0.5
sS'XO.XOXOOX'
p989
I0
sS'X.O.XOX.O'
p990
I0
sS'X.X...XOO'
p991
F0.5
sS'OOXXOXX..'
p992
F0.5
sS'..OX.....'
p993
F0.5
sS'.OOOX..XX'
p994
F0.5
sS'..XXO..XO'
p995
F0.5
sS'OXO.X.XO.'
p996
F0.5
sS'..O.OXOXX'
p997
I0
sS'..XOXOO.X'
p998
F0.5
sS'OXO.X.XOX'
p999
F0.5
sS'X.O.XOX..'
p1000
F0.5
sS'OOXXOXX.O'
p1001
I0
sS'..XOOXOX.'
p1002
F0.5
sS'X.XXOO.OX'
p1003
F0.5
sS'.X.OX.O..'
p1004
F0.5
sS'XX....O.O'
p1005
F0.5
sS'..XOXXO..'
p1006
F0.5
sS'...OXX...'
p1007
F0.5
sS'OOXXOX..X'
p1008
I1
sS'.......XO'
p1009
F0.5
sS'.OXOOX.XX'
p1010
I1
sS'XO..OXO.X'
p1011
F0.5
sS'OOXX.XOX.'
p1012
F0.5
sS'.X..XO.OX'
p1013
F0.5
sS'.X.O.OX..'
p1014
F0.5
sS'.X.O.OX.X'
p1015
F0.5
sS'.X..XO.O.'
p1016
F0.5
sS'...XX.OXO'
p1017
F0.5
sS'XXX.O.XOO'
p1018
I1
sS'OOXXOX...'
p1019
F0.5
sS'.OXOOX.X.'
p1020
F0.5
sS'OOXX.XOXO'
p1021
F0.5
sS'...O....X'
p1022
F0.5
sS'XO.X.XO..'
p1023
F0.5
sS'.O.OX.XX.'
p1024
F0.5
sS'X.XXOO.O.'
p1025
F0.5
sS'XX....O..'
p1026
F0.5
sS'X..O..XXO'
p1027
F0.5
sS'..XOXXO.O'
p1028
F0.5
sS'X..OOXXXO'
p1029
F0.5
sS'OOXXX..O.'
p1030
F0.5
sS'OO...X.X.'
p1031
F0.5
sS'XX.O.XO..'
p1032
F0.5
sS'OOXOOXXXX'
p1033
I1
sS'...XO...X'
p1034
F0.5
sS'.XOXXOOOX'
p1035
F0.5
sS'OX..OXO.X'
p1036
F0.5
sS'XX.O.XO.O'
p1037
F0.5
sS'...XO....'
p1038
F0.5
sS'OOXOOXXX.'
p1039
F0.5
sS'OO...X.XX'
p1040
F0.5
sS'...X...XO'
p1041
F0.5
sS'OX..OOX.X'
p1042
F0.5
sS'OOXXX..OX'
p1043
F0.5
sS'XXOOO..XX'
p1044
F0.5
sS'XX.OXO.O.'
p1045
F0.5
sS'XOOO.XXOX'
p1046
F0.5
sS'OOX..XOXX'
p1047
I1
sS'O.X.O.XX.'
p1048
F0.5
sS'XXO....OX'
p1049
F0.5
sS'OXOX.O.XX'
p1050
F0.5
sS'X..O.OX..'
p1051
F0.5
sS'.X..OX...'
p1052
F0.5
sS'.XOO.X.XO'
p1053
F0.5
sS'.X..OX..O'
p1054
F0.5
sS'X..O.OX.X'
p1055
F0.5
sS'XXOO...OX'
p1056
F0.5
sS'XXO....O.'
p1057
F0.5
sS'OOX..XOX.'
p1058
F0.5
sS'O.O.X.XOX'
p1059
F0.5
sS'OXOX.O.X.'
p1060
F0.5
sS'X.OXO.O.X'
p1061
I0
sS'O.X.O.XXO'
p1062
I0
sS'XXOOO..X.'
p1063
F0.5
sS'..XO..X.O'
p1064
F0.5
sS'XX.OXO.OX'
p1065
I1
sS'XOXX....O'
p1066
F0.5
sS'.X...XOO.'
p1067
F0.5
sS'OXX..XXOO'
p1068
F0.5
sS'XO.XXOO.X'
p1069
I1
sS'O..XXOXO.'
p1070
F0.5
sS'X.OX..O.X'
p1071
F0.5
sS'OX.X.OX.O'
p1072
F0.5
sS'X.OX..O..'
p1073
F0.5
sS'..OXOX...'
p1074
F0.5
sS'X.XOXO.XO'
p1075
F0.5
sS'OX.X.OX..'
p1076
F0.5
sS'O..XXOXOX'
p1077
F0.5
sS'.O.XXXOOX'
p1078
I1
sS'XO.XXOO..'
p1079
F0.5
sS'.X...XOOX'
p1080
F0.5
sS'O..XXOOXX'
p1081
F0.5
sS'XOXOXOOXX'
p1082
I1
sS'O....X.XO'
p1083
F0.5
sS'XOXO.XXOO'
p1084
F0.5
sS'OX..O..X.'
p1085
F0.5
sS'XOX..XOO.'
p1086
F0.5
sS'.XXX.OO.O'
p1087
F0.5
sS'.OX.O..XX'
p1088
F0.5
sS'O.X...OX.'
p1089
F0.5
sS'X...OX...'
p1090
F0.5
sS'X.XOX.O..'
p1091
F0.5
sS'XOXO.XXO.'
p1092
F0.5
sS'OX.OOX..X'
p1093
F0.5
sS'.XXX.OO..'
p1094
F0.5
sS'XOX..XOOX'
p1095
I1
sS'OX..O..XX'
p1096
F0.5
sS'O.X...OXX'
p1097
F0.5
sS'.OX.O..X.'
p1098
F0.5
sS'X.XOX.O.O'
p1099
F0.5
sS'X...OX..O'
p1100
F0.5
sS'..XOOXXXO'
p1101
F0.5
sS'O....X.X.'
p1102
F0.5
sS'XOXOXOOX.'
p1103
F0.5
sS'O..XXOOX.'
p1104
F0.5
sS'X.XXOOOOX'
p1105
F0.5
sS'X..X.OOXO'
p1106
F0.5
sS'XO.XO...X'
p1107
F0.5
sS'..X.OO..X'
p1108
F0.5
sS'O.O.X...X'
p1109
F0.5
sS'OXOXO..XX'
p1110
F0.5
sS'O...XXXO.'
p1111
F0.5
sS'X.O...XXO'
p1112
F0.5
sS'OXO...OXX'
p1113
F0.5
sS'.XXOXX.OO'
p1114
F0.5
sS'XXO.OXOXO'
p1115
I0
sS'XOXOO.X.X'
p1116
F0.5
sS'X..X.OOX.'
p1117
F0.5
sS'.OOX.O.XX'
p1118
F0.5
sS'O...XXXOO'
p1119
F0.5
sS'XOOO.X..X'
p1120
F0.5
sS'XO.XO....'
p1121
F0.5
sS'OXOXO..X.'
p1122
F0.5
sS'..O.OXX..'
p1123
F0.5
sS'X.O..XOOX'
p1124
F0.5
sS'O.OXO.XXX'
p1125
I1
sS'XOXOO...X'
p1126
F0.5
sS'XOXX.OO..'
p1127
F0.5
sS'XX.O..XOO'
p1128
F0.5
sS'XX....XOO'
p1129
F0.5
sS'XX.XOOOX.'
p1130
F0.5
sS'OXX.XXOOO'
p1131
I0
sS'OXOO..XXX'
p1132
I1
sS'XX.O..XO.'
p1133
F0.5
sS'XX.XOOOXO'
p1134
F0.5
sS'OXOO..XX.'
p1135
F0.5
sS'OXOX.O..X'
p1136
F0.5
sS'OXX.XXOO.'
p1137
F0.5
sS'X....XOXO'
p1138
F0.5
sS'O..X...OX'
p1139
F0.5
sS'XOXX.OO.X'
p1140
F0.5
sS'XO.X...XO'
p1141
F0.5
sS'..O.OXX.X'
p1142
F0.5
sS'O.OXO.XX.'
p1143
F0.5
sS'OX..XO.X.'
p1144
I1
sS'OXXOO.OXX'
p1145
I0
sS'XX.X.OO..'
p1146
F0.5
sS'XXOXXO.O.'
p1147
F0.5
sS'OOXXO.XX.'
p1148
F0.5
sS'XOOXO.X.X'
p1149
I1
sS'.XO.X...O'
p1150
F0.5
sS'OO.X.XOX.'
p1151
F0.5
sS'XXOOX....'
p1152
F0.5
sS'O.XX.OXXO'
p1153
F0.5
sS'OOXXO.XXO'
p1154
I0
sS'OO.X.XOXX'
p1155
F0.5
sS'.XO.X....'
p1156
F0.5
sS'..X..OO.X'
p1157
F0.5
sS'XX.OOX.OX'
p1158
F0.5
sS'XXOOX...O'
p1159
F0.5
sS'XO.O....X'
p1160
F0.5
sS'O.O.XX.OX'
p1161
F0.5
sS'XX.X.OO.O'
p1162
F0.5
sS'XXOXXO.OO'
p1163
I0
sS'.OOO.X.XX'
p1164
F0.5
sS'O.X.O..X.'
p1165
F0.5
sS'XXOO.O.XX'
p1166
F0.5
sS'..OX.O.XX'
p1167
F0.5
sS'XXO..OOXX'
p1168
F0.5
sS'XOX.OOX.X'
p1169
F0.5
sS'X..X.O.OX'
p1170
F0.5
sS'.XOXX.O.O'
p1171
F0.5
sS'..OO.XX..'
p1172
F0.5
sS'.O.XOXO.X'
p1173
F0.5
sS'.O...X...'
p1174
F0.5
sS'XXOOX.XO.'
p1175
F0.5
sS'.XOOXX...'
p1176
F0.5
sS'.O...X..X'
p1177
F0.5
sS'.XOXX.O..'
p1178
F0.5
sS'X....X..O'
p1179
F0.5
sS'OXO.XOXX.'
p1180
I1
sS'X.OX.OX..'
p1181
I1
sS'.XOOXX..O'
p1182
F0.5
sS'..OO.XX.X'
p1183
F0.5
sS'XOX.OOX..'
p1184
F0.5
sS'XXO..OOX.'
p1185
F0.5
sS'O.XXO..OX'
p1186
F0.5
sS'OXXOO...X'
p1187
F0.5
sS'X..X.O.O.'
p1188
F0.5
sS'O.X.O..XX'
p1189
F0.5
sS'..OX.O.X.'
p1190
F0.5
sS'XXOO.O.X.'
p1191
F0.5
sS'O.XXX..O.'
p1192
F0.5
sS'O.X.XXXOO'
p1193
I1
sS'....OXX..'
p1194
F0.5
sS'O.OXX..OX'
p1195
F0.5
sS'.X.XXOXOO'
p1196
F0.5
sS'....OOXX.'
p1197
F0.5
sS'O..X.OXX.'
p1198
F0.5
sS'XO..O.XX.'
p1199
F0.5
sS'O.X.OX.X.'
p1200
F0.5
sS'XXO..O..X'
p1201
F0.5
sS'OX.XXOOX.'
p1202
I1
sS'.XOOXXXO.'
p1203
F0.5
sS'O.X.OX.XO'
p1204
I0
sS'OXO.XO.XX'
p1205
I1
sS'X.XOXOXO.'
p1206
I1
sS'OXOXXXXOO'
p1207
I1
sS'XXO..O...'
p1208
F0.5
sS'.O.X.OXOX'
p1209
F0.5
sS'.XOOXXXOO'
p1210
F0.5
sS'O.XXX..OO'
p1211
F0.5
sS'....OXX.O'
p1212
F0.5
sS'OXOXXOO.X'
p1213
F0.5
sS'O..X.OXXO'
p1214
F0.5
sS'XO..O.XXO'
p1215
F0.5
sS'XXXOO..XO'
p1216
I1
sS'O....OXXX'
p1217
I1
sS'.O.X.OOXX'
p1218
F0.5
sS'.X.....O.'
p1219
F0.5
sS'OX.XX.O.O'
p1220
F0.5
sS'.OX.X.OX.'
p1221
F0.5
sS'OXXO.X...'
p1222
F0.5
sS'O.XX.OX.O'
p1223
F0.5
sS'XO...XXOO'
p1224
F0.5
sS'.OX...XXO'
p1225
F0.5
sS'OOXO...XX'
p1226
F0.5
sS'O.XO....X'
p1227
F0.5
sS'XOXOO..X.'
p1228
F0.5
sS'.OXXOXX.O'
p1229
F0.5
sS'XXXXO..OO'
p1230
I1
sS'XOXOO..XX'
p1231
F0.5
sS'O.XOXXO..'
p1232
I0
sS'..O.OXXOX'
p1233
F0.5
sS'.OX.X.OXO'
p1234
F0.5
sS'O....OXX.'
p1235
F0.5
sS'OXXO.X..O'
p1236
F0.5
sS'O.XX.OX..'
p1237
F0.5
sS'.X.....OX'
p1238
F0.5
sS'XO...XXO.'
p1239
F0.5
sS'XOX.OOXXO'
p1240
F0.5
sS'OOXOXX..X'
p1241
I1
sS'OX...XOOX'
p1242
F0.5
sS'O.OOXXXXO'
p1243
F0.6
sS'OXO..XO.X'
p1244
F0.5
sS'XO.O.X.XO'
p1245
F0.5
sS'X.OX..XO.'
p1246
I1
sS'..XXO.XO.'
p1247
F0.5
sS'O.OOXXXX.'
p1248
F0.5
sS'.XO.XOOXX'
p1249
I1
sS'.XX.OOO.X'
p1250
F0.5
sS'..XXO.XOO'
p1251
F0.5
sS'XOXX.XOOO'
p1252
I0
sS'.OOX.X.OX'
p1253
F0.5
sS'X..OO.OXX'
p1254
F0.5
sS'OOXOXX...'
p1255
F0.5
sS'...XXX.OO'
p1256
I1
sS'OX..X.O.X'
p1257
F0.5
sS'O.X.OX..X'
p1258
I1
sS'O.O..XXOX'
p1259
F0.5
sS'.O.XX..O.'
p1260
F1.0
sS'.OX.OXOXX'
p1261
I1
sS'OO..XX.XO'
p1262
F0.5
sS'OO...X..X'
p1263
F0.5
sS'XXOOXO.X.'
p1264
I1
sS'O.O.XXX..'
p1265
F0.5
sS'XOOX.OXX.'
p1266
I1
sS'X.O..OX..'
p1267
F0.5
sS'...XX...O'
p1268
F0.5
sS'XXXO.XOO.'
p1269
I1
sS'O.O.XXX.O'
p1270
F0.5
sS'.OX.OXOX.'
p1271
F0.5
sS'OO...XX..'
p1272
F0.5
sS'.O.XX..OX'
p1273
F0.5
sS'OX..X.O..'
p1274
F1.0
sS'X..O..OXX'
p1275
F0.5
sS'OXOXXXOXO'
p1276
I1
sS'.OXX.XOXO'
p1277
F0.5
sS'..X..O.OX'
p1278
F0.5
sS'X..O.XOX.'
p1279
F0.5
sS'.XOOOX.XX'
p1280
F0.5
sS'...OXXO.X'
p1281
F0.5
sS'XOX..XXOO'
p1282
F0.5
sS'O.X..OXOX'
p1283
F0.5
sS'OO..XOXXX'
p1284
I1
sS'..XOOX.X.'
p1285
F0.5
sS'O.XX..X.O'
p1286
F0.5
sS'OOOXXO.XX'
p1287
I0
sS'X.XXXOOO.'
p1288
F0.5
sS'O.XO.OXX.'
p1289
F0.5
sS'XOX.O.OX.'
p1290
F0.5
sS'XOX.O.OXX'
p1291
F0.5
sS'XOXO..X..'
p1292
F0.5
sS'O.XO.OXXX'
p1293
I1
sS'..XOOX.XO'
p1294
F0.5
sS'.O.XXXOXO'
p1295
I1
sS'X.XXXOOOO'
p1296
F0.0
sS'OO..XOXX.'
p1297
F0.5
sS'...OXXO..'
p1298
F0.5
sS'.XOOOX.X.'
p1299
F0.5
sS'X..O.XOXO'
p1300
F0.5
sS'.OOXXOOXX'
p1301
F0.5
sS'.XXXOO..O'
p1302
F0.5
sS'.OX.XOXOX'
p1303
I1
sS'X.OX.O...'
p1304
F0.5
sS'OXX.O..XO'
p1305
I0
sS'X.OO.OXXX'
p1306
I1
sS'.OX...X..'
p1307
F0.5
sS'O.XX.O..X'
p1308
F0.5
sS'.X.X.OX.O'
p1309
F0.5
sS'....O.XXO'
p1310
F0.5
sS'X..O..X.O'
p1311
F0.5
sS'...XO.OX.'
p1312
F0.5
sS'X.O..OXOX'
p1313
F0.5
sS'.O......X'
p1314
F0.5
sS'...X.O.X.'
p1315
F0.5
sS'..XXO.OOX'
p1316
F0.5
sS'X..O..X..'
p1317
F0.5
sS'...X.O.XO'
p1318
F0.5
sS'.X....OOX'
p1319
F0.5
sS'...XO..OX'
p1320
F0.5
sS'OXOO...XX'
p1321
F0.5
sS'OOOX...XX'
p1322
I0
sS'.O.XOOX.X'
p1323
F0.5
sS'O.XX.O...'
p1324
F0.5
sS'OXX.O..X.'
p1325
F0.5
sS'.OX...X.O'
p1326
F0.5
sS'O.XOX.X..'
p1327
I1
sS'X.OO.OXX.'
p1328
F0.5
sS'.OOOX.XXX'
p1329
I1
sS'...OO.X.X'
p1330
F0.5
sS'....O.XX.'
p1331
F0.5
sS'X.OX.O..X'
p1332
F0.5
sS'XOX..X.O.'
p1333
F0.5
sS'OX..OXOXX'
p1334
F0.5
sS'.OX.....X'
p1335
F0.5
sS'XOX.X.O..'
p1336
F0.5
sS'...XXOOXO'
p1337
F0.5
sS'XOXX...OO'
p1338
F0.5
sS'O.O.XXXXO'
p1339
F0.5
sS'X.X.OX..O'
p1340
F0.5
sS'XOX.OOXX.'
p1341
F0.5
sS'XOX.X.O.O'
p1342
F0.5
sS'...XXOOX.'
p1343
F0.5
sS'XOXX...O.'
p1344
F0.5
sS'.XOXXX.OO'
p1345
I1
sS'.OX......'
p1346
F0.5
sS'..XOO.OXX'
p1347
F0.5
sS'OX..OXOX.'
p1348
F0.5
sS'.O.XXOXXO'
p1349
F0.5
sS'XOX..X.OO'
p1350
F0.5
sS'O...XX.XO'
p1351
F0.5
sS'O.X.OXX.O'
p1352
F0.0
sS'.OO.X...X'
p1353
F0.5
sS'OO.XX.X..'
p1354
F0.5
sS'OX...OOXX'
p1355
F0.5
sS'OO.OXX..X'
p1356
F0.5
sS'..O.XOOXX'
p1357
F0.5
sS'OXXOO.XOX'
p1358
F0.5
sS'OX.XOXO..'
p1359
F0.5
sS'OX.OXO.XX'
p1360
I1
sS'.X.X..O.O'
p1361
F0.5
sS'.O..XXOX.'
p1362
F0.5
sS'XO.XOO..X'
p1363
F0.5
sS'OX.XOXO.X'
p1364
F0.5
sS'O.X.OXX..'
p1365
F0.5
sS'...X.XOXO'
p1366
F0.5
sS'OO.XX.X.O'
p1367
F0.5
sS'X..X.X.OO'
p1368
F0.5
sS'O..X..XXO'
p1369
F0.5
sS'.XX..OO..'
p1370
F0.5
sS'XX.OO.O.X'
p1371
F0.5
sS'OXOXXOXO.'
p1372
F0.5
sS'XXO.XXOO.'
p1373
F0.5
sS'.XO..XXO.'
p1374
F0.5
sS'X.XO.OOX.'
p1375
F0.5
sS'X.O....OX'
p1376
F0.5
sS'XXO.XXOOO'
p1377
I0
sS'.XO..XXOO'
p1378
F0.5
sS'.XX..OO.X'
p1379
F0.5
sS'.XO...XXO'
p1380
F0.5
sS'..O.O.X.X'
p1381
F0.5
sS'XX..OXOO.'
p1382
F0.5
sS'XOXX.OOOX'
p1383
F0.5
sS'..XXX.OO.'
p1384
F0.5
sS'.XXOXO.OX'
p1385
F0.5
sS'OX.X.O.OX'
p1386
F0.5
sS'..OX.X.XO'
p1387
F0.5
sS'OX.O..XX.'
p1388
F0.5
sS'XOXXOX..O'
p1389
F0.5
sS'OXXOO.X.X'
p1390
F0.5
sS'O..XX.OOX'
p1391
F0.5
sS'.OOX..XOX'
p1392
F0.5
sS'XO.X.OXOX'
p1393
I1
sS'OX..XXXOO'
p1394
F0.5
sS'..XXX.OOO'
p1395
I0
sS'XX..OXOOX'
p1396
F0.5
sS'OX.O..XXO'
p1397
F0.5
sS'.OXXXOXO.'
p1398
I1
sS'.XXOXO.O.'
p1399
F0.5
sS'O.O.XX..X'
p1400
F0.5
sS'.OXXXX.OO'
p1401
I1
sS'O.X.XOX..'
p1402
I1
sS'....OX.X.'
p1403
F0.5
sS'XOXXOXOXO'
p1404
F0.5
sS'XOOXOXX..'
p1405
I1
sS'XX..OOX..'
p1406
F0.5
sS'..X.OXOXO'
p1407
F0.5
sS'...X..XOO'
p1408
F0.5
sS'XXOXO.XO.'
p1409
I1
sS'XO..OX.OX'
p1410
I0
sS'..XX..OO.'
p1411
F0.5
sS'...XOX..O'
p1412
F0.5
sS'XX..OOX.O'
p1413
F0.5
sS'...X..XO.'
p1414
F0.5
sS'..X.OXOX.'
p1415
F0.5
sS'.O.XX.OOX'
p1416
F0.5
sS'..XX..OOX'
p1417
F0.5
sS'OX.XXOX.O'
p1418
F0.5
sS'XO.OXO.X.'
p1419
F0.5
sS'...XOX...'
p1420
F0.5
sS'O.O.XX...'
p1421
F1.0
sS'.XO.X.OOX'
p1422
F0.5
sS'....OX.XO'
p1423
F0.5
sS'OXOX...OX'
p1424
F0.5
sS'OOXXX.O..'
p1425
F0.5
sS'XXO.O.X.O'
p1426
F0.5
sS'O.XXO...X'
p1427
F0.5
sS'.XOX.OXO.'
p1428
F0.5
sS'OOXXOOXX.'
p1429
F0.5
sS'OXXXXOXOO'
p1430
I1
sS'.XO.XOXO.'
p1431
F0.5
sS'.X.OOX.X.'
p1432
F0.5
sS'XOX.OOXOX'
p1433
I0
sS'OX.OX.O.X'
p1434
I0
sS'XXX.O.OOX'
p1435
I1
sS'XXOO.OXOX'
p1436
F0.5
sS'.X.OOX.XO'
p1437
F0.5
sS'.XXO.XOOX'
p1438
I1
sS'.XOX.OXOX'
p1439
F0.5
sS'XXO.O.X..'
p1440
F0.5
sS'XX.XXOO.O'
p1441
F0.5
sS'O.XXO....'
p1442
F0.5
sS'XXXO.OXO.'
p1443
I1
sS'....OXXOX'
p1444
F0.5
sS'..XXO....'
p1445
F0.5
sS'XOX.X..OO'
p1446
F0.5
sS'OO.X.XO.X'
p1447
F0.5
sS'OXX...O..'
p1448
F0.5
sS'.OOXOXXOX'
p1449
I0
sS'XOXO.X.XO'
p1450
F0.5
sS'.XOXXO...'
p1451
F0.5
sS'.X.O.OXXO'
p1452
F0.5
sS'OXX...O.X'
p1453
F0.5
sS'.XOXXO..O'
p1454
I0
sS'.X..X...O'
p1455
F0.5
sS'OXOXOX.OX'
p1456
F0.5
sS'....OXXO.'
p1457
F0.5
sS'XXOOOXXXO'
p1458
F0.5
sS'..XXO...O'
p1459
F0.5
sS'XOX.X..O.'
p1460
F0.5
sS'XXO.O...X'
p1461
F0.5
sS'.XOO.XOX.'
p1462
F0.5
sS'XOXO...X.'
p1463
F0.5
sS'.XXO.O...'
p1464
F0.5
sS'.OXOX..X.'
p1465
F0.5
sS'XO..XOOX.'
p1466
F0.5
sS'.OXOX..XO'
p1467
F0.5
sS'.O.X.XX.O'
p1468
F0.5
sS'X.XOXOX.O'
p1469
I1
sS'OXX.X...O'
p1470
F0.5
sS'.XXO.O..X'
p1471
F0.5
sS'.XOO.XOXX'
p1472
F0.5
sS'.XOO..OXX'
p1473
F0.5
sS'XOXO...XO'
p1474
F0.5
sS'XXO.O....'
p1475
F0.5
sS'XX.OOOXXO'
p1476
I0
sS'.XOX.O..X'
p1477
F0.5
sS'OXOOX..XX'
p1478
I1
sS'XX.OX..OO'
p1479
F0.5
sS'...X.OXOX'
p1480
F0.5
sS'O.....XX.'
p1481
F0.5
sS'XOXXO.OX.'
p1482
F0.5
sS'..OX..OXX'
p1483
F0.5
sS'.O..OX.X.'
p1484
F0.5
sS'OX...XO.X'
p1485
F0.5
sS'OO.XXOXXO'
p1486
F0.5
sS'XOXXO.OXO'
p1487
F0.5
sS'OX...XO..'
p1488
F0.5
sS'OO.XO.X.X'
p1489
F0.5
sS'.O..OX.XX'
p1490
F0.5
sS'O.OXXX.OX'
p1491
I1
sS'OO.XXOXX.'
p1492
F0.5
sS'..OX..OX.'
p1493
F0.5
sS'...X.OXO.'
p1494
F0.5
sS'XX.OX..O.'
p1495
F0.5
sS'OXXOO.X..'
p1496
F0.5
sS'.X...XXOO'
p1497
F0.5
sS'.XOX.O...'
p1498
F0.5
sS'O...OXXXO'
p1499
I0
sS'.OXXXO...'
p1500
F0.5
sS'..XX.OXO.'
p1501
F0.5
sS'..O.XX.XO'
p1502
F0.5
sS'.X..O..OX'
p1503
F0.5
sS'.O.XOXXO.'
p1504
I0
sS'O.X.X.OX.'
p1505
F0.5
sS'O.X..O.X.'
p1506
F0.5
sS'O.X..O.XX'
p1507
F0.5
sS'X.XOOOXXO'
p1508
I0
sS'X..XXOOOX'
p1509
I1
sS'O.X.X.OXO'
p1510
F0.5
sS'O...OXXX.'
p1511
F0.5
sS'.OXXXO..O'
p1512
F0.5
sS'..XX.OXOO'
p1513
F0.5
sS'..XOOO.XX'
p1514
I0
sS'X.XXOOO.X'
p1515
F0.5
sS'..O.XOXOX'
p1516
F0.5
sS'XOOXXOX..'
p1517
I1
sS'XOXO.OX..'
p1518
F0.5
sS'OX.XO....'
p1519
F0.5
sS'X.X.XOOXO'
p1520
F0.5
sS'.OXX..XO.'
p1521
F0.5
sS'X.XOX.OXO'
p1522
F0.5
sS'X.OXOO..X'
p1523
F0.5
sS'X.OX..OOX'
p1524
F0.5
sS'.OXX..XOO'
p1525
F0.5
sS'O....OX.X'
p1526
F0.5
sS'XOXO.OX.X'
p1527
F0.5
sS'OX.XO...X'
p1528
F0.5
sS'XOXOO.X..'
p1529
F0.5
sS'XXX...OO.'
p1530
I1
sS'X.XXOOO..'
p1531
F0.5
sS'XOXXOOO.X'
p1532
F0.5
sS'XO.XOX.XO'
p1533
F0.5
sS'XX.O.OOXX'
p1534
F0.5
sS'.OX.X...O'
p1535
F1.0
sS'OOXXO.OXX'
p1536
F0.5
sS'XXOO.X.OX'
p1537
F0.5
sS'O...XXX.O'
p1538
F0.5
sS'OX.XOOOXX'
p1539
F0.5
sS'XOOX.OX.X'
p1540
I1
sS'.XXX.OOO.'
p1541
F0.5
sS'X..OXXOOX'
p1542
I1
sS'X.OOXXO..'
p1543
F0.5
sS'O.XX..XO.'
p1544
F0.5
sS'..X.X.OO.'
p1545
F0.5
sS'X.OXXOO..'
p1546
F0.5
sS'..XO.O.X.'
p1547
F0.5
sS'..X.X.OOX'
p1548
F0.5
sS'X.OXXOO.X'
p1549
I1
sS'..XO.O.XX'
p1550
F0.5
sS'X.OOXXO.X'
p1551
I1
sS'.OX.XOX..'
p1552
I1
sS'O.XX..XOO'
p1553
F0.5
sS'.OX.X....'
p1554
F0.5
sS'OXX.XOOOX'
p1555
F0.5
sS'..OOX.XOX'
p1556
F0.5
sS'..OXX..XO'
p1557
F0.5
sS'XXOO.X.O.'
p1558
F0.5
sS'OO.O.XX.X'
p1559
F0.5
sS'XX.OXOO..'
p1560
F0.5
sS'O..OX.XXO'
p1561
F0.5
sS'OX..X....'
p1562
F0.5
sS'O..X....X'
p1563
F0.5
sS'O..XOXX..'
p1564
F0.5
sS'X.O...X..'
p1565
F0.5
sS'XOX.O.O.X'
p1566
F0.5
sS'.OX.XXOO.'
p1567
F1.0
sS'.X.XOO.OX'
p1568
F0.5
sS'O.X.X.O.X'
p1569
F0.5
sS'XO.OXOXX.'
p1570
F0.5
sS'......OXX'
p1571
F0.5
sS'..O..O.XX'
p1572
F0.5
sS'......OX.'
p1573
F0.5
sS'O.X.X.O..'
p1574
F0.5
sS'XO.OXOXXO'
p1575
F0.5
sS'.OX.XXOOX'
p1576
I1
sS'O..OX.XX.'
p1577
F0.5
sS'XO...OOXX'
p1578
F0.5
sS'O..X.....'
p1579
F0.5
sS'O..XOXX.O'
p1580
I0
sS'XX.OXOO.X'
p1581
I1
sS'X.O...X.O'
p1582
F0.5
sS'O.OXOXOXX'
p1583
I0
sS'OXOX..OX.'
p1584
F0.5
sS'O.XXX.O..'
p1585
F0.5
sS'..XO.....'
p1586
F0.5
sS'X...O..XO'
p1587
F0.5
sS'O.OXX.XXO'
p1588
F0.5
sS'OXXOOXXO.'
p1589
F0.5
sS'.XO..XOXO'
p1590
F0.5
sS'OXO.OXXXO'
p1591
I0
sS'OOXOX..X.'
p1592
F0.5
sS'XX.O.OOX.'
p1593
F0.5
sS'.X.OO.OXX'
p1594
F0.5
sS'XX.OOXOX.'
p1595
F0.5
sS'..X..OOXX'
p1596
F0.5
sS'OXXX.OO.X'
p1597
F0.5
sS'.O.XOOXXX'
p1598
I1
sS'XXOOX..XO'
p1599
I1
sS'.O.XOOXX.'
p1600
F0.5
sS'.XO..XOX.'
p1601
F0.5
sS'OXXX.OO..'
p1602
F0.5
sS'..X..OOX.'
p1603
F0.5
sS'XX.O..X.O'
p1604
F0.5
sS'XX.OOXOXO'
p1605
F0.5
sS'OOXOX..XX'
p1606
F0.5
sS'.OX....OX'
p1607
F0.5
sS'XOXO..XXO'
p1608
F0.5
sS'XX.OOO.X.'
p1609
I0
sS'O.XXX.O.O'
p1610
F0.5
sS'OXXOOXXOX'
p1611
I1
sS'X...O..X.'
p1612
F0.5
sS'..XO....X'
p1613
F0.5
sS'OXOX..OXX'
p1614
F0.5
sS'X..O.X..O'
p1615
F0.5
sS'.OXO.X.X.'
p1616
F0.5
sS'OX...X.XO'
p1617
F0.5
sS'OXOX.XOXO'
p1618
F0.5
sS'OXXO..XOX'
p1619
F0.5
sS'O.X..X.OX'
p1620
I1
sS'XOOX..OXX'
p1621
F0.5
sS'.OO..XXXO'
p1622
F0.5
sS'.XOOXX.XO'
p1623
I1
sS'XX.XOOX.O'
p1624
I1
sS'XOOX..OX.'
p1625
F0.5
sS'O.X..X.O.'
p1626
F0.5
sS'.OO..XXX.'
p1627
F0.5
sS'X..O.X...'
p1628
F0.5
sS'.OXO.X.XO'
p1629
F0.5
sS'.X.OXO.X.'
p1630
I1
sS'OXXO..XO.'
p1631
F0.5
sS'OXOX.XOX.'
p1632
F0.5
sS'X.OXOXO..'
p1633
I0
sS'XO.X.O.X.'
p1634
F0.5
sS'.O..XX.O.'
p1635
F0.5
sS'O..XO.XX.'
p1636
F0.5
sS'..OXO.XX.'
p1637
F0.5
sS'.OOXOX.X.'
p1638
F0.5
sS'OX....XO.'
p1639
F0.5
sS'.X.XOOOXX'
p1640
F0.5
sS'OXO..X.OX'
p1641
F0.5
sS'XOXOXX.O.'
p1642
F0.5
sS'X..OO...X'
p1643
F0.5
sS'.OXXXOX.O'
p1644
I1
sS'XOXOXXOOX'
p1645
I1
sS'XOXOXXOO.'
p1646
F0.5
sS'XOXOXX.OO'
p1647
F0.5
sS'.XO.O...X'
p1648
F0.5
sS'.X.XOOOX.'
p1649
F0.5
sS'XO.X.O.XO'
p1650
F0.5
sS'XXXX.O.OO'
p1651
I1
sS'O..XO.XXO'
p1652
I0
sS'..OXO.XXO'
p1653
F0.5
sS'XXOO.O..X'
p1654
F0.5
sS'OX....XOX'
p1655
F0.5
sS'.O..XX.OX'
p1656
F0.5
sS'XX.OO.XXO'
p1657
F0.5
sS'XOOXO...X'
p1658
F0.5
sS'....OXO.X'
p1659
F0.5
sS'.XX.O.OXO'
p1660
F0.5
sS'O.O..X.XX'
p1661
F0.5
sS'OXXO.X.OX'
p1662
I1
sS'.X...O.OX'
p1663
F0.5
sS'OX.X..O..'
p1664
F0.5
sS'..XO.XO..'
p1665
F0.5
sS'..OO.XOXX'
p1666
F0.5
sS'.XO.X.O.X'
p1667
F0.5
sS'X..OXXOO.'
p1668
F0.5
sS'.OXOXXOX.'
p1669
F0.5
sS'.XX.X.OO.'
p1670
F0.5
sS'O..O.X..X'
p1671
F0.5
sS'.OXOXXOXO'
p1672
F0.5
sS'.XX.X.OOO'
p1673
I0
sS'XO...X.XO'
p1674
F0.5
sS'.XOO..XOX'
p1675
F0.5
sS'..XO.XO.X'
p1676
I1
sS'.XX.O.OX.'
p1677
F0.5
sS'.XO.X.O..'
p1678
F0.5
sS'OXXO.X.O.'
p1679
F0.5
sS'O.O..X.X.'
p1680
F0.5
sS'XX..X..OO'
p1681
F0.5
sS'.OXOXO.XX'
p1682
F0.5
sS'O.OXXOX.X'
p1683
F0.5
sS'X.O...OX.'
p1684
F0.5
sS'.XXO....O'
p1685
F0.5
sS'OXOX....X'
p1686
F0.5
sS'O.O.XOXXX'
p1687
I1
sS'X...O....'
p1688
F0.5
sS'XX...OOXO'
p1689
F0.5
sS'...XOX.O.'
p1690
F0.5
sS'...XOX.OX'
p1691
F0.5
sS'..OOXX.XO'
p1692
F0.5
sS'X...O...X'
p1693
F0.5
sS'OXOX.....'
p1694
F0.5
sS'XX...OOX.'
p1695
F0.5
sS'XXOO.XX.O'
p1696
F0.5
sS'X.O...OXX'
p1697
F0.5
sS'X.XOO..OX'
p1698
F0.5
sS'XXXOXO.O.'
p1699
I1
sS'XOO.O..XX'
p1700
F0.5
sS'.XXO.....'
p1701
F0.5
sS'.OXOXO.X.'
p1702
F0.5
sS'...XX..O.'
p1703
F0.5
sS'X..OO.X..'
p1704
F0.5
sS'X.X.XO.OO'
p1705
F0.5
sS'.XO.O..XX'
p1706
F0.5
sS'.O.XX...O'
p1707
F1.0
sS'OXX..O...'
p1708
F0.5
sS'.XOXO....'
p1709
F0.5
sS'OX.X.OXXO'
p1710
F0.5
sS'OXX.XO.O.'
p1711
F0.5
sS'.OXOX...X'
p1712
F0.5
sS'XXOOXX.OO'
p1713
F0.5
sS'XXOXOO.X.'
p1714
F0.5
sS'XOOXOOXXX'
p1715
I1
sS'...OXOOXX'
p1716
F0.5
sS'.OXOX....'
p1717
F1.0
sS'...X.OXXO'
p1718
F0.5
sS'XXOOXX.O.'
p1719
F0.5
sS'XXOXOO.XO'
p1720
I0
sS'OXX.XO.OX'
p1721
F0.5
sS'.XOXO...X'
p1722
F0.5
sS'OXX..O..X'
p1723
F0.5
sS'XOOX..O.X'
p1724
F0.5
sS'X.X.XO.O.'
p1725
F0.5
sS'.O.XX....'
p1726
F0.5
sS'.XO.O..X.'
p1727
F0.5
sS'XOOXO.OXX'
p1728
I0
sS'..X.OXO..'
p1729
F0.5
sS'XO.O.OX.X'
p1730
F0.5
sS'.XO.OX.X.'
p1731
F0.5
sS'X.X..XOO.'
p1732
F0.5
sS'.XO..X..O'
p1733
F0.5
sS'X.OXX.OOX'
p1734
I1
sS'.XOOX..OX'
p1735
F0.5
sS'XOOX.X...'
p1736
F0.5
sS'XXO.OOXX.'
p1737
F0.5
sS'X.X.OXOO.'
p1738
F0.5
sS'O.X....XO'
p1739
F0.5
sS'OOX..X.X.'
p1740
F0.5
sS'XOOX.X..O'
p1741
F0.5
sS'XXO.OOXXO'
p1742
I0
sS'OXOXXOOXX'
p1743
I1
sS'O.X....X.'
p1744
F0.5
sS'OOX..X.XO'
p1745
F0.5
sS'..X..OXXO'
p1746
F0.5
sS'X.X.OXOOX'
p1747
I1
sS'..X.OXO.X'
p1748
I1
sS'XO..XXO..'
p1749
F0.5
sS'.XO.OX.XO'
p1750
F0.5
sS'XXOOO.OXX'
p1751
I0
sS'X.X..XOOO'
p1752
I0
sS'.XO..X...'
p1753
F0.5
sS'X.OX.O.OX'
p1754
F0.5
sS'XXO.OXXOO'
p1755
F0.5
sS'XX.OOOX..'
p1756
I0
sS'X...XOO..'
p1757
F0.5
sS'.OOX.X.X.'
p1758
F0.5
sS'XXOOOXX.O'
p1759
F0.5
sS'O.X..O..X'
p1760
F0.5
sS'.X.OX.XO.'
p1761
F0.5
sS'XOXX..O..'
p1762
F0.5
sS'OXXXOOXOX'
p1763
F0.5
sS'X..OOOX.X'
p1764
I0
sS'.......OX'
p1765
F0.5
sS'..OX.OXOX'
p1766
F0.5
sS'OXXXOOXO.'
p1767
F0.5
sS'XOXX.XO.O'
p1768
F0.5
sS'.X.OX.XOO'
p1769
F0.5
sS'XOXX..O.O'
p1770
F0.5
sS'XXO.OXXO.'
p1771
F0.5
sS'OXOOX...X'
p1772
F0.5
sS'X...XOO.X'
p1773
I1
sS'.X....O.X'
p1774
F0.5
sS'.OOX.X.XO'
p1775
F0.5
sS'OX.OOX.XX'
p1776
F0.5
sS'..O.XXXO.'
p1777
F0.5
sS'X.O.X..XO'
p1778
F0.5
sS'O....XOX.'
p1779
F0.5
sS'.XXX...OO'
p1780
F0.5
sS'XOX..X..O'
p1781
F0.5
sS'X.OX...O.'
p1782
F0.5
sS'XOX.X.OXO'
p1783
F0.5
sS'XX.OOXXOO'
p1784
F0.5
sS'.OXX.OOX.'
p1785
F0.5
sS'XX..X.OO.'
p1786
F0.5
sS'.OXOOXX.X'
p1787
I1
sS'XXOOXXOXO'
p1788
I1
sS'.OXX.OOXX'
p1789
F0.5
sS'.OXOOXX..'
p1790
F0.5
sS'XX.OOXXO.'
p1791
F0.5
sS'XX..X.OOO'
p1792
I0
sS'..O.XXXOO'
p1793
F0.5
sS'X.OX...OX'
p1794
F0.5
sS'X.O..XXOO'
p1795
F0.5
sS'OX.OOX.X.'
p1796
F0.5
sS'O....XOXX'
p1797
F0.5
sS'XOXO..O.X'
p1798
F0.5
sS'XXXOXOOOX'
p1799
I1
sS'.X..O.XO.'
p1800
F0.5
sS'O.OXXXO.X'
p1801
I1
sS'..XX.OOXO'
p1802
F0.5
sS'.XXOO.X.O'
p1803
F0.5
sS'..OXXXXOO'
p1804
I1
sS'.OXX..O.X'
p1805
F0.5
sS'.XXX.O.O.'
p1806
F0.5
sS'.XOOX.OXX'
p1807
I1
sS'....X.XO.'
p1808
F0.5
sS'..XOXO.XO'
p1809
F0.5
sS'O.....X.X'
p1810
F0.5
sS'..O.XOX.X'
p1811
F0.5
sS'O..X..OX.'
p1812
F0.5
sS'O.....X..'
p1813
F0.5
sS'XX.OOX.O.'
p1814
F0.5
sS'XOO.OX..X'
p1815
F0.5
sS'O..X..OXX'
p1816
F0.5
sS'....X.XOO'
p1817
F0.5
sS'..XOXO.X.'
p1818
F0.5
sS'OXO..XXXO'
p1819
F0.5
sS'..XX.OOX.'
p1820
F0.5
sS'.OXX..O..'
p1821
F0.5
sS'OOX.XOOXX'
p1822
F0.5
sS'.X..O.XOX'
p1823
F0.5
sS'O.O.XOXX.'
p1824
F0.5
sS'OX.O.XOX.'
p1825
I0
sS'.XXX.O.OO'
p1826
F0.5
sS'XOX..O.XO'
p1827
F0.5
sS'OX...O.XX'
p1828
F0.5
sS'...XOO..X'
p1829
F0.5
sS'OXOX..X..'
p1830
F0.5
sS'OXXOO..X.'
p1831
F0.5
sS'X..XOO.OX'
p1832
F0.5
sS'OXOXXOX..'
p1833
F0.5
sS'.OX.X..OX'
p1834
F0.5
sS'O.XO..XX.'
p1835
F0.5
sS'XXOO.X..O'
p1836
F0.5
sS'X...O.X.O'
p1837
F0.5
sS'X..O.O.XX'
p1838
F0.5
sS'OXOX.XX.O'
p1839
F0.5
sS'.OX.X..O.'
p1840
F1.0
sS'.OXO.XXXO'
p1841
F0.5
sS'O.XO..XXO'
p1842
F0.5
sS'XXOO.X...'
p1843
F0.5
sS'X...O.X..'
p1844
F0.5
sS'XOX..O.X.'
p1845
F0.5
sS'OXOX..X.O'
p1846
F0.5
sS'OXOXXOX.O'
p1847
I0
sS'OXXOO..XX'
p1848
F0.5
sS'.XO..XX.O'
p1849
F0.5
sS'.O.OXO.XX'
p1850
F0.5
sS'..XO..XXO'
p1851
F0.5
sS'.OX.OX.XO'
p1852
F0.5
sS'XXO..X..O'
p1853
F0.5
sS'.XX.OXXOO'
p1854
F0.5
sS'..OOOX.XX'
p1855
F0.6
sS'XO..OXX.O'
p1856
F0.5
sS'..OX.OOXX'
p1857
F0.5
sS'O..X.XOX.'
p1858
F0.5
sS'X.XOOXO.X'
p1859
I1
sS'..OXXOOX.'
p1860
F0.5
sS'..OXO..X.'
p1861
F0.5
sS'X.XOX...O'
p1862
F0.5
sS'XOOOXXXO.'
p1863
F1.0
sS'X.X.OOO.X'
p1864
F0.5
sS'XOOOXXXOX'
p1865
I1
sS'XO.O..OXX'
p1866
F0.5
sS'..OXXOOXX'
p1867
F0.5
sS'..OXO..XX'
p1868
F0.5
sS'X.XOOXO..'
p1869
F0.5
sS'XO..OXX..'
p1870
F0.5
sS'O..X.XOXO'
p1871
F0.5
sS'X.O.O.XX.'
p1872
F0.5
sS'OO.OXXX.X'
p1873
F0.07999999999999996
sS'X.OXXOOXO'
p1874
I0
sS'XOOX.XOOX'
p1875
F0.5
sS'.XXXXOO.O'
p1876
F0.5
sS'XOX.XX.OO'
p1877
F0.5
sS'..X....O.'
p1878
F0.5
sS'..X.O..XO'
p1879
F0.5
sS'X..X...OO'
p1880
F0.5
sS'X.X.X.O.O'
p1881
F0.5
sS'OX.XXOXO.'
p1882
F0.5
sS'XOXXXOOO.'
p1883
F0.5
sS'...OXOXOX'
p1884
F0.5
sS'OXX.O.OX.'
p1885
F0.5
sS'XX..O....'
p1886
F0.5
sS'.OXOXXXO.'
p1887
I1
sS'OOX..XXOX'
p1888
I1
sS'OXOXOOX.X'
p1889
F0.5
sS'XX..O...O'
p1890
F0.5
sS'OOX..XXO.'
p1891
F0.5
sS'XOXXOX.OO'
p1892
I0
sS'OXX.O.OXX'
p1893
F0.5
sS'.XOO.OXX.'
p1894
F0.5
sS'XOXXXOOOX'
p1895
I1
sS'X.O.O.XXO'
p1896
F0.5
sS'X.OXXOOX.'
p1897
F0.5
sS'..XXOX..O'
p1898
F0.5
sS'OO.OXXX..'
p1899
F0.5
sS'..X.O..X.'
p1900
F0.5
sS'X..X...O.'
p1901
F0.5
sS'OX.XXOXOO'
p1902
F0.5
sS'XX.O.O.XO'
p1903
F0.5
sS'XX.XXOOOO'
p1904
I0
sS'O..OOX.XX'
p1905
F0.5
sS'..OXOXOX.'
p1906
I0
sS'XXO.OX...'
p1907
F0.5
sS'X..OOXOX.'
p1908
F0.5
sS'X..O.X.OX'
p1909
F0.5
sS'XO..XOXXO'
p1910
F0.5
sS'X..O.X.O.'
p1911
F0.5
sS'.XOO.O.XX'
p1912
F0.5
sS'XXO.OX..O'
p1913
F0.5
sS'OXXX.OOOX'
p1914
F0.5
sS'X..OOXOXX'
p1915
F0.5
sS'O.XOXX.XO'
p1916
F0.5
sS'XX.O.O.X.'
p1917
F0.5
sS'OX.XXOO..'
p1918
F0.5
sS'XX.XXOOO.'
p1919
F0.5
sS'XO.XO.O.X'
p1920
F0.5
sS'.OX..XOX.'
p1921
F0.5
sS'X.....OXO'
p1922
F0.5
sS'OX.X.O.XO'
p1923
F0.5
sS'.XOXXO.O.'
p1924
F0.5
sS'X.XXOO.XO'
p1925
F0.5
sS'X.OX..X.O'
p1926
I1
sS'.XXOXO.XO'
p1927
I1
sS'OX...XXO.'
p1928
F0.5
sS'XXOOX.O.X'
p1929
I1
sS'OX...XXOO'
p1930
F0.5
sS'XO.X.OXXO'
p1931
I1
sS'XOX....XO'
p1932
F0.5
sS'OX.O.OX.X'
p1933
F0.5
sS'XXOOX.O..'
p1934
F0.5
sS'OXXO..X..'
p1935
F0.5
sS'.XOXXO.OX'
p1936
F0.5
sS'.OOXOXX.X'
p1937
F0.5
sS'OX.X.O.X.'
p1938
F0.5
sS'OXXOXO.OX'
p1939
F0.5
sS'OXX...OOX'
p1940
F0.5
sS'.X..X..OO'
p1941
F0.5
sS'.XOXOO..X'
p1942
F0.5
sS'..XOOXOXX'
p1943
I1
sS'.XOOXXO.X'
p1944
F0.5
sS'OO.XXO.XX'
p1945
F0.5
sS'X.XX.OOOX'
p1946
F0.5
sS'....XOXXO'
p1947
F0.5
sS'..OX.XXO.'
p1948
F0.5
sS'XOOXX.O.X'
p1949
I1
sS'.O.XX.OX.'
p1950
F0.5
sS'XOXXOXOO.'
p1951
I0
sS'XOOXX.O..'
p1952
F0.5
sS'X.X.OOXXO'
p1953
F0.5
sS'.XOOXXO..'
p1954
F0.5
sS'..OX.XXOO'
p1955
F0.5
sS'X.XX.OOO.'
p1956
F0.5
sS'XO..OOXX.'
p1957
F0.5
sS'OO.XXO.X.'
p1958
F0.5
sS'.O.XX.OXO'
p1959
F0.5
sS'.X.OX.O.X'
p1960
F0.5
sS'OX.X.OO.X'
p1961
F0.5
sS'.OX.O.XX.'
p1962
F0.5
sS'OO..X.X..'
p1963
F0.5
sS'O.O.X.XX.'
p1964
F0.5
sS'XOOX...OX'
p1965
F0.5
sS'.XXO...OX'
p1966
F0.5
sS'XOO..OX.X'
p1967
F0.5
sS'.XOX..O.X'
p1968
F0.5
sS'.O...XXXO'
p1969
F0.5
sS'.XOX..O..'
p1970
F0.5
sS'.XXO...O.'
p1971
F0.5
sS'OO..X.X.X'
p1972
F0.07999999999999996
sS'.OX.O.XXO'
p1973
F0.5
sS'O.O.X.XXO'
p1974
F0.5
sS'XX..XOO..'
p1975
F0.5
sS'.OXXXO.OX'
p1976
F0.5
sS'OXX.OXXOO'
p1977
I0
sS'O.XOXOOXX'
p1978
I0
sS'X.OXO..X.'
p1979
F0.5
sS'XXX..OOOX'
p1980
I1
sS'.XX.O....'
p1981
F0.5
sS'O..X.X.OX'
p1982
F0.5
sS'OOXX.OOXX'
p1983
F0.5
sS'X.OXO..XO'
p1984
F0.5
sS'OXOXOXX..'
p1985
F0.5
sS'.XX.O...O'
p1986
F0.5
sS'.OO.OXX.X'
p1987
F0.5
sS'..X.X...O'
p1988
F0.5
sS'.OXXXO.O.'
p1989
F0.5
sS'XO..OOXXX'
p1990
I1
sS'OX.O....X'
p1991
F0.5
sS'XX..XOO.O'
p1992
F0.5
sS'OXX.OXXO.'
p1993
F0.5
sS'O.XO.XXXO'
p1994
F0.5
sS'..XO.OOXX'
p1995
F0.5
sS'O.XX.OOXX'
p1996
F0.5
sS'..X..O.XO'
p1997
F0.5
sS'.XO..X.OX'
p1998
F0.5
sS'.OXX.OX..'
p1999
F0.5
sS'XX..OOOX.'
p2000
F0.5
sS'XXOOX.XOO'
p2001
F0.5
sS'.OOOX.X.X'
p2002
F0.5
sS'XX..OOOXX'
p2003
F0.5
sS'.OXX.OX.O'
p2004
F0.5
sS'.XO..X.O.'
p2005
F0.5
sS'XXXO.OX.O'
p2006
I1
sS'..X.X.XOO'
p2007
I1
sS'O.XX.OOX.'
p2008
F0.5
sS'XX.XO..O.'
p2009
F0.5
sS'..X..O.X.'
p2010
F0.5
sS'XO.OOXX.X'
p2011
F0.5
sS'XX.OOOXOX'
p2012
I0
sS'OXX.XOO.X'
p2013
F0.5
sS'OXXO..X.O'
p2014
F0.5
sS'OOXOXOXXX'
p2015
I1
sS'XXO.OXX.O'
p2016
F0.5
sS'OOX.XXOXO'
p2017
F0.5
sS'OO.XXOXOX'
p2018
F0.5
sS'..XO.O..X'
p2019
F0.5
sS'OOX.XXOX.'
p2020
F0.5
sS'X.OXX.O.O'
p2021
F0.5
sS'.XOXO.X..'
p2022
F0.5
sS'O.OXXX.XO'
p2023
I1
sS'OXX.XOO..'
p2024
F0.5
sS'OO..XXXXO'
p2025
F0.5
sS'XOOOOXX.X'
p2026
F0.5
sS'OX.X.X..O'
p2027
F0.5
sS'XO.OOXX..'
p2028
F0.5
sS'XX....OXO'
p2029
F0.5
sS'OXXX.O.XO'
p2030
F0.5
sS'...OXXXO.'
p2031
F0.5
sS'XOO..OXX.'
p2032
F0.5
sS'X.OO.XX..'
p2033
F0.5
sS'X.X.O.OOX'
p2034
F0.5
sS'X.O.X.X.O'
p2035
F0.5
sS'X..OOX.OX'
p2036
F0.5
sS'XOX.XO.OX'
p2037
I1
sS'..O.X..OX'
p2038
F0.5
sS'XOO..OXXX'
p2039
I1
sS'XXO...X.O'
p2040
F0.5
sS'...OXXXOO'
p2041
F0.5
sS'X.OO.XX.O'
p2042
F0.5
sS'OX..X...O'
p2043
F1.0
sS'O..XX.XO.'
p2044
F0.5
sS'X.OOOXX.X'
p2045
F0.5
sS'.O..X.OX.'
p2046
F0.5
sS'.O..XXO..'
p2047
F0.5
sS'OXX.O...X'
p2048
F0.5
sS'.X.OOX..X'
p2049
F0.5
sS'O..X.OOXX'
p2050
F0.5
sS'XO..X.OX.'
p2051
F0.5
sS'.XOXOXOOX'
p2052
I0
sS'.OXXXOOOX'
p2053
F1.0
sS'XO..X.OXO'
p2054
F0.5
sS'O.OX.X.OX'
p2055
F0.5
sS'.X.OOX...'
p2056
F0.5
sS'X..XOOXOX'
p2057
I1
sS'O..XX.XOO'
p2058
F0.5
sS'....OO.XX'
p2059
F0.5
sS'OX.O.XO.X'
p2060
I0
sS'XXXX.OO.O'
p2061
I1
sS'OXOX.OOXX'
p2062
F0.5
sS'XOXOO.XX.'
p2063
F0.5
sS'.O..XXO.X'
p2064
F0.5
sS'X.OOOXX..'
p2065
F0.5
sS'.O..X.OXX'
p2066
F0.5
sS'XOXO.XX.O'
p2067
F0.5
sS'...XOXOX.'
p2068
F0.5
sS'..OOX.XX.'
p2069
F0.5
sS'.OX.XOOX.'
p2070
F0.5
sS'XXOOO...X'
p2071
F0.5
sS'.XO.OXXO.'
p2072
F0.5
sS'XXOOOOX.X'
p2073
I0
sS'.O.O.X..X'
p2074
F0.5
sS'O.XX.OO.X'
p2075
F0.5
sS'X...X.OO.'
p2076
F0.5
sS'..X.XO.XO'
p2077
F0.5
sS'.OX.XOOXX'
p2078
F0.5
sS'...XOXOXO'
p2079
F0.5
sS'..OOX.XXO'
p2080
F0.5
sS'.XO.OXXOX'
p2081
F0.5
sS'XX.OOO..X'
p2082
I0
sS'OXX.OX...'
p2083
F0.5
sS'O.X..X...'
p2084
F0.5
sS'.X.X.O.O.'
p2085
F0.5
sS'OX.OOXXX.'
p2086
F0.5
sS'O.O..XOXX'
p2087
F0.5
sS'X..O...X.'
p2088
F0.5
sS'....XO.X.'
p2089
F0.5
sS'X..O...XO'
p2090
F0.5
sS'....XO.XO'
p2091
F0.5
sS'OXX.OX..O'
p2092
I0
sS'.X.X.O.OX'
p2093
F0.5
sS'O.X..X..O'
p2094
F0.5
sS'XX.XOXO.O'
p2095
F0.5
sS'OX.OOXXXO'
p2096
I0
sS'OX.X..OOX'
p2097
F0.5
sS'X.OOOXOXX'
p2098
I0
sS'O....X..X'
p2099
F0.5
sS'X.XOO...X'
p2100
F0.5
sS'.OXXOXO..'
p2101
F0.5
sS'OO.OXXXOX'
p2102
F0.5
sS'.XX.OXOXO'
p2103
F0.5
sS'X.O.O..X.'
p2104
F0.5
sS'.X.XOXOXO'
p2105
F0.5
sS'.XX..OXO.'
p2106
F0.5
sS'OX.OXXX.O'
p2107
F0.5
sS'X..X....O'
p2108
F0.5
sS'OX.OXOX.X'
p2109
F0.5
sS'O.X.X..XO'
p2110
F0.5
sS'OX.OXOX..'
p2111
F0.5
sS'X.O.O..XX'
p2112
F0.5
sS'.XX..OXOO'
p2113
F0.5
sS'O....X...'
p2114
F0.5
sS'.OXXOXO.X'
p2115
I1
sS'X.XOO....'
p2116
F0.5
sS'.X.XXOOOX'
p2117
F0.5
sS'XXOO.XXOO'
p2118
F0.5
sS'....OOXXX'
p2119
I1
sS'OX.XXO.XO'
p2120
I1
sS'OOX..XX..'
p2121
F0.5
sS'X.OXOXOXO'
p2122
I0
sS'..OX..O.X'
p2123
F0.5
sS'.O...X.OX'
p2124
F0.5
sS'OOX..XX.O'
p2125
F0.5
sS'XXOO.XXO.'
p2126
F0.5
sS'..XXOO.X.'
p2127
F0.5
sS'X.OOOX..X'
p2128
F0.5
sS'.X.XXOOO.'
p2129
F0.5
sS'X.....O..'
p2130
F0.5
sS'O.XO.OX.X'
p2131
F0.5
sS'XOXO.X...'
p2132
F0.5
sS'X.XOXO.O.'
p2133
F0.5
sS'OX.XOO.X.'
p2134
F0.5
sS'..OX...XO'
p2135
F0.5
sS'.X.O.OXOX'
p2136
F0.5
sS'.....O.X.'
p2137
F0.5
sS'OOXXXOXOX'
p2138
I1
sS'..OX...X.'
p2139
F0.5
sS'OXO.XXO.X'
p2140
F0.5
sS'.O.XOX.OX'
p2141
I0
sS'.....O.XX'
p2142
F0.5
sS'OX.XOO.XX'
p2143
F0.5
sS'XOXO.X..O'
p2144
F0.5
sS'X.....O.X'
p2145
F0.5
sS'X.XOXO.OX'
p2146
I1
sS'X...OOOXX'
p2147
F0.5
sS'O.XXOO.XX'
p2148
F0.5
sS'.....XXO.'
p2149
F0.5
sS'.O.X..XO.'
p2150
F0.5
sS'O.OXX....'
p2151
F0.5
sS'XOOXX..O.'
p2152
F0.5
sS'...XO.X.O'
p2153
F0.5
sS'OOXO.X.XX'
p2154
I1
sS'XOOX.X.XO'
p2155
F0.5
sS'.....OXOX'
p2156
F0.5
sS'XO.XXX.OO'
p2157
I1
sS'.O.XXOOXX'
p2158
F0.5
sS'XXO.O..X.'
p2159
F0.5
sS'..XOXXOO.'
p2160
F0.5
sS'XX.O.XOOX'
p2161
F0.5
sS'XO...X.O.'
p2162
F0.5
sS'OX.XXXOO.'
p2163
I1
sS'.OXO..OXX'
p2164
F0.5
sS'.OXOXOOXX'
p2165
F0.5
sS'.X.OX.OOX'
p2166
F0.5
sS'XO...X.OX'
p2167
F0.5
sS'XX.O.OO.X'
p2168
F0.5
sS'..XOXXOOX'
p2169
I1
sS'.OXOX..OX'
p2170
F0.5
sS'XXO.O..XO'
p2171
F0.5
sS'..OXOOX.X'
p2172
F0.5
sS'OX..XOX..'
p2173
F0.5
sS'...XO.X..'
p2174
F0.5
sS'O.OXX...X'
p2175
F0.5
sS'.O.X..XOX'
p2176
F0.5
sS'O.XXOO.X.'
p2177
F0.5
sS'OOXO.X.X.'
p2178
F0.5
sS'XOOXX..OX'
p2179
I1
sS'OX..OX.X.'
p2180
F0.5
sS'OX.X...O.'
p2181
F0.5
sS'..XXOO.XO'
p2182
F0.5
sS'XOXX..OO.'
p2183
F0.5
sS'.XXXO...O'
p2184
F0.5
sS'..OO.XXX.'
p2185
F0.5
sS'.OXO.OX.X'
p2186
F0.5
sS'.X.O....X'
p2187
F0.5
sS'X..O.OXOX'
p2188
F0.5
sS'..OO.XXXO'
p2189
F0.5
sS'X....O.OX'
p2190
F0.5
sS'XOOXXXXOO'
p2191
I1
sS'X.O.OOX.X'
p2192
F0.5
sS'...X.O.OX'
p2193
F0.5
sS'XXOX.XO.O'
p2194
F0.5
sS'O.XOXXOXO'
p2195
I0
sS'.XXOOX.O.'
p2196
F0.5
sS'XOXX..OOX'
p2197
F0.5
sS'OO.XOXOXX'
p2198
F0.5
sS'OXXO.XO..'
p2199
I0
sS'OX.X...OX'
p2200
F0.5
sS'.OX.XXXOO'
p2201
I1
sS'X.OXOO.XX'
p2202
F0.5
sS'O..X...XO'
p2203
F0.5
sS'XO....X..'
p2204
F0.5
sS'X.O..XX.O'
p2205
F0.5
sS'X.OX....O'
p2206
F0.5
sS'..XXXO.OO'
p2207
F0.5
sS'X.XXO.OXO'
p2208
F0.5
sS'XOOX.....'
p2209
F0.5
sS'XXXOO.XO.'
p2210
I1
sS'XOOX....X'
p2211
F0.5
sS'OXXXX..OO'
p2212
F0.5
sS'..XXXO.O.'
p2213
F0.5
sS'O..X...X.'
p2214
F0.5
sS'X.OXOO.X.'
p2215
F0.5
sS'...XXOX.O'
p2216
F0.5
sS'XXXOXOO..'
p2217
I1
sS'XX..X.O.O'
p2218
F0.5
sS'X.OX.....'
p2219
F0.5
sS'.X..O.X.O'
p2220
F0.5
sS'O.O..XX..'
p2221
F0.5
sS'OOOXXOXX.'
p2222
I0
sS'.O...OX.X'
p2223
F0.5
sS'.XXX.O..O'
p2224
F0.5
sS'XO.XOX.O.'
p2225
I0
sS'..XOO.X.X'
p2226
F0.5
sS'X...OO..X'
p2227
F0.5
sS'..XOXOXXO'
p2228
I1
sS'X.XXXOO.O'
p2229
F0.5
sS'.X...XO..'
p2230
F0.5
sS'O..X..O.X'
p2231
F0.5
sS'OX.X.XOOX'
p2232
F0.5
sS'O.X.XOO.X'
p2233
F0.5
sS'XO.OX.OX.'
p2234
F0.5
sS'XXOOXOOXX'
p2235
I1
sS'..X..OXO.'
p2236
F0.5
sS'XO.OX.OXX'
p2237
I1
sS'..X..OXOX'
p2238
F0.5
sS'.X...XO.O'
p2239
F0.5
sS'.X.X.OOOX'
p2240
F0.5
sS'XXOXOXO.O'
p2241
I0
sS'X.OXOOX.X'
p2242
I1
sS'OX.X.XOO.'
p2243
F0.5
sS'X.XOX.OO.'
p2244
F0.5
sS'XOOXXOOXX'
p2245
I1
sS'.X..O.X..'
p2246
F0.5
sS'..XOO.X..'
p2247
F0.5
sS'O.XOO..XX'
p2248
F0.5
sS'OOX.XXXO.'
p2249
I1
sS'OO.X.XXXO'
p2250
F0.5
sS'O.O..XX.X'
p2251
F0.5
sS'.OXXX.O.O'
p2252
F0.5
sS'OXOX.XXO.'
p2253
F0.5
sS'OO.X..OXX'
p2254
F0.5
sS'XO.OXOX.X'
p2255
I1
sS'OX...X..O'
p2256
F0.5
sS'.OOXXX.XO'
p2257
I1
sS'OX.XX.O..'
p2258
F0.5
sS'.O.O.XXX.'
p2259
F0.5
sS'XOOOX.XXO'
p2260
F0.5
sS'X.OOX...X'
p2261
I1
sS'OOXXX.O.X'
p2262
F0.5
sS'......XO.'
p2263
F0.5
sS'.OO..XX.X'
p2264
F0.5
sS'..OX.OXX.'
p2265
F0.5
sS'......XOX'
p2266
F0.5
sS'.OO..XX..'
p2267
F0.5
sS'XOOOX.XX.'
p2268
F0.5
sS'X.OOX....'
p2269
F0.5
sS'..OX.X.OX'
p2270
F0.5
sS'..OX.OXXO'
p2271
I0
sS'OXOX.XXOO'
p2272
F0.5
sS'.XX..O.OX'
p2273
F0.5
sS'OX...X...'
p2274
F0.5
sS'O.X..OX..'
p2275
F0.5
sS'XO.OXOX..'
p2276
F0.5
sS'.O.O.XXXO'
p2277
F0.5
sS'OXOX..XO.'
p2278
F0.5
sS'OXOOOXX.X'
p2279
F0.5
sS'..XOO...X'
p2280
F0.5
sS'XXO...XOO'
p2281
F0.5
sS'.OO.XXXXO'
p2282
F0.5
sS'OX...OX..'
p2283
F0.5
sS'.O.OOX.XX'
p2284
F0.5
sS'X.O..OOXX'
p2285
F0.5
sS'.X..XX.OO'
p2286
F0.5
sS'O..X.OXOX'
p2287
F0.5
sS'.O..O.XX.'
p2288
F0.5
sS'O..O.X.XX'
p2289
F0.5
sS'X.X.O.O.X'
p2290
F0.5
sS'X...XO.O.'
p2291
F0.5
sS'.XOOOXX.X'
p2292
F0.5
sS'..OX.XOX.'
p2293
F0.5
sS'X.X.O.O..'
p2294
F0.5
sS'.XOOOXX..'
p2295
F0.5
sS'X...XO.OX'
p2296
I1
sS'.O..O.XXX'
p2297
I1
sS'O..O.X.X.'
p2298
F0.5
sS'..OX.XOXO'
p2299
F0.5
sS'X..O..XO.'
p2300
F0.5
sS'OX...OX.X'
p2301
F0.5
sS'XXO...XO.'
p2302
F0.5
sS'X.X.....O'
p2303
F0.5
sS'.X.O.O.X.'
p2304
F0.5
sS'OXXOXOO.X'
p2305
I0
sS'X..OOX...'
p2306
F0.5
sS'X.OOOXXOX'
p2307
F0.5
sS'XXOOX..OX'
p2308
I1
sS'OOOX.X.X.'
p2309
I0
sS'X.O.X.XO.'
p2310
F0.5
sS'.X.X..OOX'
p2311
F0.5
sS'..XX.O..O'
p2312
F0.5
sS'OO....XX.'
p2313
F0.5
sS'O....O.XX'
p2314
F0.5
sS'.X.X..OO.'
p2315
F0.5
sS'OX.X.XXOO'
p2316
F0.5
sS'X.O.X.XOO'
p2317
F0.5
sS'OO....XXX'
p2318
I1
sS'X..OOX..X'
p2319
F0.5
sS'..XX.O...'
p2320
F0.5
sS'..X.XOOX.'
p2321
F0.5
sS'XXOOX..O.'
p2322
F0.5
sS'.XXOOOXOX'
p2323
I0
sS'OXOX.X.XO'
p2324
F0.5
sS'OXOXX..XO'
p2325
I1
sS'.X.O.O.XX'
p2326
F0.2048
sS'XXOO...XO'
p2327
F0.5
sS'XXO.OX.O.'
p2328
F0.5
sS'XO.OOX..X'
p2329
F0.5
sS'OX..X..XO'
p2330
I1
sS'...O.XOX.'
p2331
F0.5
sS'.XOOXX.OX'
p2332
F0.5
sS'OOX.X.XOX'
p2333
I1
sS'XX.X.OOO.'
p2334
F0.5
sS'XX...OO.X'
p2335
F0.5
sS'XOO..XO.X'
p2336
F0.5
sS'XX...OO..'
p2337
F0.5
sS'XX.X.OOOX'
p2338
F0.5
sS'...O.XOXX'
p2339
F0.5
sS'.XOOXX.O.'
p2340
F0.5
sS'XXOO...X.'
p2341
F0.5
sS'.X.XX..OO'
p2342
F0.5
sS'XXO.OX.OX'
p2343
F0.5
sS'.O.XX..XO'
p2344
F0.5
sS'.OO...XXX'
p2345
I1
sS'X..X.O...'
p2346
F0.5
sS'X..OO..X.'
p2347
F0.5
sS'XX.OO.XO.'
p2348
F0.5
sS'OXX.O.X..'
p2349
F0.5
sS'XX...O.XO'
p2350
F0.5
sS'XXX.OO.OX'
p2351
I1
sS'XOO.X.OXX'
p2352
I1
sS'OXX.O.X.O'
p2353
I0
sS'XO.X.OX..'
p2354
I1
sS'XOO.X.OX.'
p2355
F0.5
sS'X..XO..XO'
p2356
F0.5
sS'..XO.X.XO'
p2357
F0.5
sS'OX...XX.O'
p2358
F0.5
sS'XOOX.OOXX'
p2359
F0.5
sS'XX.OO.XOX'
p2360
F0.5
sS'X..X.O..O'
p2361
F0.5
sS'O..XO.XOX'
p2362
F0.5
sS'.XXOXXOOO'
p2363
I0
sS'X..OO..XX'
p2364
F0.5
sS'X...OOX..'
p2365
F0.5
sS'.XX.O.OOX'
p2366
F0.5
sS'O..XX.O.X'
p2367
F0.5
sS'..X..X.OO'
p2368
F0.5
sS'.XO.XO...'
p2369
F0.5
sS'OO....X.X'
p2370
F0.5
sS'OO.XX.OX.'
p2371
F0.5
sS'.O.XX.O.X'
p2372
F0.5
sS'XXOXO.X.O'
p2373
I1
sS'O....X.OX'
p2374
F0.5
sS'O.XXX...O'
p2375
F0.5
sS'XXX..OO..'
p2376
I1
sS'OO.XXXOX.'
p2377
I1
sS'O...OXOXX'
p2378
F0.5
sS'OO.XX.OXX'
p2379
F0.5
sS'.O.XX.O..'
p2380
F0.5
sS'O..XX.O..'
p2381
F0.5
sS'.XO.XO..X'
p2382
F0.5
sS'XOX.O.XXO'
p2383
F0.5
sS'.OX...O.X'
p2384
F0.5
sS'..OX.XX.O'
p2385
F0.5
sS'..X..X.O.'
p2386
F0.5
sS'X...OOX.X'
p2387
F0.5
sS'.XXOOOOXX'
p2388
I0
sS'XXOXOO..X'
p2389
F0.5
sS'....O...X'
p2390
F0.5
sS'.O.OOXXXX'
p2391
I1
sS'O.OX.OXXX'
p2392
I1
sS'XOX.OXOXO'
p2393
F0.5
sS'XOXXOXO..'
p2394
F0.5
sS'XXXOXO..O'
p2395
I1
sS'XXOXXOO.O'
p2396
I0
sS'.XO.XOX.O'
p2397
I0
sS'.X.XXOO.O'
p2398
F0.5
sS'XOXOX..XO'
p2399
F0.5
sS'..XXO.X.O'
p2400
F0.5
sS'OXX..OOX.'
p2401
F0.5
sS'XOXXOXO.O'
p2402
F0.5
sS'O.OOX.X.X'
p2403
F0.9
sS'OXX..OOXX'
p2404
F0.5
sS'XXOXXOO..'
p2405
F0.5
sS'.XO.XOX..'
p2406
F0.5
sS'.X.XXOO..'
p2407
F0.5
sS'...XOX.XO'
p2408
F0.5
sS'O.OX.OXX.'
p2409
F0.5
sS'.O.OOXXX.'
p2410
F0.5
sS'XXOXOO...'
p2411
F0.5
sS'XOX.OXOX.'
p2412
F0.5
sS'.O.O.X.XX'
p2413
F0.5
sS'XO...XX.O'
p2414
F0.5
sS'X.XOXO..O'
p2415
F0.5
sS'.X.XOX.O.'
p2416
F0.5
sS'XX..XOOOX'
p2417
I1
sS'X.X.O..XO'
p2418
F0.5
sS'.O.XXOXOX'
p2419
F0.5
sS'.OO.XXOX.'
p2420
F0.5
sS'..O..X.XO'
p2421
F0.5
sS'.OO.X.OXX'
p2422
F1.0
sS'.OX..OX..'
p2423
F0.5
sS'XO.OX.XOX'
p2424
I1
sS'.OO...XX.'
p2425
F0.5
sS'XO.OX.XO.'
p2426
F0.5
sS'X.OXOX..O'
p2427
F0.5
sS'.OX..OX.X'
p2428
F0.5
sS'XOO..XXXO'
p2429
F0.5
sS'..O..X.X.'
p2430
F0.5
sS'.OO.XXOXX'
p2431
F0.5
sS'XXO.OXOOX'
p2432
I0
sS'.....XOXO'
p2433
F0.5
sS'XOX.X.XOO'
p2434
I1
sS'.O.XOXXXO'
p2435
F0.5
sS'X.XOXO...'
p2436
F0.5
sS'.X.XOX.OO'
p2437
F0.5
sS'XX.XO..OO'
p2438
F0.5
sS'.O.XXOXO.'
p2439
F0.5
sS'XX..XOOO.'
p2440
F0.5
sS'O.OO.XXX.'
p2441
F0.5
sS'X..X..XOO'
p2442
I1
sS'....OX...'
p2443
F0.5
sS'XOOXX...O'
p2444
F0.5
sS'XO..XX.O.'
p2445
F0.5
sS'OXOXX.O.X'
p2446
F0.5
sS'.OXX.OXO.'
p2447
F0.5
sS'O.O.XXXO.'
p2448
F0.5
sS'.O.OX.XXO'
p2449
F0.5
sS'OXXXOX.OO'
p2450
I0
sS'OXX.X..OO'
p2451
F0.5
sS'XO.OO.XXX'
p2452
I1
sS'...XO.XOX'
p2453
F0.5
sS'OXXXOX.O.'
p2454
F0.5
sS'XOO.XXOXO'
p2455
F0.5
sS'XO.OO.XX.'
p2456
F0.5
sS'...XO.XO.'
p2457
F0.5
sS'O.O.XXXOX'
p2458
F0.5
sS'OXX.X..O.'
p2459
F0.5
sS'XO..XXOXO'
p2460
F0.5
sS'OXOXX.O..'
p2461
F0.5
sS'OX..X.OOX'
p2462
F0.5
sS'.OXX.OXOX'
p2463
F0.5
sS'XOOXX....'
p2464
F0.5
sS'XO..XX.OO'
p2465
F0.5
sS'XX.XO...O'
p2466
F0.5
sS'X.X.OXXOO'
p2467
F0.5
sS'....OX..X'
p2468
F0.5
sS'X.OOX.OXX'
p2469
I1
sS'XX..O.XOO'
p2470
F0.5
sS'..X..O...'
p2471
F0.5
sS'XXOO.X.XO'
p2472
F0.5
sS'O.OXX.OXX'
p2473
F0.5
sS'.X.OO..X.'
p2474
F0.5
sS'OX.XOO..X'
p2475
F0.5
sS'XOOX...XO'
p2476
F0.5
sS'O.XXXXOO.'
p2477
I1
sS'.OX....XO'
p2478
F0.5
sS'O..XO...X'
p2479
F0.5
sS'XXXXO.OO.'
p2480
I1
sS'O.OXX.OX.'
p2481
F0.5
sS'O.OXXX...'
p2482
I1
sS'XOOX...X.'
p2483
F0.5
sS'...OXXOOX'
p2484
F0.5
sS'..X..O..X'
p2485
F0.5
sS'XX..O.XO.'
p2486
F0.5
sS'X.OOX.OX.'
p2487
F0.5
sS'O..OXXXOX'
p2488
F0.5
sS'.OXXXO.XO'
p2489
F0.5
sS'XO.XXOOXO'
p2490
F0.5
sS'...XXOXOO'
p2491
F0.5
sS'XO.OOXXX.'
p2492
F0.5
sS'..OXO.OXX'
p2493
I0
sS'.OOX.XO.X'
p2494
F0.5
sS'O.XXO.X.O'
p2495
I0
sS'OXOXOOXXX'
p2496
I1
sS'XOX.X.OOX'
p2497
I1
sS'.XXO.OOXX'
p2498
F0.5
sS'OO.XXOX..'
p2499
F0.5
sS'XOX.X.OO.'
p2500
F0.5
sS'OO.XXOX.X'
p2501
F0.09999999999999998
sS'.XXO.OOX.'
p2502
F0.5
sS'.X.O...OX'
p2503
F0.5
sS'OXOXO...X'
p2504
F0.5
sS'OXOXOOXX.'
p2505
F0.5
sS'O.XOX.XOX'
p2506
I1
sS'XO.XXOOX.'
p2507
F0.5
sS'X.OO.XXO.'
p2508
F0.5
sS'O.XX.O.OX'
p2509
F0.5
sS'...XXOXO.'
p2510
F0.5
sS'XXXXOOXOO'
p2511
I1
sS'XO.OOXXXO'
p2512
F0.5
sS'X.OX...XO'
p2513
F0.5
sS'O.O...X.X'
p2514
F0.5
sS'XX..XO.O.'
p2515
F0.5
sS'O.OX.O.XX'
p2516
F0.5
sS'XO...XOX.'
p2517
F0.5
sS'.O.X..O.X'
p2518
F0.5
sS'.O..OXXXO'
p2519
F0.5
sS'.OXXXOO..'
p2520
F0.5
sS'.OXXO.O.X'
p2521
F0.5
sS'XO.XOX..O'
p2522
F0.5
sS'XOO.X.XOX'
p2523
I1
sS'OXOXXO.OX'
p2524
F0.5
sS'XOX.OO.XX'
p2525
F0.5
sS'O.OX.XOX.'
p2526
F0.5
sS'OXOX.OX..'
p2527
F0.5
sS'XXXOO.X.O'
p2528
I1
sS'O.OX.XOXX'
p2529
F0.5
sS'XX.OOXOOX'
p2530
F0.5
sS'XOX.OO.X.'
p2531
F0.5
sS'XOO.X.XO.'
p2532
F0.5
sS'O.OXO.X.X'
p2533
F0.5
sS'O.X...O.X'
p2534
F0.5
sS'.X..O.XXO'
p2535
F0.5
sS'XX..XO.OO'
p2536
F0.5
sS'.OXXXOO.X'
p2537
F0.5
sS'XO...XOXO'
p2538
F0.5
sS'.O..OXXX.'
p2539
F0.5
sS'XO.XOX...'
p2540
F0.5
sS'O.X.OXXO.'
p2541
F0.5
sS'XX.O..OOX'
p2542
F0.5
sS'OX...X.OX'
p2543
F0.5
sS'.O.XXOOX.'
p2544
F0.5
sS'O.OXXOX..'
p2545
F0.5
sS'O..XO..XX'
p2546
F0.5
sS'..OX.XO.X'
p2547
F0.5
sS'X.O.....X'
p2548
F0.5
sS'.O..O.X.X'
p2549
F0.5
sS'..X.XX.OO'
p2550
F0.5
sS'OO.XX.XO.'
p2551
F0.5
sS'X.XOOX...'
p2552
F0.5
sS'OX.X.XO..'
p2553
F0.5
sS'OO.XX.XOX'
p2554
F0.5
sS'X..OOO.XX'
p2555
I0
sS'O..XO..X.'
p2556
F0.5
sS'X.XOOX..O'
p2557
F0.5
sS'OX.X.XO.O'
p2558
F0.5
sS'..OX.XO..'
p2559
F0.5
sS'O.X.OX...'
p2560
F0.5
sS'.X.OOX.OX'
p2561
F0.5
sS'O.X.OXXOX'
p2562
I1
sS'OX...X.O.'
p2563
F0.5
sS'.O.XXO.XO'
p2564
F0.5
sS'O.XOX...X'
p2565
F0.5
sS'..X.O.OX.'
p2566
F0.5
sS'.X.X.O..O'
p2567
F0.5
sS'.XOX.XOO.'
p2568
F0.5
sS'OXX.OX.OX'
p2569
I1
sS'O.OX..XX.'
p2570
F0.5
sS'OXXOOOX.X'
p2571
I0
sS'OXX...XOO'
p2572
F0.5
sS'X..OOX.XO'
p2573
F0.5
sS'..XOOOXX.'
p2574
I0
sS'.XO.XX.OO'
p2575
F0.5
sS'XXOOOX.X.'
p2576
F0.5
sS'OOX.OXXX.'
p2577
F0.5
sS'OXX...XO.'
p2578
F0.5
sS'XO.XX.OXO'
p2579
F0.5
sS'XOO.OXX..'
p2580
F0.5
sS'X..OOX.X.'
p2581
F0.5
sS'.XX..OOOX'
p2582
F0.5
sS'.XO.XX.O.'
p2583
F0.5
sS'XXOOOX.XO'
p2584
F0.5
sS'OOXXX.OOX'
p2585
F0.5
sS'XXOX.OXO.'
p2586
I1
sS'OXX.OX.O.'
p2587
F0.5
sS'.XOX.XOOX'
p2588
F0.5
sS'.X.X.O...'
p2589
F0.5
sS'XOOXOX.OX'
p2590
I0
sS'..X.O.OXX'
p2591
F0.5
sS'O.OX..XXO'
p2592
F0.5
sS'O.XOX....'
p2593
F0.5
sS'X.XXOOOXO'
p2594
F0.5
sS'.OOXOXXX.'
p2595
F0.5
sS'OX.X.OOX.'
p2596
F0.5
sS'.O.O..X.X'
p2597
F0.5
sS'..XOOXXOX'
p2598
I1
sS'OXXO.X.XO'
p2599
F0.5
sS'XOOX.XOXO'
p2600
F0.5
sS'..X.OXX.O'
p2601
F0.5
sS'...O.XO.X'
p2602
F0.5
sS'XX..OOXOX'
p2603
F0.5
sS'X.O.O...X'
p2604
F0.5
sS'.XXXOO...'
p2605
F0.5
sS'XOX...OOX'
p2606
F0.5
sS'XX..OOXO.'
p2607
F0.5
sS'..OO..XX.'
p2608
F0.5
sS'OXO.XOX.X'
p2609
F0.5
sS'..XOOXXO.'
p2610
F0.5
sS'.OOXOXXXO'
p2611
F0.5
sS'XOXO..X.O'
p2612
F0.5
sS'.OX..XOXO'
p2613
F0.5
sS'OX.X.OOXX'
p2614
F0.5
sS'XOOXXXO..'
p2615
I1
sS'.XOX.XXOO'
p2616
F0.5
sS'O.XOXX.O.'
p2617
F0.5
sS'OX.OXXXO.'
p2618
F0.5
sS'XXOO.XO.X'
p2619
F0.5
sS'.OO.X.X.X'
p2620
F0.5
sS'XO....XO.'
p2621
F0.5
sS'XX.O.O.OX'
p2622
F0.5
sS'.O.OXX.XO'
p2623
F0.5
sS'XXXOX.OO.'
p2624
I1
sS'XO.OOX.X.'
p2625
F0.5
sS'OXXX.OOX.'
p2626
F0.5
sS'..XX..O..'
p2627
F0.5
sS'.OX.XOXXO'
p2628
I1
sS'O.X..OXX.'
p2629
F0.5
sS'O......X.'
p2630
F0.5
sS'....O.XOX'
p2631
F0.5
sS'OXOO.XOXX'
p2632
I0
sS'O......XX'
p2633
F0.5
sS'..XX..O.O'
p2634
F0.5
sS'O.X..OXXO'
p2635
F0.5
sS'O.X.XOXOX'
p2636
I1
sS'..O..XXXO'
p2637
F0.5
sS'X......XO'
p2638
F0.5
sS'XXOO.OX..'
p2639
F0.5
sS'OX.OXXXOO'
p2640
F0.5
sS'XO.OOX.XX'
p2641
F0.5
sS'O.XOXX.OX'
p2642
I1
sS'.O.OXX.X.'
p2643
F0.5
sS'.XXXOX.OO'
p2644
F0.5
sS'XO....XOX'
p2645
F0.5
sS'X.XX.OXOO'
p2646
I1
sS'.OO.X.X..'
p2647
F0.5
sS'.XO.OXXXO'
p2648
F0.5
sS'X...O.OX.'
p2649
F0.5
sS'O..XO.X.X'
p2650
F0.5
sS'XXO.O.XO.'
p2651
F0.5
sS'XX.OO.X.O'
p2652
F0.5
sS'OOXOXX.X.'
p2653
F0.5
sS'XOXOXX..O'
p2654
F0.5
sS'O.XO.X.X.'
p2655
F0.5
sS'X.XOX.XOO'
p2656
I1
sS'..O.X.XOX'
p2657
F0.5
sS'OOOXX.XXO'
p2658
I0
sS'OX.OOXOXX'
p2659
I0
sS'OXOXOX..X'
p2660
F0.5
sS'OXOXOX...'
p2661
F0.5
sS'X....OO.X'
p2662
F0.5
sS'OOXOXX.XO'
p2663
F0.5
sS'XOXOXOX..'
p2664
I1
sS'XXO.O.XOX'
p2665
F0.5
sS'OXXXOOO.X'
p2666
F0.5
sS'O..XO.X..'
p2667
F0.5
sS'OXO.XOX..'
p2668
F0.5
sS'X...O.OXX'
p2669
F0.5
sS'XX.OO.X..'
p2670
F0.5
sS'..X.OOXOX'
p2671
F0.5
sS'OX..XX.O.'
p2672
F0.5
sS'.X.O..OXX'
p2673
F0.5
sS'XOO...OXX'
p2674
F0.5
sS'....XXO..'
p2675
F0.5
sS'OO.O.X.XX'
p2676
F0.5
sS'..X..X..O'
p2677
F0.5
sS'....XXO.O'
p2678
F0.5
sS'OXOOXX.OX'
p2679
F0.5
sS'XX.XOX.OO'
p2680
F0.5
sS'.X.O..OX.'
p2681
F0.5
sS'..O.OX..X'
p2682
F0.5
sS'OX..XX.OO'
p2683
F1.0
sS'XO.XXOXO.'
p2684
I1
sS'XOX.X...O'
p2685
F0.5
sS'XOXOOOX.X'
p2686
I0
sS'..XO.X..O'
p2687
F0.5
sS'.X.O.....'
p2688
F0.5
sS'OXOX.XO.X'
p2689
F0.5
sS'OX.X....O'
p2690
F0.5
sS'XXOX.XOO.'
p2691
F0.5
sS'X...XOX.O'
p2692
F0.5
sS'OX..O.X..'
p2693
F0.5
sS'OX..O.X.X'
p2694
F0.5
sS'.XXO.O.OX'
p2695
F0.5
sS'OXOX.XO..'
p2696
F0.5
sS'X.O.OXOX.'
p2697
I0
sS'..XO.X...'
p2698
F0.5
sS'O.OX.OX.X'
p2699
F0.5
sS'OX.X.....'
p2700
F0.5
sS'XXOX.XOOO'
p2701
I0
sS'XXOXOOOX.'
p2702
I0
sS'.O.....X.'
p2703
F0.5
sS'XOOXXOXOX'
p2704
I1
sS'XXX.O...O'
p2705
I1
sS'.O.XOX.X.'
p2706
F0.5
sS'XX.XO.OOX'
p2707
F0.5
sS'OXX.XO..O'
p2708
F0.5
sS'XO..X.O.X'
p2709
I1
sS'..OX...OX'
p2710
F0.5
sS'XXOXXOOO.'
p2711
F0.5
sS'O.OX.XXOX'
p2712
F0.5
sS'XXOXXOOOX'
p2713
I1
sS'.O.XOX.XO'
p2714
F0.5
sS'.OOOX.XX.'
p2715
F0.9
sS'O.OX.XXO.'
p2716
F0.5
sS'OXX.XO...'
p2717
F0.5
sS'.XXXO.OXO'
p2718
F0.5
sS'X.OO.OX.X'
p2719
F0.5
sS'XO..X.O..'
p2720
F0.5
sS'XX.XO.OO.'
p2721
F0.5
sS'OO...XOXX'
p2722
F0.5
sS'.XOX.O.OX'
p2723
F0.5
sS'.O.....XX'
p2724
F0.5
sS'.OXXX.OOX'
p2725
F0.5
sS'OOXXX..XO'
p2726
F0.5
sS'X..X.XOOO'
p2727
I0
sS'O.XO.XXOX'
p2728
I1
sS'.O.OX..XX'
p2729
F0.5
sS'....OX.OX'
p2730
F0.6
sS'OXX..OO.X'
p2731
F0.5
sS'O.XX...OX'
p2732
F0.5
sS'X.X.O.XO.'
p2733
F0.5
sS'.X.OXXXOO'
p2734
F0.5
sS'OOXX..X..'
p2735
F0.5
sS'..XOOX...'
p2736
F0.5
sS'O.OXX.XOX'
p2737
F0.5
sS'X.O.O.OXX'
p2738
F0.0
sS'X.X.O.XOO'
p2739
F0.5
sS'O.OXX.XO.'
p2740
F0.5
sS'X.O..XO.X'
p2741
F0.5
sS'O.XOXXX.O'
p2742
I1
sS'..XOOX..X'
p2743
I1
sS'O.XO.XXO.'
p2744
F0.5
sS'..XXXO..O'
p2745
F0.5
sS'O.XX...O.'
p2746
F0.5
sS'X..X.XOO.'
p2747
F0.5
sS'.OXXX.OO.'
p2748
F0.5
sS'O.XX...XO'
p2749
F0.5
sS'OO..XXXO.'
p2750
F0.5
sS'X...XOOXO'
p2751
F0.5
sS'OXXX...OO'
p2752
F0.5
sS'..OOXXX..'
p2753
F0.5
sS'.OXX.O.XO'
p2754
F0.5
sS'.O....XOX'
p2755
F0.5
sS'..OX.OX.X'
p2756
F0.5
sS'X.....XOO'
p2757
F0.5
sS'..X.X.O.O'
p2758
F0.5
sS'.OXX..X.O'
p2759
F0.5
sS'X.....XO.'
p2760
F0.5
sS'X.XOXOOX.'
p2761
F0.5
sS'..X.X.O..'
p2762
F0.5
sS'.O...O.XX'
p2763
F0.5
sS'..OX.OX..'
p2764
F0.5
sS'X...XOOX.'
p2765
F0.5
sS'XXX.O.OXO'
p2766
I1
sS'XXO.XX.OO'
p2767
F0.5
sS'XXX...O.O'
p2768
I1
sS'OO..XXXOX'
p2769
F0.5
sS'OXXX...O.'
p2770
F0.5
sS'..OOXXX.O'
p2771
F0.5
sS'.OXX.O.X.'
p2772
F0.5
sS'X.X....OO'
p2773
F0.5
sS'XXOOOXXOX'
p2774
F0.5
sS'X...XO...'
p2775
F0.5
sS'XOXX.X.OO'
p2776
F0.5
sS'XX.XO.XOO'
p2777
I1
sS'.XXOX.XOO'
p2778
I1
sS'XXXXO.O.O'
p2779
I1
sS'.OO..XXOX'
p2780
F0.5
sS'XXOOOXXO.'
p2781
F0.5
sS'OXO.X..X.'
p2782
I1
sS'X.X....O.'
p2783
F0.5
sS'X...XO..O'
p2784
F0.5
sS'...XO.OXX'
p2785
F0.5
sS'OOXXOX.X.'
p2786
F0.5
sS'.O.OX.X..'
p2787
F1.0
sS'.XX..O.O.'
p2788
F0.5
sS'XX.OOXX.O'
p2789
F0.5
sS'O.X...XXO'
p2790
F0.5
sS'...X.XO..'
p2791
F0.5
sS'.XO..OXX.'
p2792
F0.5
sS'OXOXOXXO.'
p2793
F0.5
sS'X.OXX...O'
p2794
F0.5
sS'....X.X.O'
p2795
F0.5
sS'.OXXOXOX.'
p2796
F0.5
sS'.OXX.XOOX'
p2797
I1
sS'OX.X.XOXO'
p2798
F0.5
sS'.X.X.OOX.'
p2799
F0.5
sS'.OXX.XOO.'
p2800
F0.5
sS'.X.O..XXO'
p2801
F0.5
sS'OXOXOXXOX'
p2802
F0.5
sS'.X.X.OOXO'
p2803
F0.5
sS'OOXXOX.XO'
p2804
I0
sS'...X.XO.O'
p2805
F0.5
sS'.O.OX.X.X'
p2806
F0.5
sS'OXXO.O.XX'
p2807
F0.5
sS'....XO..X'
p2808
F0.5
sS'.OXXX..O.'
p2809
F0.5
sS'XOOX.O.XX'
p2810
F0.5
sS'O.....XOX'
p2811
F0.5
sS'XO.XX.O.O'
p2812
F0.5
sS'O.XXX.OO.'
p2813
F0.5
sS'OXXOOXX..'
p2814
F0.5
sS'OX..XXOO.'
p2815
F1.0
sS'XO.XX.O..'
p2816
F0.5
sS'OX..XXOOX'
p2817
F0.5
sS'XX.XOOXO.'
p2818
I1
sS'OXXOOXX.O'
p2819
I0
sS'O.XXX.OOX'
p2820
F0.5
sS'.OXXX..OO'
p2821
F0.5
sS'...XOXOOX'
p2822
F0.5
sS'OXXO.O.X.'
p2823
F0.5
sS'X.OOOX.XX'
p2824
F0.5
sS'X...O.XOX'
p2825
F0.5
sS'..OXOXX.O'
p2826
F0.5
sS'X..OXO.XO'
p2827
F0.5
sS'.OOOXXOXX'
p2828
F0.5
sS'.XOX.XO.O'
p2829
F0.5
sS'OX..OX...'
p2830
F0.5
sS'.OXOXX...'
p2831
F0.5
sS'...OXO..X'
p2832
F0.5
sS'O.OXXO.X.'
p2833
F0.5
sS'XO.XOOOXX'
p2834
F0.5
sS'X.XO..X.O'
p2835
F0.5
sS'..O..XO.X'
p2836
F0.5
sS'O.OXXO.XX'
p2837
F0.5
sS'O...OX..X'
p2838
F0.5
sS'..XX.XO.O'
p2839
F0.5
sS'XX...OOOX'
p2840
F0.5
sS'O.O.X..XX'
p2841
F0.5
sS'X..OXO.X.'
p2842
F0.5
sS'X...O.XO.'
p2843
F0.5
sS'.XOX.XO..'
p2844
F0.5
sS'.O.XXX.O.'
p2845
I1
sS'.OXOXX..O'
p2846
F0.5
sS'X...OOXOX'
p2847
F0.5
sS'.X.XO.OX.'
p2848
F0.5
sS'XXO..X.O.'
p2849
F0.5
sS'.XO.XO.OX'
p2850
F0.5
sS'.X.XOXO..'
p2851
F0.5
sS'XX..OO.X.'
p2852
F0.5
sS'..XOXXXOO'
p2853
I1
sS'.O..XX...'
p2854
F0.5
sS'..XOOXX.O'
p2855
F0.5
sS'.OOXXOXXO'
p2856
I0
sS'.XX.X.O.O'
p2857
F0.5
sS'.....OOXX'
p2858
F0.5
sS'.OXOXXX.O'
p2859
I1
sS'XOX..OXOX'
p2860
F0.5
sS'OO..XX...'
p2861
F0.5
sS'XX.X..OOO'
p2862
I0
sS'.O..XX..O'
p2863
F0.5
sS'XOX..OXO.'
p2864
F0.5
sS'..XOOXX..'
p2865
F0.5
sS'OO..XX..X'
p2866
F0.5
sS'.OXXXXOO.'
p2867
I1
sS'XX.X..OO.'
p2868
F0.5
sS'.X..OO..X'
p2869
F0.5
sS'.X.XO.OXO'
p2870
F0.5
sS'XXO..X.OO'
p2871
F0.5
sS'.X.XOXO.O'
p2872
F0.5
sS'O.XO..OXX'
p2873
I0
sS'XX..OO.XO'
p2874
F0.5
sS'..OXXO.X.'
p2875
F0.5
sS'...OXOX.X'
p2876
F0.5
sS'O.XOXX..O'
p2877
F0.5
sS'..XO..X..'
p2878
F0.5
sS'OX.XXO.OX'
p2879
F0.5
sS'O.X.XXO.O'
p2880
F0.5
sS'X.X.X.OO.'
p2881
F0.5
sS'XXOO.XOOX'
p2882
F0.5
sS'OXXOO.XX.'
p2883
F0.5
sS'OXOX.OXOX'
p2884
F0.5
sS'X.XX.OOXO'
p2885
F0.5
sS'OXXOO.XXO'
p2886
I0
sS'.XO..OXXO'
p2887
I0
sS'O..XXOO.X'
p2888
F0.5
sS'O.XOXX...'
p2889
F0.5
sS'X.XOOO..X'
p2890
I0
sS'..XXOOOXX'
p2891
F0.5
sS'.OXXX.O..'
p2892
F0.5
sS'...OXOX..'
p2893
F1.0
sS'O...O..XX'
p2894
F0.5
sS'OX.XXO.O.'
p2895
F0.5
sS'O.X.XXO..'
p2896
F0.5
sS'X.X.X.OOO'
p2897
I0
sS'XXO.OXO..'
p2898
I0
sS'.OXOX.O.X'
p2899
F0.5
sS'X...OXO..'
p2900
F0.5
sS'X.XXO.O.O'
p2901
F0.5
sS'XX...O.OX'
p2902
F0.5
sS'..O.X.XO.'
p2903
F0.5
sS'X.XXO.O..'
p2904
F0.5
sS'OXO.XOXOX'
p2905
F0.5
sS'OOXXO...X'
p2906
F0.5
sS'XX...O.O.'
p2907
F0.5
sS'OX.XXOOOX'
p2908
F0.5
sS'X...OXO.X'
p2909
F0.5
sS'.OX..OXOX'
p2910
F0.5
sS'.O.OOXX.X'
p2911
F0.5
sS'XXXXOOO..'
p2912
I1
sS'O.XXOOOXX'
p2913
F0.5
sS'X.XOX.OOX'
p2914
I1
sS'...X...O.'
p2915
F0.5
sS'..X.O...X'
p2916
F0.5
sS'...X..OX.'
p2917
F0.5
sS'X..X..O.O'
p2918
F0.5
sS'..X.OOX.X'
p2919
F0.5
sS'XOOX.X.OX'
p2920
F0.5
sS'XO.XXOX.O'
p2921
I1
sS'.O..X.XXO'
p2922
F0.5
sS'.XOXO..OX'
p2923
F0.5
sS'XOOX.X.O.'
p2924
F0.5
sS'XOXX.XOO.'
p2925
F0.5
sS'.X..XO.XO'
p2926
I1
sS'..X.OOX..'
p2927
F0.5
sS'OO..XX.X.'
p2928
F0.5
sS'..X.O....'
p2929
F0.5
sS'...X...OX'
p2930
F0.5
sS'X..X..O..'
p2931
F0.5
sS'...X..OXO'
p2932
F0.5
sS'OXOXX.OX.'
p2933
I1
sS'OXXXXO.O.'
p2934
F0.5
sS'X.XX.OO.O'
p2935
F0.5
sS'OXXOOX..X'
p2936
I1
sS'OOXO..XXX'
p2937
I1
sS'X...XOXOO'
p2938
F0.5
sS'.X.OX.X.O'
p2939
F0.5
sS'OXOX.XOOX'
p2940
F0.5
sS'X...XOXO.'
p2941
F0.5
sS'OOXO..XX.'
p2942
F0.5
sS'X.X..XO.O'
p2943
F0.5
sS'OXXOOX...'
p2944
F0.5
sS'.XO..O..X'
p2945
F0.5
sS'.O.X...XO'
p2946
F0.5
sS'OXXXXO.OO'
p2947
F0.5
sS'O...X.OXX'
p2948
F0.5
sS'X.XX.OO..'
p2949
F0.5
sS'.XXX.OXOO'
p2950
F0.5
sS'OXXXXOOXO'
p2951
I1
sS'OXXXO.XOO'
p2952
I0
sS'XO.O..XX.'
p2953
F0.5
sS'X.X.OO.XO'
p2954
F0.5
sS'XOXO.XO..'
p2955
F0.5
sS'OO.XOX..X'
p2956
F0.5
sS'OO.X..XOX'
p2957
F0.5
sS'.XX.O..OX'
p2958
F0.5
sS'.OX.XX.O.'
p2959
F0.5
sS'XOXO.XO.X'
p2960
I1
sS'XXX.O..O.'
p2961
I1
sS'.OX.XX.OO'
p2962
F0.5
sS'.XX.O..O.'
p2963
F0.5
sS'OXXXO.XO.'
p2964
F0.5
sS'XO.O..XXO'
p2965
F0.5
sS'X.X.OO.X.'
p2966
F0.5
sS'XO.O.XOXX'
p2967
F0.5
sS'..X..XXOO'
p2968
F0.5
sS'O.XXO.XOX'
p2969
F0.5
sS'X.OO...XX'
p2970
F0.5
sS'XX..XO..O'
p2971
F0.5
sS'..OXOOXXX'
p2972
I1
sS'.O..XXX.O'
p2973
F0.5
sS'XXX....OO'
p2974
I1
sS'XX.XO.O..'
p2975
F0.5
sS'.X.X..O..'
p2976
F0.5
sS'XX.XO.O.O'
p2977
F0.5
sS'X.OO...X.'
p2978
F0.5
sS'..OXOOXX.'
p2979
F0.5
sS'XO.O.XOX.'
p2980
F0.5
sS'OX..O.OXX'
p2981
F0.5
sS'O.XXO.XO.'
p2982
F0.5
sS'OXOX..XOX'
p2983
F0.5
sS'OO..XXX.O'
p2984
F0.5
sS'.XXOO.XO.'
p2985
F0.5
sS'..OXX....'
p2986
F0.5
sS'X.XOOX.O.'
p2987
F0.5
sS'.O..XXOXO'
p2988
F0.5
sS'OXX.XOOX.'
p2989
I1
sS'X.OXOX.O.'
p2990
F0.5
sS'XX.X...OO'
p2991
F0.5
sS'O.X..OX.X'
p2992
F0.5
sS'OOOX.XOXX'
p2993
I0
sS'OXOXXO...'
p2994
F0.5
sS'OXOXXO..X'
p2995
F0.5
sS'X.XOOX.OX'
p2996
I1
sS'OO..XXX..'
p2997
F0.5
sS'X.OXOX.OX'
p2998
F0.5
sS'..OXX...O'
p2999
F1.0
sS'.XXOO.XOX'
p3000
F0.5
sS'O.XX.O.X.'
p3001
F0.5
sS'X.O.XOOXX'
p3002
I1
sS'XX.O.OXXO'
p3003
F0.5
sS'XOOXOX..X'
p3004
F0.5
sS'OOOXOXXX.'
p3005
I0
sS'XO.OXXXO.'
p3006
F0.5
sS'X.OXO....'
p3007
F0.5
sS'.X.XXO..O'
p3008
F0.5
sS'XOOOXXX.O'
p3009
F0.5
sS'..XOO..X.'
p3010
F0.5
sS'..XOO..XX'
p3011
F0.5
sS'X.XOX..O.'
p3012
F0.5
sS'..OX.XOOX'
p3013
F0.5
sS'X.....X.O'
p3014
F0.5
sS'X..O...OX'
p3015
F0.5
sS'XOOOXXX..'
p3016
F0.5
sS'X.OXO...X'
p3017
F0.5
sS'XOOXOX...'
p3018
F0.5
sS'O.XX.O.XO'
p3019
F0.5
sS'XO.OOXXOX'
p3020
I0
sS'OXXOXO.X.'
p3021
I1
sS'X.O.XOOX.'
p3022
F0.5
sS'XO.OXXXOO'
p3023
F0.5
sS'...X.XOOX'
p3024
F0.5
sS'XO.XXO...'
p3025
F0.5
sS'XO..OXXO.'
p3026
I0
sS'.XX.XOOOX'
p3027
F0.5
sS'OX.X..OXO'
p3028
F0.5
sS'O..O.XOXX'
p3029
I0
sS'.X.X..OXO'
p3030
F0.5
sS'X.OOXX.XO'
p3031
F0.5
sS'O.X..XOX.'
p3032
F0.5
sS'XOXXXOO.O'
p3033
F0.5
sS'X.OX.XOO.'
p3034
F0.5
sS'X.OX.XOOX'
p3035
F0.5
sS'O.X..XOXO'
p3036
F0.5
sS'.XO.XX..O'
p3037
F0.5
sS'XOXXXOO..'
p3038
F0.5
sS'X..XOOX..'
p3039
I1
sS'.XX.XOOO.'
p3040
F0.5
sS'XO.XXO..O'
p3041
F0.5
sS'.OOXO.X.X'
p3042
F0.5
sS'...X.XOO.'
p3043
F0.5
sS'OX.X..OX.'
p3044
F0.5
sS'....XOOXX'
p3045
F0.5
sS'XO....X.O'
p3046
F0.5
sS'X.O...O.X'
p3047
F0.5
sS'...XOXO.X'
p3048
F0.5
sS'X..XO...O'
p3049
F0.5
sS'XOOX.XO..'
p3050
F0.5
sS'XOXOXXXOO'
p3051
I1
sS'..XX.X.OO'
p3052
F0.5
sS'XOXOX...O'
p3053
F0.5
sS'.....XXOO'
p3054
F0.5
sS'X.OX.O.XO'
p3055
I0
sS'X..X.O.XO'
p3056
F0.5
sS'X.OXX..O.'
p3057
F0.5
sS'O...OX.XX'
p3058
F0.5
sS'...XXXO.O'
p3059
I1
sS'.O...XOX.'
p3060
F0.5
sS'OO.XX..OX'
p3061
F0.5
sS'XOXOX....'
p3062
F0.5
sS'X.OXX.OXO'
p3063
F0.5
sS'X.OX.O.X.'
p3064
F0.5
sS'O...OX.X.'
p3065
F0.5
sS'X.OXX..OO'
p3066
F0.5
sS'.O...XOXX'
p3067
F0.5
sS'O.X....OX'
p3068
F0.5
sS'XOOO.XOXX'
p3069
F0.5
sS'...XOXO..'
p3070
F0.5
sS'XOOX.XO.X'
p3071
F0.5
sS'X..XO....'
p3072
F0.5
sS'XOOXXXOXO'
p3073
I1
sS'....XOOX.'
p3074
F1.0
sS'X.X.O...O'
p3075
F0.5
sS'O..XXXOXO'
p3076
I1
sS'..O.XXO..'
p3077
F1.0
sS'XX.XOXOO.'
p3078
F0.5
sS'.XX.OOX..'
p3079
F0.5
sS'XOXOX.OXO'
p3080
F0.5
sS'XO.O.O.XX'
p3081
F0.5
sS'....O.X..'
p3082
F0.5
sS'X....OOXX'
p3083
F0.5
sS'..X.XOOXO'
p3084
F0.5
sS'X.OXOOOXX'
p3085
I0
sS'XOX.OXXOO'
p3086
I0
sS'XOXOX.OX.'
p3087
F0.5
sS'.XXO...XO'
p3088
F0.5
sS'..OX.X.O.'
p3089
F0.5
sS'XXOX....O'
p3090
F0.5
sS'X....OOX.'
p3091
F0.5
sS'....O.X.X'
p3092
F0.5
sS'X.X.O....'
p3093
F0.5
sS'.XX.OOX.O'
p3094
F0.5
sS'..O.XXO.X'
p3095
F0.5
sS'XX..OXXOO'
p3096
F0.5
sS'.OX....X.'
p3097
F0.5
sS'.X..XOX.O'
p3098
F0.5
sS'OXOOXX...'
p3099
F0.5
sS'...XXO.O.'
p3100
F0.5
sS'OX..XX..O'
p3101
F0.5
sS'OOX..X..X'
p3102
I1
sS'OXX.OXO..'
p3103
F0.5
sS'.OX.X.OOX'
p3104
F0.5
sS'.O.OXXXOX'
p3105
F0.5
sS'XXOOXXOO.'
p3106
F0.5
sS'OXX.OO.XX'
p3107
F0.5
sS'XOXOOXOX.'
p3108
F0.5
sS'OXXOXO...'
p3109
F0.5
sS'OXXX.OX.O'
p3110
F0.5
sS'XOXOOXOXX'
p3111
I1
sS'OXX.OO.X.'
p3112
F0.5
sS'O..O...XX'
p3113
F0.5
sS'OXXOXO..X'
p3114
F0.5
sS'.O.OXXXO.'
p3115
F0.5
sS'XXOOXXOOX'
p3116
I1
sS'..XOXXOXO'
p3117
F0.5
sS'OOX..X...'
p3118
F0.5
sS'OXX.OXO.X'
p3119
I1
sS'OXOOXX..X'
p3120
F0.5
sS'O.XX..O.X'
p3121
F0.5
sS'OXX...X.O'
p3122
F0.5
sS'O.XO.X.XO'
p3123
F0.5
sS'OO.X.X.X.'
p3124
F0.5
sS'..XO..XOX'
p3125
F0.5
sS'O.OXXO..X'
p3126
F0.5
sS'XOX..OX..'
p3127
F0.5
sS'OOXX.X.XO'
p3128
F0.5
sS'OXOX...XO'
p3129
F0.5
sS'.X.OXO.OX'
p3130
F0.5
sS'XOO.OXX.X'
p3131
F0.5
sS'XOX..OX.O'
p3132
F0.5
sS'XXOOOOXX.'
p3133
I0
sS'.OOOXX..X'
p3134
F0.5
sS'.XXOO..OX'
p3135
F0.5
sS'OXOX...X.'
p3136
F0.5
sS'.OXXXXO.O'
p3137
I1
sS'OX..O.XOX'
p3138
F0.5
sS'.OXO....X'
p3139
F0.5
sS'O.OOXXOXX'
p3140
I0
sS'..XO..XO.'
p3141
F0.5
sS'O.XX..O..'
p3142
F0.5
sS'OO.X.X.XO'
p3143
F0.5
sS'X..O..XOX'
p3144
F0.5
sS'OXOXXOXOX'
p3145
F0.5
sS'.XO.....X'
p3146
F0.5
sS'..OXO.XOX'
p3147
F0.5
sS'.OXOX.OX.'
p3148
F0.5
sS'OXO..OXXX'
p3149
I1
sS'XXXXOOOOX'
p3150
I1
sS'.O.XOX..X'
p3151
F0.5
sS'XOOXXO.X.'
p3152
F0.5
sS'..X.X..OO'
p3153
F0.5
sS'OOO.X..XX'
p3154
I0
sS'.O.XOX...'
p3155
F0.5
sS'OXO..OXX.'
p3156
F0.5
sS'XOOXXO.XO'
p3157
I0
sS'..X.X..O.'
p3158
F0.5
sS'.OXOX.OXX'
p3159
F0.5
sS'X.O.OXO.X'
p3160
I0
sS'.XO......'
p3161
F0.5
sS'..X....XO'
p3162
F0.5
sS'..O...XXO'
p3163
F0.5
sS'O..OXOX.X'
p3164
F0.5
sS'.OXXXOOX.'
p3165
F0.5
sS'...X....O'
p3166
F0.5
sS'X..O.XOOX'
p3167
F0.5
sS'OOXX..XXO'
p3168
F0.5
sS'X..X..OOX'
p3169
F0.5
sS'.X...O.XO'
p3170
F0.5
sS'OX.O.O.XX'
p3171
F0.5
sS'..X.O..OX'
p3172
F0.5
sS'OXXO.XXO.'
p3173
F0.5
sS'XOXOXXOXO'
p3174
F0.5
sS'...XXO.OX'
p3175
F0.5
sS'.X...O.X.'
p3176
F0.5
sS'X..X..OO.'
p3177
F0.5
sS'..OX....X'
p3178
F0.5
sS'OXXO.XXOO'
p3179
F0.5
sS'OOXX.O..X'
p3180
F0.5
sS'X.X.O.X.O'
p3181
F0.5
sS'..O...XX.'
p3182
F0.5
sS'.OXXOXOXO'
p3183
F0.5
sS'.OXXXOOXO'
p3184
F0.5
sS'...X.....'
p3185
F0.5
sS'OX.XXXO.O'
p3186
I1
sS'...XO..X.'
p3187
F0.5
sS'OXXXXO..O'
p3188
F0.5
sS'X...X..OO'
p3189
F0.5
sS'.XXO.OXO.'
p3190
F0.5
sS'....O..X.'
p3191
F0.5
sS'.XXXO.OOX'
p3192
F0.5
sS'OO.X...X.'
p3193
F0.5
sS'.XXO.OXOX'
p3194
F0.5
sS'.XXXO.OO.'
p3195
F0.5
sS'OO.X...XX'
p3196
F0.5
sS'....O..XX'
p3197
F0.5
sS'.XOX...OX'
p3198
F0.5
sS'X...X..O.'
p3199
F0.5
sS'XXXOXOXOO'
p3200
I1
sS'OXX.OO..X'
p3201
F0.5
sS'...OX..X.'
p3202
F0.5
sS'...XO..XO'
p3203
F0.5
sS'.XXXO..OO'
p3204
F0.5
sS'XX...XO.O'
p3205
F0.5
sS'.X.X.O.XO'
p3206
F0.5
sS'.OXOO..XX'
p3207
F0.5
sS'X.O.X...O'
p3208
F0.5
sS'.O.X.XOXO'
p3209
F0.5
sS'XX..OX..O'
p3210
F0.5
sS'.XOX.O.X.'
p3211
F0.5
sS'OXX.OOX.X'
p3212
F0.5
sS'XXOXOX.O.'
p3213
F0.5
sS'.X.O...X.'
p3214
F0.5
sS'.OX..X...'
p3215
F0.5
sS'O.XXXOOXO'
p3216
F0.5
sS'X...OX.XO'
p3217
F0.5
sS'.XXO..OOX'
p3218
F0.5
sS'XX.XO.OXO'
p3219
F0.5
sS'X.XO.OO.X'
p3220
F0.5
sS'.X.O...XO'
p3221
F0.5
sS'OOOX.XXOX'
p3222
I0
sS'X...X.OXO'
p3223
F0.5
sS'.OX..X..O'
p3224
F0.5
sS'O.XXXOOX.'
p3225
F0.5
sS'OXX.OOX..'
p3226
F0.5
sS'.XXXO..O.'
p3227
F0.5
sS'X.O.X....'
p3228
F0.5
sS'.O.X.XOX.'
p3229
F0.5
sS'.XOX.O.XO'
p3230
I0
sS'XX.XOO..O'
p3231
F0.5
sS'.O.XO.OXX'
p3232
F0.5
sS'O.XXOO..X'
p3233
F0.5
sS'..X...OOX'
p3234
F0.5
sS'.X.X.OO.X'
p3235
F0.5
sS'.XXOXOO..'
p3236
F0.5
sS'..O.X....'
p3237
F0.5
sS'.O..OXX..'
p3238
F0.5
sS'..O.X...X'
p3239
F0.5
sS'.O..OXX.X'
p3240
F0.5
sS'.XXOXOO.X'
p3241
F0.5
sS'XXOXOXOO.'
p3242
I0
sS'...OXXX.O'
p3243
F0.5
sS'XXOXOX.OO'
p3244
F0.5
sS'OXO.O.X.X'
p3245
F0.5
sS'.X.X.OO..'
p3246
F0.5
sS'OXXOXOX..'
p3247
I1
sS'O.XXO.X..'
p3248
F0.5
sS'XX.XOO...'
p3249
F0.5
sS'OXXO.XOXO'
p3250
I0
sS'..OXX..OX'
p3251
F0.5
sS'XOX.O..X.'
p3252
F0.5
sS'.XO.O.X.X'
p3253
F0.5
sS'.O..OX..X'
p3254
F0.6799999999999999
sS'......X.O'
p3255
F0.5
sS'XXXX.OOO.'
p3256
I1
sS'.OXO.XX..'
p3257
F0.5
sS'X..OO.XXO'
p3258
F0.5
sS'O..XX.X.O'
p3259
F0.5
sS'......X..'
p3260
F0.5
sS'.OXO.XX.O'
p3261
F0.5
sS'O.X.XO.OX'
p3262
F0.5
sS'X.O.OXXXO'
p3263
F0.5
sS'X..OO.XX.'
p3264
F0.5
sS'.O..XXOOX'
p3265
F0.5
sS'OOX.XXX.O'
p3266
I1
sS'O.XX.XXOO'
p3267
F0.5
sS'.XO.O.X..'
p3268
F0.5
sS'..OXX..O.'
p3269
F1.0
sS'XOX.O..XO'
p3270
F0.5
sS'XXXOXOOXO'
p3271
I1
sS'OX.O..XOX'
p3272
F0.5
sS'.OXOXX.OX'
p3273
I1
sS'.X.X..XOO'
p3274
F0.5
sS'..O....XX'
p3275
F0.5
sS'XO.OXXX.O'
p3276
F0.5
sS'XXXO.OOX.'
p3277
I1
sS'OOXXX.OX.'
p3278
F0.5
sS'XOOX..XOX'
p3279
I1
sS'OX.XOOXX.'
p3280
F0.5
sS'.O.XOXOXX'
p3281
F0.5
sS'X.XXOXO.O'
p3282
F0.5
sS'OOX.X.XXO'
p3283
I1
sS'.X.OOXXXO'
p3284
F0.5
sS'OOXXX.OXO'
p3285
F0.5
sS'.O.XOXOX.'
p3286
F0.5
sS'OX.XOOXXO'
p3287
I0
sS'XOOOX.X.X'
p3288
I1
sS'..OXO...X'
p3289
F0.5
sS'..O....X.'
p3290
F0.5
sS'XOOXOX.XO'
p3291
F0.5
sS'O.OX..XOX'
p3292
F0.5
sS'.OXOXX.O.'
p3293
F0.5
sS'O..X.OX..'
p3294
F0.5
sS'XOXXXO.O.'
p3295
F0.5
sS'X.O.OX.X.'
p3296
F0.5
sS'..O..XX.O'
p3297
F0.5
sS'.XOOOXXOX'
p3298
F0.5
sS'.XX.XOO.O'
p3299
F0.5
sS'.X.O..XO.'
p3300
F0.5
sS'.XX..OX.O'
p3301
F0.5
sS'.OO.XOX.X'
p3302
F0.5
sS'OOXX..OX.'
p3303
F0.5
sS'.XX.XOO..'
p3304
F0.5
sS'OOXOXXOX.'
p3305
I0
sS'XO.X.OO.X'
p3306
F0.5
sS'OOXX..OXX'
p3307
F0.5
sS'.X.O..XOX'
p3308
F0.5
sS'OX.XOX...'
p3309
F0.5
sS'XX.OXXO.O'
p3310
F0.5
sS'XOXXXO.OO'
p3311
F0.5
sS'...O.X.OX'
p3312
F0.5
sS'..O..XX..'
p3313
F0.5
sS'O..X.OX.X'
p3314
F0.5
sS'..XX.O.OX'
p3315
F0.5
sS'.OXXX...O'
p3316
F0.5
sS'O...XO.XX'
p3317
F0.5
sS'X..XO.OXO'
p3318
F0.5
sS'..O..OXX.'
p3319
F0.5
sS'X.OOX..XO'
p3320
F0.5
sS'OXXO..XXO'
p3321
F0.5
sS'.XOXOO.X.'
p3322
F0.5
sS'OOXX.XXO.'
p3323
F0.5
sS'XO..XOX.O'
p3324
F0.5
sS'OXXOOO.XX'
p3325
I0
sS'OXOX..O.X'
p3326
F0.5
sS'X.OOX..X.'
p3327
F0.5
sS'OOXX.XXOO'
p3328
F0.5
sS'XO..XOX..'
p3329
F0.5
sS'.XOXOO.XX'
p3330
F0.5
sS'XOX.OX.XO'
p3331
F0.5
sS'XX.X..O.O'
p3332
F0.5
sS'OX..XXOXO'
p3333
I1
sS'.O.OX.OXX'
p3334
F1.0
sS'..O..OXXX'
p3335
I1
sS'O...XO.X.'
p3336
F0.5
sS'.X.OXX.OO'
p3337
F0.5
sS'...O.OX.X'
p3338
F0.5
sS'..XX.O.O.'
p3339
F0.5
sS'X..XO.OX.'
p3340
F0.5
sS'XOX.XO.XO'
p3341
F0.5
sS'OO.....XX'
p3342
F0.5
sS'XXOX.OOXO'
p3343
I0
sS'X.X.O..OX'
p3344
F0.5
sS'XX..XOOXO'
p3345
I1
sS'XXO.X..O.'
p3346
F0.5
sS'XOXOO.OXX'
p3347
F0.5
sS'OOO.XX..X'
p3348
I0
sS'OXXO.OXOX'
p3349
F0.5
sS'OX.OXX.XO'
p3350
I1
sS'X.X..X.OO'
p3351
F0.5
sS'XXOX.OOX.'
p3352
F0.5
sS'X.X.O..O.'
p3353
F0.5
sS'XXO.X..OO'
p3354
F0.5
sS'OOX.X.X..'
p3355
I1
sS'X.OOXX...'
p3356
F0.5
sS'X.XO.X..O'
p3357
F0.5
sS'OX..X.OX.'
p3358
I1
sS'X.OXXO...'
p3359
F0.5
sS'.OO.XX...'
p3360
F1.0
sS'O.XXXXO.O'
p3361
I1
sS'XX...O...'
p3362
F0.5
sS'XOX..OXXO'
p3363
F0.5
sS'XOXO.X.O.'
p3364
F0.5
sS'OXOOX.X.X'
p3365
F0.5
sS'X.XXO.OO.'
p3366
F0.5
sS'.OX.OOX.X'
p3367
F0.5
sS'.OOXXOXOX'
p3368
F0.5
sS'.OX.X.O.X'
p3369
F0.5
sS'XO...X..O'
p3370
F0.5
sS'XX...O..O'
p3371
F0.5
sS'.OX.X.O..'
p3372
F0.5
sS'.OO.XX..X'
p3373
F0.5
sS'X.XXO.OOX'
p3374
F0.5
sS'XO.OXO.XX'
p3375
I1
sS'OXOOX.X..'
p3376
F0.5
sS'XO...X...'
p3377
F0.5
sS'X.OOXX..O'
p3378
F0.5
sS'XXX.OO...'
p3379
I1
sS'X.X.XOXOO'
p3380
I1
sS'XXXOOXOOX'
p3381
I1
sS'X.OXXO..O'
p3382
I0
sS'.XO.XO.X.'
p3383
I1
sS'..X.XO.O.'
p3384
F1.0
sS'.XX.O.O..'
p3385
F0.5
sS'O..XOX.X.'
p3386
F0.5
sS'OOXXXXXOO'
p3387
I1
sS'.O.X..X..'
p3388
F0.5
sS'X....O..X'
p3389
F0.5
sS'O..XX...O'
p3390
F1.0
sS'.O.OXXX..'
p3391
F0.5
sS'.OXO.X..X'
p3392
I1
sS'O..XXO.XO'
p3393
F0.5
sS'X.O.OX.OX'
p3394
F0.5
sS'.O.X..X.O'
p3395
F0.5
sS'.OXO.X...'
p3396
F0.5
sS'O..XX....'
p3397
F0.5
sS'.O.OXXX.O'
p3398
F0.5
sS'O.XO..X.X'
p3399
F0.5
sS'..X.OX.XO'
p3400
F0.5
sS'X....O...'
p3401
F0.5
sS'O..XXO.X.'
p3402
F0.5
sS'XXO.O.O.X'
p3403
I0
sS'O..XOX.XO'
p3404
I0
sS'.XX.O.O.X'
p3405
F0.5
sS'..X.XO.OX'
p3406
F0.5
sS'OXXOX..OX'
p3407
F0.5
sS'OOXXXO.OX'
p3408
F0.5
sS'XX....OO.'
p3409
F0.5
sS'XO.XO.XXO'
p3410
I1
sS'X.OO.XXXO'
p3411
F0.5
sS'OO.X.O.XX'
p3412
F0.5
sS'OOX.XOX.X'
p3413
I1
sS'.XO....OX'
p3414
F0.5
sS'..OXO.X.X'
p3415
F0.5
sS'OOOXX...X'
p3416
I0
sS'..OXO.X..'
p3417
F0.5
sS'...X.O..X'
p3418
F0.5
sS'XXOXOO.OX'
p3419
F0.5
sS'OXX.XO.XO'
p3420
I1
sS'OXX.XXO.O'
p3421
F0.5
sS'X...XO.XO'
p3422
F0.5
sS'OXXOX..O.'
p3423
F0.5
sS'O.XOX.XXO'
p3424
I1
sS'..XXOOO.X'
p3425
F0.5
sS'.O.XXOX..'
p3426
F0.5
sS'..O...X..'
p3427
F0.5
sS'O.X...X.O'
p3428
F0.5
sS'X.X.OOXO.'
p3429
F0.5
sS'...OX..OX'
p3430
F0.5
sS'XO.OX.X.O'
p3431
F0.5
sS'OOX.X...X'
p3432
F0.5
sS'OXOXX..OX'
p3433
F0.5
sS'XOOXOX.X.'
p3434
F0.5
sS'.OO.XX.XO'
p3435
F0.5
sS'...O.XX.O'
p3436
F0.5
sS'..X..XO.O'
p3437
F0.5
sS'.OXOXXO..'
p3438
F1.0
sS'X.XXO..OO'
p3439
F0.5
sS'OO.X....X'
p3440
F0.5
sS'.....X.XO'
p3441
F0.5
sS'XXOOO.XXO'
p3442
F0.5
sS'.XOXO.XO.'
p3443
F0.5
sS'X..O.XO.X'
p3444
F0.5
sS'..X..OX.O'
p3445
F0.5
sS'.XOXO.XOX'
p3446
F0.5
sS'X.XXO..O.'
p3447
F0.5
sS'X..O.XO..'
p3448
F0.5
sS'XXOOO.XX.'
p3449
F0.5
sS'..X..OX..'
p3450
F0.5
sS'.O.XXOX.O'
p3451
F0.5
sS'..X.OOOXX'
p3452
F0.5
sS'OOX.X....'
p3453
F1.0
sS'O.X...X..'
p3454
F0.5
sS'XXXOO.O.X'
p3455
I1
sS'XO.OX.X..'
p3456
F0.5
sS'OXOXX..O.'
p3457
F0.5
sS'..O...X.X'
p3458
F0.5
sS'.OO.XX.X.'
p3459
F0.5
sS'...O.XX..'
p3460
F0.5
sS'..X..XO..'
p3461
F0.5
sS'.OXX.O.OX'
p3462
F0.5
sS'.OX.OOXX.'
p3463
F0.5
sS'.X.OX...O'
p3464
F0.5
sS'XOO..X.XO'
p3465
F0.5
sS'X.O.XXO..'
p3466
F0.5
sS'.OO.X..X.'
p3467
F0.5
sS'.XOO...XX'
p3468
F0.5
sS'O...X..X.'
p3469
F0.5
sS'OO.XXX.OX'
p3470
I1
sS'OOXXOXOXX'
p3471
I1
sS'.O..XOXX.'
p3472
F0.5
sS'OX.OXO..X'
p3473
F0.5
sS'.O..XOXXO'
p3474
F0.5
sS'...XOOXOX'
p3475
F0.5
sS'XOOOX.X..'
p3476
F0.5
sS'X.OXXX.OO'
p3477
I1
sS'..XOO.XOX'
p3478
F0.5
sS'.OXX.XXOO'
p3479
F0.5
sS'.OX.OOXXX'
p3480
I1
sS'.XOO...X.'
p3481
F0.5
sS'XXX.OOX.O'
p3482
I1
sS'.OO.X..XX'
p3483
F0.5
sS'OXOXX.OOX'
p3484
F0.5
sS'.X.OX....'
p3485
F0.5
sS'XOO..X.X.'
p3486
F0.5
sS'X..XOX..O'
p3487
F0.5
sS'OX.X..XO.'
p3488
F0.5
sS'O.OO.XX.X'
p3489
F0.5
sS'XOO.X...X'
p3490
I1
sS'XO.X..OOX'
p3491
F0.5
sS'O....XXXO'
p3492
F0.5
sS'X.O.X..OX'
p3493
I1
sS'X.XXOOX.O'
p3494
I1
sS'OX...O..X'
p3495
F0.5
sS'X.O.X..O.'
p3496
F0.5
sS'XXOOOX.OX'
p3497
F0.5
sS'.X..OO.XX'
p3498
F0.5
sS'.OXOXO..X'
p3499
F0.5
sS'O..OXXXXO'
p3500
F0.5
sS'XOO.X....'
p3501
F0.5
sS'XX.O.X..O'
p3502
F0.5
sS'O..XX..XO'
p3503
F0.5
sS'OX.X..XOO'
p3504
F0.5
sS'X.OXO..OX'
p3505
F0.5
sS'XO.XXO.OX'
p3506
I1
sS'.X.OX.OX.'
p3507
I1
sS'.XX.OX.O.'
p3508
F0.5
sS'.X.OO.XXO'
p3509
F0.5
sS'.OXOXOX.X'
p3510
I1
sS'.O.XXO.OX'
p3511
F1.0
sS'.XX....OO'
p3512
F0.5
sS'X..XOXXOO'
p3513
I1
sS'.X.OXOXXO'
p3514
I1
sS'.XX....O.'
p3515
F0.5
sS'XXXO.O...'
p3516
I1
sS'OX...OXOX'
p3517
F0.5
sS'OXX.OOXOX'
p3518
F0.5
sS'XO.XX.OOX'
p3519
I1
sS'.XX.OX.OO'
p3520
F0.5
sS'XO.XXO.O.'
p3521
F0.5
sS'.X.OO.XX.'
p3522
F0.5
sS'.O.XXOO.X'
p3523
F0.5
sS'O.X......'
p3524
F0.5
sS'.O.OXXXXO'
p3525
F0.5
sS'X..OX..OX'
p3526
I1
sS'.OXO.XOXX'
p3527
I1
sS'XOO.X.X.O'
p3528
F0.5
sS'XOX.O..OX'
p3529
I0
sS'XO.XX..O.'
p3530
F0.5
sS'.....OX..'
p3531
F0.5
sS'.O.X.O.XX'
p3532
F0.5
sS'.XXO..O..'
p3533
F0.5
sS'.X.OOXX.O'
p3534
F0.5
sS'.O.X....X'
p3535
F0.5
sS'.XXOOOX..'
p3536
I0
sS'.O.X.....'
p3537
F0.5
sS'.X.OOXX..'
p3538
F0.5
sS'.XO..X.XO'
p3539
F0.5
sS'.XXO..O.X'
p3540
F0.5
sS'.O.X.O.X.'
p3541
F0.5
sS'O..O..X.X'
p3542
F0.5
sS'XOO.OX.X.'
p3543
F0.5
sS'O.X.XOXXO'
p3544
I1
sS'OOXXXX..O'
p3545
I1
sS'.....OX.X'
p3546
F0.5
sS'X.OXO.XXO'
p3547
I1
sS'.OXO.XOX.'
p3548
F0.5
sS'X..OX..O.'
p3549
F0.5
sS'XXO..XOXO'
p3550
F0.5
sS'XOO.X.X..'
p3551
F0.5
sS'O.XXX.XOO'
p3552
I1
sS'XO.XX..OO'
p3553
F0.5
sS'O.XOXOXX.'
p3554
I1
sS'OOXXO.X.X'
p3555
F0.5
sS'XOOOXX..X'
p3556
I1
sS'O.OX..X.X'
p3557
F0.5
sS'OX.OOXX..'
p3558
F0.5
sS'XX.O..O..'
p3559
F0.5
sS'..O.XXOOX'
p3560
F0.5
sS'.XO.XOXOX'
p3561
F0.5
sS'XOXOX..O.'
p3562
F0.5
sS'..OXXOO.X'
p3563
F0.5
sS'.XXOXXO.O'
p3564
F0.5
sS'OXX.O.XOX'
p3565
F0.5
sS'OXX.O.XO.'
p3566
F0.5
sS'XOXOX..OX'
p3567
I1
sS'XX.O..O.X'
p3568
F0.5
sS'OX.OOXX.X'
p3569
F0.5
sS'XOOOXX...'
p3570
F0.5
sS'XXOXOOX..'
p3571
I1
sS'O.OX..X..'
p3572
F0.5
sS'XOXXXO..O'
p3573
F0.5
sS'XXO...OXO'
p3574
F0.5
sS'..XOXX.O.'
p3575
F0.5
sS'XO.X.XXOO'
p3576
I1
sS'O.O.OX.XX'
p3577
F0.5
sS'..OX.X...'
p3578
F0.5
sS'XOOX..X..'
p3579
I1
sS'.XO.XXOXO'
p3580
I1
sS'XOX.OX..O'
p3581
F0.5
sS'XOX...O.X'
p3582
F0.5
sS'XOX...O..'
p3583
F0.5
sS'..OX.X..O'
p3584
F0.5
sS'OOOXX.XOX'
p3585
I0
sS'O.XO.XOX.'
p3586
I0
sS'XOX.OX...'
p3587
F0.5
sS'..XOXX.OO'
p3588
F0.5
sS'XXO...OX.'
p3589
F0.5
sS'..X.OXXOO'
p3590
F0.5
sS'XOOOXXOX.'
p3591
F0.5
sS'OOX.XX...'
p3592
F0.5
sS'XXXOX.O.O'
p3593
I1
sS'OXOX..XXO'
p3594
F0.5
sS'OX.OXX..O'
p3595
F0.5
sS'...OXOXX.'
p3596
F0.5
sS'OX.....X.'
p3597
F0.5
sS'.OXOXOXX.'
p3598
I1
sS'.X..XOOOX'
p3599
F0.5
sS'.XOXOXO..'
p3600
I0
sS'OX.OXX...'
p3601
F0.5
sS'OOX..XXXO'
p3602
F0.5
sS'.OO...X.X'
p3603
F0.5
sS'..OXOX.XO'
p3604
F0.5
sS'.X..OO.X.'
p3605
F0.5
sS'......XXO'
p3606
F0.5
sS'..X.OXXO.'
p3607
F0.5
sS'XXX.OX.OO'
p3608
I1
sS'XOOXXXOOX'
p3609
I1
sS'XXX..OXOO'
p3610
I1
sS'OOX.XX..O'
p3611
F0.5
sS'OXXX.XO.O'
p3612
F0.5
sS'XOOOXXOXX'
p3613
I1
sS'XX.O.O...'
p3614
F0.5
sS'.O.OXOX.X'
p3615
F0.5
sS'.O.X...X.'
p3616
F0.5
sS'XOO...X..'
p3617
F0.5
sS'XO.X.OOXX'
p3618
F0.5
sS'OO.XO.XX.'
p3619
F0.5
sS'OX.O.OXXX'
p3620
I1
sS'XOX...XO.'
p3621
F0.5
sS'XO..XO.XO'
p3622
F0.5
sS'OX.XOX..O'
p3623
I0
sS'XOX...XOO'
p3624
F0.5
sS'OO.XO.XXX'
p3625
I1
sS'XO..XO.X.'
p3626
F0.5
sS'XOOXX.XO.'
p3627
I1
sS'OX.O.OXX.'
p3628
F0.5
sS'XOO...X.X'
p3629
F0.5
sS'XO.X.OOX.'
p3630
F0.5
sS'.XOX.X..O'
p3631
F0.5
sS'XX.O.O..X'
p3632
F0.5
sS'XXOO..O.X'
p3633
F0.5
sS'XOXOXOXOX'
p3634
I1
sS'.OOXOX.XX'
p3635
F0.5
sS'OOOXXOX.X'
p3636
I0
sS'XO...XOOX'
p3637
F0.5
sS'.OXXX.OXO'
p3638
F0.5
sS'X.XO.XOXO'
p3639
F0.5
sS'OXOOXXX..'
p3640
F0.5
sS'.X.OO...X'
p3641
F0.5
sS'....XX.O.'
p3642
F0.5
sS'X.OX.OOXX'
p3643
F0.5
sS'....XXOOX'
p3644
F0.5
sS'.X.XOX..O'
p3645
F0.5
sS'....XXOO.'
p3646
F0.5
sS'OX..OO.XX'
p3647
F0.5
sS'OXOOXXX.O'
p3648
F1.0
sS'....XX.OO'
p3649
F0.5
sS'.XOO.X.X.'
p3650
F0.5
sS'...OX.O.X'
p3651
F0.5
sS'O..X.O..X'
p3652
F0.5
sS'...XX.XOO'
p3653
F0.5
sS'X.XO..OX.'
p3654
F0.5
sS'XO.O.XXOX'
p3655
F0.5
sS'OXXXOO.XO'
p3656
I0
sS'OXX....XO'
p3657
F0.5
sS'..XXXOOXO'
p3658
F0.5
sS'XO..XX..O'
p3659
F0.5
sS'OXXXOO.X.'
p3660
F0.5
sS'XO.O.XXO.'
p3661
F0.5
sS'X.XO..OXO'
p3662
F0.5
sS'..XXOXO.O'
p3663
F0.5
sS'..XO.X.O.'
p3664
F0.5
sS'OOOX.XX..'
p3665
I0
sS'.O...X.X.'
p3666
F0.5
sS'..O.XO.X.'
p3667
F0.5
sS'X.O.OX...'
p3668
F0.5
sS'X.X.OO...'
p3669
F0.5
sS'OXXOX...O'
p3670
F0.5
sS'OOX.O..XX'
p3671
F0.5
sS'.XX.O..XO'
p3672
F0.5
sS'.O...X.XO'
p3673
F0.5
sS'X.X.OO..X'
p3674
F0.5
sS'.X...OOX.'
p3675
F0.5
sS'O..OXX.XO'
p3676
F0.5
sS'OXXOX....'
p3677
F0.5
sS'X.O.OX..X'
p3678
F0.5
sS'..O.XO.XX'
p3679
F0.5
sS'..XXOXO..'
p3680
F0.5
sS'XX..O.X.O'
p3681
F0.5
sS'..XO.X.OX'
p3682
I1
sS'..O.O..XX'
p3683
F0.5
sS'X.X.OOX.O'
p3684
F0.5
sS'O.OX.XX.O'
p3685
F0.5
sS'.OOXO.XX.'
p3686
F0.5
sS'O.X...XOX'
p3687
F0.5
sS'..O...XOX'
p3688
F0.5
sS'XO.XOOXX.'
p3689
I1
sS'X.OOO.XXX'
p3690
I1
sS'X...OO.XX'
p3691
F0.5
sS'..X..XOOX'
p3692
I1
sS'OOX.O.XX.'
p3693
F0.5
sS'.X.O.OXX.'
p3694
F0.5
sS'OXO...XX.'
p3695
F0.5
sS'.XX..XOO.'
p3696
F0.5
sS'XOOXOXO.X'
p3697
I0
sS'O..XOOX.X'
p3698
F0.5
sS'XOO...XX.'
p3699
F0.5
sS'O...X.XXO'
p3700
F0.5
sS'OXO...XXO'
p3701
F0.5
sS'..X..XOO.'
p3702
F0.5
sS'X...OO.X.'
p3703
F0.5
sS'.XX..XOOO'
p3704
I0
sS'OOX.O.XXX'
p3705
I1
sS'X.X.OOX..'
p3706
F0.5
sS'O.OX.XX..'
p3707
F0.5
sS'X.OOO.XX.'
p3708
F0.5
sS'.OOXO.XXX'
p3709
I1
sS'O.X...XO.'
p3710
F0.5
sS'...XOO.X.'
p3711
F0.5
sS'O.XO.XX..'
p3712
F0.5
sS'.OXO.XXO.'
p3713
F0.5
sS'X......O.'
p3714
F0.5
sS'O.X.O.X..'
p3715
F0.5
sS'O.OXX.X..'
p3716
F0.5
sS'.X.OX..OX'
p3717
F0.5
sS'XX.OOXO..'
p3718
F0.5
sS'OXOX.OX.X'
p3719
F0.5
sS'.OO.OXXXX'
p3720
I1
sS'.XX.XOXOO'
p3721
I1
sS'.OO.OXXX.'
p3722
F0.5
sS'OXXO.OOXX'
p3723
I0
sS'XX.OOXO.X'
p3724
F0.5
sS'.X.OX..O.'
p3725
F0.5
sS'O..OX.OXX'
p3726
I0
sS'XXOXX..OO'
p3727
F0.5
sS'O.X.O.X.X'
p3728
F0.5
sS'O.XO..XOX'
p3729
F0.5
sS'O.XO.XX.O'
p3730
F0.5
sS'X..O.OOXX'
p3731
F0.5
sS'...XOO.XX'
p3732
F0.5
sS'O.OXX.X.O'
p3733
F0.5
sS'.OXO.XXOX'
p3734
I1
sS'XX.O.X.OO'
p3735
F0.5
sS'X..XX.OO.'
p3736
F0.5
sS'OXXXOXO..'
p3737
F0.5
sS'.XXOOX..O'
p3738
F0.5
sS'O.OXOX.X.'
p3739
F0.5
sS'..O.X.O.X'
p3740
F0.5
sS'XO.XO.X..'
p3741
I1
sS'XXX.OXOO.'
p3742
I1
sS'OX.OX.XO.'
p3743
F0.5
sS'O..X.XXO.'
p3744
F0.5
sS'O.O.OXXX.'
p3745
F0.5
sS'X...OXX.O'
p3746
F0.5
sS'O.O.OXXXX'
p3747
I1
sS'XO...O.XX'
p3748
F0.5
sS'OX.OX.XOX'
p3749
F0.5
sS'O..X.XXOO'
p3750
F0.5
sS'XX.O.X.O.'
p3751
F0.5
sS'X..XX.OOO'
p3752
I0
sS'O.OXOX.XX'
p3753
F0.5
sS'OXXXOXO.O'
p3754
I0
sS'.XXOOX...'
p3755
F0.5
sS'.....XOOX'
p3756
F0.5
sS'OXOXOXOX.'
p3757
I0
sS'XX.OXXOOO'
p3758
I0
sS'XXO.X.O.O'
p3759
F0.5
sS'.OXX.OXXO'
p3760
F0.5
sS'...O.X..X'
p3761
F0.5
sS'OXX.OXOX.'
p3762
F0.5
sS'.O.XXO...'
p3763
F0.5
sS'OO..X..X.'
p3764
F0.5
sS'O.XXO.OX.'
p3765
F0.5
sS'OO.X.XXOX'
p3766
F0.5
sS'XXOOXO...'
p3767
F0.5
sS'..OOOXXXX'
p3768
I1
sS'.XXO..OXO'
p3769
F0.5
sS'OXOX.OXXO'
p3770
I0
sS'.XOX..XOO'
p3771
F0.5
sS'O...O.XXX'
p3772
I1
sS'OXO.OXOXX'
p3773
I0
sS'X.XXOXOO.'
p3774
F0.5
sS'.XX.O.XOO'
p3775
F0.5
sS'...OX.OX.'
p3776
F1.0
sS'.XXO..OX.'
p3777
F0.5
sS'OXOX.OXX.'
p3778
F0.5
sS'.XOX..XO.'
p3779
F0.5
sS'..OOOXXX.'
p3780
F0.5
sS'XXOOXO..X'
p3781
I1
sS'.XOXXXO.O'
p3782
I1
sS'O...O.XX.'
p3783
F0.5
sS'X.XXOXOOO'
p3784
I0
sS'XO.X..O.X'
p3785
F0.5
sS'O.XXO.OXX'
p3786
F0.5
sS'XXO.X.O..'
p3787
F0.5
sS'OO..X..XX'
p3788
F0.5
sS'OO.X.XXO.'
p3789
F0.5
sS'X..XOOXXO'
p3790
I1
sS'OXX.OXOXO'
p3791
I0
sS'..O.....X'
p3792
F0.5
sS'.O.XXO..X'
p3793
F0.5
sS'...O.X...'
p3794
F0.5
sS'......O.X'
p3795
F0.5
sS'...OXXOXO'
p3796
F0.5
sS'XO..O...X'
p3797
F0.5
sS'.O.O.X.X.'
p3798
F0.5
sS'.X...OX.O'
p3799
F0.5
sS'OOXX.OXOX'
p3800
F0.5
sS'O.X.XO.X.'
p3801
F0.5
sS'OXX.X.XOO'
p3802
I1
sS'..OOXXOX.'
p3803
F0.5
sS'.OX...OXX'
p3804
F0.5
sS'OX.XOX.O.'
p3805
F0.5
sS'.OOXXX.OX'
p3806
I1
sS'OX..XXO.O'
p3807
F0.5
sS'XOOOXOXX.'
p3808
F0.5
sS'..OOX.OXX'
p3809
F0.5
sS'XXO...OOX'
p3810
F0.5
sS'OOXXX.X.O'
p3811
I1
sS'OX.XOX.OX'
p3812
F0.5
sS'O.X.XO.XO'
p3813
F0.5
sS'XOOOXOXXX'
p3814
I1
sS'X.OOO.X.X'
p3815
F0.5
sS'.OX...OX.'
p3816
F0.5
sS'..OOXXOXX'
p3817
F0.5
sS'OX..XXO..'
p3818
F0.5
sS'.OXX.XO..'
p3819
F0.5
sS'X.XO.....'
p3820
F0.5
sS'O.O..X..X'
p3821
F0.5
sS'XX..XOXOO'
p3822
F0.5
sS'.OX..OXXO'
p3823
F0.5
sS'OX.OOXXOX'
p3824
F0.5
sS'..X.XOO..'
p3825
F0.5
sS'OXXO.OX..'
p3826
F0.5
sS'...O.O.XX'
p3827
F0.5
sS'.OXOXX.XO'
p3828
F0.5
sS'X.XO..XOO'
p3829
F0.5
sS'..OXXX.O.'
p3830
I1
sS'XO..XOXO.'
p3831
F0.5
sS'OXXXO.OXO'
p3832
I0
sS'..OO.X..X'
p3833
F0.5
sS'XO..XOXOX'
p3834
I1
sS'X.XO..XO.'
p3835
F0.5
sS'XO..XOOXX'
p3836
I1
sS'OXXXO.OX.'
p3837
F0.5
sS'.OX..OXX.'
p3838
F0.5
sS'OXXO.OX.X'
p3839
F0.5
sS'....XO.OX'
p3840
F0.5
sS'OXXOX.X.O'
p3841
I1
sS'.OO.X.XOX'
p3842
F0.5
sS'..X.XOO.X'
p3843
F0.5
sS'OOXXOXOX.'
p3844
F0.5
sS'O..XOXOXX'
p3845
F0.5
sS'XXO..OX..'
p3846
F0.5
sS'.XX..O..O'
p3847
F0.5
sS'XO.O...X.'
p3848
F0.5
sS'..OXX.OX.'
p3849
F0.5
sS'O.XXOXXOO'
p3850
I0
sS'X.XXOX.OO'
p3851
F0.5
sS'.O..X.O.X'
p3852
F0.5
sS'.O.XO.XX.'
p3853
F0.5
sS'.XX..X.OO'
p3854
F0.5
sS'O.XXOXXO.'
p3855
F0.5
sS'.X..O.O.X'
p3856
F0.5
sS'XOOXO.XX.'
p3857
I1
sS'.OX.X.XO.'
p3858
I1
sS'.O.XO.XXO'
p3859
F0.5
sS'XO.O...XX'
p3860
F0.5
sS'XXXOOXO..'
p3861
I1
sS'XXO..OX.O'
p3862
I0
sS'.XX..O...'
p3863
F0.5
sS'.O.X.X.XO'
p3864
F0.5
sS'O..XOXOX.'
p3865
F0.5
sS'..OXX.OXO'
p3866
F0.5
sS'.O..XO..X'
p3867
F0.5
sS'...OXX.OX'
p3868
F0.5
sS'OOO..XXX.'
p3869
I0
sS'.X..X.XOO'
p3870
F0.5
sS'.OOXXOX..'
p3871
F0.5
sS'X.OOOXXX.'
p3872
F0.5
sS'XOOXO..X.'
p3873
F0.5
sS'.X.XXOOXO'
p3874
I1
sS'XOOXO..XX'
p3875
F0.5
sS'X.OOOXXXO'
p3876
F0.5
sS'.OX.OXXXO'
p3877
F0.5
sS'.OOXXOX.X'
p3878
F0.5
sS'.XOOXOXX.'
p3879
I1
sS'XX.OXX.OO'
p3880
F0.5
sS'O.O.XOX.X'
p3881
F0.5
sS'OX.XXOO.X'
p3882
F0.5
sS'...OXX.O.'
p3883
F0.5
sS'.XOX.X.OO'
p3884
F0.5
sS'.XX..OOX.'
p3885
F0.5
sS'OXOOXOX.X'
p3886
F0.5
sS'OX.XXO...'
p3887
F0.5
sS'O.OOXX..X'
p3888
F0.5
sS'O.X.OOXXX'
p3889
I1
sS'...O..XXO'
p3890
F0.5
sS'O.XX.XOXO'
p3891
F0.5
sS'...O..XX.'
p3892
F0.5
sS'O.X.X.X.O'
p3893
I1
sS'.O.XXXXOO'
p3894
I1
sS'.OO.XO.XX'
p3895
F0.5
sS'O.X.OOXX.'
p3896
F0.5
sS'.XX..OOXO'
p3897
F0.5
sS'.XOX.X.O.'
p3898
F0.5
sS'OX.XXO..O'
p3899
F0.5
sS'XOX...OX.'
p3900
F0.5
sS'.OOX.XOX.'
p3901
F0.5
sS'OX.XX.OXO'
p3902
I1
sS'XO...XO.X'
p3903
F0.5
sS'OO.OX..XX'
p3904
F0.5
sS'.O.OXXOXX'
p3905
F0.5
sS'.OOO.XXXX'
p3906
I1
sS'X..OXOX..'
p3907
F0.5
sS'XXOOXOX.O'
p3908
I0
sS'...O...X.'
p3909
F0.5
sS'XXO...O..'
p3910
F0.5
sS'XX.X.O.O.'
p3911
F0.5
sS'OOXX..XOX'
p3912
F0.5
sS'X..O.XXOO'
p3913
F0.5
sS'OOXOXO.XX'
p3914
F0.5
sS'OXO.OXXX.'
p3915
F0.5
sS'XO.O.X.X.'
p3916
F0.5
sS'X..OXOX.O'
p3917
F0.5
sS'OOXX..XO.'
p3918
F0.5
sS'XXOOXOX..'
p3919
F0.5
sS'XX.X.O.OO'
p3920
F0.5
sS'OX.XXX.OO'
p3921
I1
sS'O...XOOXX'
p3922
F0.5
sS'X..O.XXO.'
p3923
F0.5
sS'.OO.OX.XX'
p3924
F0.5
sS'...OX.XXO'
p3925
F0.5
sS'...O...XX'
p3926
F0.5
sS'XXO...O.X'
p3927
F0.5
sS'XOX...OXO'
p3928
F0.5
sS'XOX.O.XO.'
p3929
I0
sS'OOOXOX.XX'
p3930
I0
sS'.O.OXXOX.'
p3931
F0.5
sS'.OOX.XOXX'
p3932
F0.5
sS'X..XXOOO.'
p3933
F0.5
sS'XO...XO..'
p3934
F0.5
sS'.X..OX.O.'
p3935
F0.5
sS'O.OO.XXXX'
p3936
I1
sS'X.XOOO.X.'
p3937
I0
sS'XOXX..OXO'
p3938
F0.5
sS'X....OX.O'
p3939
F0.5
sS'O.XX.....'
p3940
F0.5
sS'OXO..XOXX'
p3941
F0.5
sS'O.XOXXXO.'
p3942
I1
sS'OX..XOXOX'
p3943
F0.5
sS'X..OO.X.X'
p3944
F0.5
sS'X.O.X.O.X'
p3945
I1
sS'X.XXO...O'
p3946
F0.5
sS'XOO.OX.XX'
p3947
F0.5
sS'OXO..XOX.'
p3948
F0.5
sS'OX..XOXO.'
p3949
F0.5
sS'X.....OOX'
p3950
F0.5
sS'X..X.XO.O'
p3951
F0.5
sS'XOX.OO..X'
p3952
F0.5
sS'X....OX..'
p3953
F0.5
sS'O.XX....O'
p3954
F0.5
sS'O..OXO.XX'
p3955
F0.5
sS'...O.XXXO'
p3956
F0.5
sS'XXO.O.XXO'
p3957
F0.5
sS'XOO..XXO.'
p3958
F0.5
sS'OX.X..X.O'
p3959
F0.5
sS'..O.X..XO'
p3960
F0.5
sS'.O....X..'
p3961
F0.5
sS'..X.XXOO.'
p3962
F0.5
sS'..OOXXXO.'
p3963
F0.5
sS'.X.O.X.O.'
p3964
F0.5
sS'O....XO.X'
p3965
F0.5
sS'OXXOX.O..'
p3966
I0
sS'X.XX.O..O'
p3967
F0.5
sS'.X.O.X.OX'
p3968
F0.5
sS'..OOXXXOX'
p3969
F0.5
sS'..X.XXOOO'
p3970
I0
sS'.XXXO.XOO'
p3971
F0.5
sS'OX...O.X.'
p3972
F0.5
sS'.O....X.X'
p3973
F0.5
sS'OXXX....O'
p3974
F0.5
sS'..O.X..X.'
p3975
F0.5
sS'XOO..XXOX'
p3976
F0.5
sS'OO.X..X.X'
p3977
F0.5
sS'...X..O..'
p3978
F0.5
sS'.XX.OX..O'
p3979
F0.5
sS'XX..OO.OX'
p3980
F0.5
sS'.O..X..XO'
p3981
F0.5
sS'X.O.XXOXO'
p3982
F0.5
sS'..XXX..OO'
p3983
F0.5
sS'X..OXOXXO'
p3984
F0.5
sS'.OXXO.OXX'
p3985
F0.5
sS'.XOX.OO.X'
p3986
F0.5
sS'OXX.OOOXX'
p3987
F0.5
sS'..X.OOXXO'
p3988
F0.5
sS'OXOXOXX.O'
p3989
I0
sS'X.O..O.X.'
p3990
F0.5
sS'..OXXO.OX'
p3991
F1.0
sS'.XO..OOXX'
p3992
F0.5
sS'.....XOX.'
p3993
F0.5
sS'X.O..O.XX'
p3994
F0.5
sS'..X.OOXX.'
p3995
F0.5
sS'O.O.XO.XX'
p3996
F0.5
sS'X.OXX.O..'
p3997
F0.5
sS'.OXXO.OX.'
p3998
F0.5
sS'.O..X..X.'
p3999
F0.5
sS'OO.X..X..'
p4000
F0.5
sS'...X..O.X'
p4001
F0.5
sS'X.......O'
p4002
F0.5
sS'X..O.O..X'
p4003
F0.5
sS'OXXXXOO..'
p4004
F0.5
sS'O.XO.O.XX'
p4005
F0.5
sS'.X..O..X.'
p4006
F0.5
sS'.O..XXXO.'
p4007
F0.5
sS'XO.XX...O'
p4008
F0.5
sS'OOXOXXX..'
p4009
I1
sS'...XOOXX.'
p4010
F0.5
sS'.XXO..XO.'
p4011
F0.5
sS'...XOOXXO'
p4012
F0.5
sS'O.....XXO'
p4013
F0.5
sS'.XXO..XOO'
p4014
F0.5
sS'.O.OX.XOX'
p4015
F0.5
sS'X........'
p4016
F0.5
sS'OOXXXX.O.'
p4017
I1
sS'OXXXXOO.O'
p4018
F1.0
sS'OXX.O....'
p4019
F0.5
sS'O.XO..X..'
p4020
F0.5
sS'.O..XXXOO'
p4021
F0.5
sS'XOOXX.X.O'
p4022
I1
sS'.O.O...XX'
p4023
F0.5
sS'OO.OX.XXX'
p4024
I1
sS'XOOXXOOX.'
p4025
F0.5
sS'OXXXOXOOX'
p4026
I1
sS'XXO..XXOO'
p4027
F0.5
sS'O..XXX..O'
p4028
I1
sS'.X.OOXXO.'
p4029
F0.5
sS'.XOXOOOXX'
p4030
I0
sS'.XOX..OOX'
p4031
F0.5
sS'XO.XOOX.X'
p4032
I1
sS'XXOXO..XO'
p4033
F0.5
sS'X.OO.X.OX'
p4034
F0.5
sS'.X.OOXXOX'
p4035
F0.5
sS'OXXXOXOO.'
p4036
F0.5
sS'OO.OX.XX.'
p4037
F0.5
sS'.X.OXOOXX'
p4038
I1
sS'X.O..X.XO'
p4039
F0.5
sS'X.OXOXXO.'
p4040
I1
sS'O...X..OX'
p4041
F0.5
sS'.X.XXO.OO'
p4042
F0.5
sS'..OXOXXO.'
p4043
F0.5
sS'...O.X.X.'
p4044
F0.5
sS'OO.OXX.XX'
p4045
F0.5
sS'X.OX.XO.O'
p4046
F0.5
sS'.XXOXXOO.'
p4047
F0.5
sS'OOO.XXXXO'
p4048
I0
sS'X.OX.XO..'
p4049
F0.5
sS'OXX..XOXO'
p4050
F0.5
sS'.XXOX.OXO'
p4051
I1
sS'.OXXOOOXX'
p4052
F0.5
sS'OO.OXX.X.'
p4053
F0.5
sS'..OXOXXOX'
p4054
F0.5
sS'.X.XXO.O.'
p4055
F0.5
sS'...O.X.XO'
p4056
F0.5
sS'X..XO.OOX'
p4057
F0.5
sS'OXXX.XOOO'
p4058
I0
sS'OOX.XX.OX'
p4059
I1
sS'.X.X.XOO.'
p4060
F0.5
sS'XOXO.X.OX'
p4061
I1
sS'.X.XOXOO.'
p4062
F0.5
sS'OO.OXXXX.'
p4063
F9.00719925474095e-19
sS'XOX.OX.O.'
p4064
I0
sS'OO.XX...X'
p4065
F0.5
sS'OO.XX....'
p4066
F0.5
sS'OO..XX.OX'
p4067
F0.5
sS'OO.OXXXXO'
p4068
F0.5
sS'XX.OOOOXX'
p4069
I0
sS'.X.XOXOOX'
p4070
F0.5
sS'XOX..OO.X'
p4071
F0.5
sS'OOX.XX.O.'
p4072
F0.5
sS'OXXX.XOO.'
p4073
F0.5
sS'XX.X.OOXO'
p4074
F0.5
sS'.X.X.XOOO'
p4075
I0
sS'.....XX.O'
p4076
F0.5
sS'X..XO..O.'
p4077
F0.5
sS'O.XX..OX.'
p4078
F0.5
sS'O.X.XXOO.'
p4079
F0.5
sS'.OX.O.OXX'
p4080
F0.5
sS'OX.OXX.O.'
p4081
F0.5
sS'.X.O.XOOX'
p4082
F0.5
sS'XX.OX.OOX'
p4083
I1
sS'X.OX.XXOO'
p4084
I1
sS'OOXXXXOOX'
p4085
I1
sS'OX.OXX.OX'
p4086
F0.5
sS'XX.OX.OO.'
p4087
F0.5
sS'.OOXOX..X'
p4088
F0.5
sS'.XO.XXXOO'
p4089
F0.5
sS'X..XO..OX'
p4090
F0.5
sS'XOX...X.O'
p4091
F0.5
sS'O.X.XXOOX'
p4092
I1
sS'XOO.XXOX.'
p4093
F0.5
sS'.OXXX.XOO'
p4094
I1
sS'...XXXOO.'
p4095
I1
sS'.XX.XO..O'
p4096
F0.5
sS'..XXOXOXO'
p4097
F0.5
sS'XOX.OXX.O'
p4098
F0.5
sS'.XXOX..O.'
p4099
F0.5
sS'O.X..XO..'
p4100
F0.5
sS'XOXOX.O..'
p4101
F0.5
sS'.XXOX..OO'
p4102
F0.5
sS'X...OXOOX'
p4103
F0.5
sS'XOXOX.O.X'
p4104
I1
sS'O.X..XO.X'
p4105
I1
sS'X.O..XO..'
p4106
F0.5
sS'X.X..OXO.'
p4107
F0.5
sS'X.OO..XXO'
p4108
F0.5
sS'.OOXX..OX'
p4109
F0.5
sS'.XOXXOXOO'
p4110
I0
sS'.OXXOX...'
p4111
F0.5
sS'X.O.XXXOO'
p4112
F0.5
sS'XOO.OXXOX'
p4113
I0
sS'O.X..OOXX'
p4114
F0.5
sS'..XXOOOX.'
p4115
F0.5
sS'.XOXXOXO.'
p4116
F0.5
sS'X..OXOOX.'
p4117
F0.5
sS'.OXXOX..O'
p4118
F0.5
sS'X.X..OXOO'
p4119
F0.5
sS'X.OO..XX.'
p4120
F0.5
sS'.OXXO.XO.'
p4121
I0
sS'XOXX.OXO.'
p4122
I1
sS'.X.OXO..X'
p4123
F0.5
sS'OOX.X.OXX'
p4124
F0.5
sS'.O.X.X..O'
p4125
F0.5
sS'XXXOX..OO'
p4126
I1
sS'XO.O.X..X'
p4127
F0.5
sS'.XX.OOOX.'
p4128
F0.5
sS'XX.O.OXOX'
p4129
F0.5
sS'.OO.XXO.X'
p4130
F0.5
sS'.O.X.X...'
p4131
F0.5
sS'XX.O.OXO.'
p4132
F0.5
sS'.XX.OOOXX'
p4133
F0.5
sS'XO.O.X...'
p4134
F0.5
sS'.X.OXO...'
p4135
F0.5
sS'O.OXXXOX.'
p4136
I1
sS'OXXX.X.OO'
p4137
F0.5
sS'OOX.X.OX.'
p4138
F0.5
sS'XOXOOXXXO'
p4139
F0.5
sS'OXO.OX.XX'
p4140
F0.5
sS'.....X...'
p4141
F0.5
sS'OOXX...X.'
p4142
F0.5
sS'XOXO.....'
p4143
F0.5
sS'...OX..XO'
p4144
F0.5
sS'X...OOXXO'
p4145
F0.5
sS'.OOXOXX..'
p4146
F0.5
sS'X..XXOO.O'
p4147
F0.5
sS'OXXO.XX.O'
p4148
F0.5
sS'.X.XOOO.X'
p4149
F0.5
sS'X...OOXX.'
p4150
F0.5
sS'.OX.XX..O'
p4151
F0.5
sS'X..XXOO..'
p4152
F0.5
sS'XOXO....X'
p4153
F0.5
sS'.....X..O'
p4154
F0.5
sS'X..OXOOXX'
p4155
I1
sS'OOXX...XO'
p4156
F0.5
sS'.XX..XO.O'
p4157
F0.5
sS'OXXXO.OOX'
p4158
F0.5
sS'OXO.OX.X.'
p4159
F0.5
sS'XX.OO..OX'
p4160
F0.5
sS'.OXX.OO.X'
p4161
F0.5
sS'..XOX..O.'
p4162
F0.5
sS'.X.XX.O.O'
p4163
F0.5
sS'X..X.OO.X'
p4164
F0.5
sS'X....OXOX'
p4165
F0.5
sS'XOXXOOX..'
p4166
I1
sS'.XXO.OX.O'
p4167
F0.5
sS'OOXX.X..O'
p4168
F0.5
sS'OXXX..OOX'
p4169
F0.5
sS'.XXXOOOX.'
p4170
F0.5
sS'XOO..X...'
p4171
F0.5
sS'XOO..X..X'
p4172
F0.5
sS'.XXO.OX..'
p4173
F0.5
sS'OOXX.X...'
p4174
F0.5
sS'.XXXOOOXO'
p4175
F0.5
sS'X....OXO.'
p4176
F0.5
sS'OXXX..OO.'
p4177
F0.5
sS'X..X.OO..'
p4178
F0.5
sS'..XOX..OX'
p4179
F0.5
sS'O.XXXOX.O'
p4180
I1
sS'.X.XOO.XO'
p4181
F0.5
sS'OXO..O.XX'
p4182
F0.5
sS'XOO..XX.O'
p4183
F0.5
sS'.XXXO.O.O'
p4184
F0.5
sS'OO..X.OXX'
p4185
F0.5
sS'XX...X.OO'
p4186
F0.5
sS'OX.OO.X.X'
p4187
F0.5
sS'X...X...O'
p4188
F0.5
sS'XXX..OOXO'
p4189
I1
sS'OO..OXXX.'
p4190
F0.5
sS'.OX..X.OX'
p4191
I1
sS'XOOX..XXO'
p4192
I1
sS'X.XO.O.OX'
p4193
F0.5
sS'OX.XOOXOX'
p4194
F0.5
sS'.OX..X.O.'
p4195
F0.5
sS'OO..OXXXX'
p4196
I1
sS'XOOX.O..X'
p4197
F0.5
sS'XOO..XX..'
p4198
F0.5
sS'.XXXO.O..'
p4199
F0.5
sS'XX...XOO.'
p4200
F0.5
sS'.X.OXOX..'
p4201
F0.5
sS'XX..OO..X'
p4202
F0.5
sS'.XXOOOXXO'
p4203
I0
sS'.XOXXXOO.'
p4204
I1
sS'XXOX...OO'
p4205
F0.5
sS'OXOX.X.OX'
p4206
F0.5
sS'...X..OOX'
p4207
F0.5
sS'XX..OX.O.'
p4208
F0.5
sS'.XOXOXXOO'
p4209
F0.5
sS'XXOX..OO.'
p4210
F0.5
sS'.XXOXOOOX'
p4211
F0.5
sS'X..O.....'
p4212
F0.5
sS'.XO.X.XO.'
p4213
F0.5
sS'X.OXX.XOO'
p4214
I1
sS'OOX.OXXXO'
p4215
I0
sS'XXOXOX..O'
p4216
F0.5
sS'.X.OO.X..'
p4217
F0.5
sS'OOXXO.X..'
p4218
F0.5
sS'.XOXOXXO.'
p4219
F0.5
sS'.X.OO.X.X'
p4220
F0.5
sS'.XOXOOXOX'
p4221
F0.5
sS'.XO.X.XOO'
p4222
F0.5
sS'OOX.X.O.X'
p4223
F0.5
sS'X..O....X'
p4224
F0.5
sS'XXOX..OOX'
p4225
F0.5
sS'XX...XOOO'
p4226
I0
sS'OXOX.X.O.'
p4227
F0.5
sS'.X.OXOX.O'
p4228
F0.5
sS'.XX.XOOXO'
p4229
I1
sS'XX..OO...'
p4230
F0.5
sS'XXOX...O.'
p4231
F0.5
sS'XX..OX.OO'
p4232
F0.5
sS'OXXOXOXOX'
p4233
I1
sS'OOX.OX.XX'
p4234
I1
sS'OXXXXOOOX'
p4235
F0.5
sS'.O....XXO'
p4236
F0.5
sS'.O..X.XO.'
p4237
F0.5
sS'.X.OO..XX'
p4238
F0.5
sS'O..OOXX.X'
p4239
F0.5
sS'O.X.XO..X'
p4240
F0.5
sS'XOXX.O...'
p4241
F0.5
sS'.O....XX.'
p4242
F0.5
sS'O.X.XO...'
p4243
F1.0
sS'OXXX..XOO'
p4244
F0.5
sS'.XOX..X.O'
p4245
F0.5
sS'.X.XOOXXO'
p4246
F0.5
sS'XOO.X.XXO'
p4247
F0.5
sS'.O..X.XOX'
p4248
F0.5
sS'XOXX.O..O'
p4249
F0.5
sS'.O.XO...X'
p4250
F0.5
sS'.XX.O.X.O'
p4251
F0.5
sS'XX.O...XO'
p4252
F0.5
sS'..OXOX.X.'
p4253
F0.5
sS'...X.O...'
p4254
F0.5
sS'OXXXXOOO.'
p4255
F0.5
sS'OO.XX.XXO'
p4256
F0.5
sS'OOX.OX.X.'
p4257
F0.5
sS'XO..XXXOO'
p4258
F0.5
sS'.XOX....O'
p4259
F0.5
sS'X..OOOXX.'
p4260
I0
sS'..XXOOXOX'
p4261
F0.5
sS'XO.OO..XX'
p4262
F0.5
sS'OOX...XOX'
p4263
F0.5
sS'X.XXXO.OO'
p4264
F0.5
sS'..X.O.XXO'
p4265
F0.5
sS'OXO.X..OX'
p4266
F0.5
sS'..XXOOXO.'
p4267
F0.5
sS'OXXOXXXOO'
p4268
I1
sS'X.XO...XO'
p4269
F0.5
sS'.XOX.....'
p4270
F0.5
sS'..O.X.XXO'
p4271
F0.5
sS'OXXOX.XO.'
p4272
I1
sS'XXO..OXOX'
p4273
F0.5
sS'OX.O..X..'
p4274
F0.5
sS'XXXO.O.XO'
p4275
I1
sS'O.XOX..X.'
p4276
F0.5
sS'OXOXXX.O.'
p4277
I1
sS'XXOOXXO.O'
p4278
F0.5
sS'OO.X..XX.'
p4279
F0.5
sS'OXXX.OXOO'
p4280
F0.5
sS'.XX.OOXO.'
p4281
F0.5
sS'.XX.OOXOX'
p4282
F0.5
sS'XXOOXXO..'
p4283
F0.5
sS'OO.X..XXO'
p4284
F0.5
sS'..XXOOX..'
p4285
F0.5
sS'OXXX.OXO.'
p4286
F0.5
sS'XXXXOOOXO'
p4287
I1
sS'OX.O..X.X'
p4288
F0.5
sS'XOOX.XXO.'
p4289
I1
sS'.OOO.XXX.'
p4290
F0.5
sS'XXO..OXO.'
p4291
F0.5
sS'O.XOX..XO'
p4292
F0.5
sS'X.OO.XO.X'
p4293
F0.5
sS'.O.O..XX.'
p4294
F0.5
sS'..O..OX.X'
p4295
F0.5
sS'X.OXOX.XO'
p4296
F0.5
sS'..O..XXO.'
p4297
F0.5
sS'OXXO...X.'
p4298
F0.5
sS'.OO.XOXX.'
p4299
F0.5
sS'X.OO.XXOX'
p4300
F0.5
sS'O.X.OO.XX'
p4301
F0.5
sS'XOXX.O.XO'
p4302
F0.5
sS'..X.OX.O.'
p4303
F0.5
sS'XXOO..OXX'
p4304
F0.5
sS'.XOOX.O.X'
p4305
F0.5
sS'.OXO..X..'
p4306
F0.5
sS'.OXO..X.X'
p4307
F0.5
sS'XXOO..OX.'
p4308
F0.5
sS'..X.OX.OX'
p4309
I1
sS'.OO.XOXXX'
p4310
I1
sS'..O..XXOX'
p4311
F0.5
sS'.OX.X.X.O'
p4312
I1
sS'OX.OXXOOX'
p4313
I0
sS'.O.O..XXX'
p4314
I1
sS'OXXO...XO'
p4315
F0.5
sS'..OX..XO.'
p4316
F0.5
sS'...X.X.O.'
p4317
F0.5
sS'.OO.X.XX.'
p4318
F0.5
sS'X.O.OOXX.'
p4319
F0.5
sS'X...O.XXO'
p4320
F0.5
sS'XO.XOXX.O'
p4321
I1
sS'X.O.OOXXX'
p4322
I1
sS'OXO..X...'
p4323
F0.5
sS'O..OXXOX.'
p4324
I0
sS'O.XX..OOX'
p4325
F0.5
sS'.XXX.OOOX'
p4326
F0.5
sS'..OX..XOX'
p4327
F0.5
sS'...X.X.OO'
p4328
F0.5
sS'.OO.X.XXO'
p4329
F0.5
sS'.X.OXX.O.'
p4330
F0.5
sS'OO.XOX.X.'
p4331
F0.5
sS'X.XO.XOOX'
p4332
I1
sS'.OOX.XX.O'
p4333
F0.5
sS'XOOOOX.XX'
p4334
F0.5
sS'.X.XO.OOX'
p4335
F0.5
sS'..XO.XOX.'
p4336
F0.5
sS'.XX.XO.OO'
p4337
F0.5
sS'.OX.XO.X.'
p4338
F0.5
sS'XXOOO.XOX'
p4339
F0.5
sS'X.XXOOOX.'
p4340
F0.5
sS'.XOX...XO'
p4341
F0.5
sS'.OOXX.XXO'
p4342
F0.5
sS'X.XXOOXO.'
p4343
I1
sS'X.OX.XOXO'
p4344
F0.5
sS'OX.O.XXXO'
p4345
F0.5
sS'XX.X.O..O'
p4346
F0.5
sS'OO.XOX.XX'
p4347
F0.5
sS'.OOX.XX..'
p4348
F0.5
sS'..XO.XOXO'
p4349
F0.5
sS'.XX.XO.O.'
p4350
F0.5
sS'X.XO.XOO.'
p4351
F0.5
sS'OO.XX..X.'
p4352
F0.5
sS'.X.OOXO.X'
p4353
F0.5
sS'XX.O..OX.'
p4354
F0.5
sS'X.O.OXXO.'
p4355
F0.5
sS'...OO.XX.'
p4356
F0.5
sS'X..OXXO..'
p4357
F0.5
sS'X.XO.X.O.'
p4358
F0.5
sS'O.OXXOXXO'
p4359
I0
sS'O..XOO.XX'
p4360
F0.5
sS'XO...O..X'
p4361
F0.5
sS'XXX.OOO.X'
p4362
I1
sS'.OXXO.X.O'
p4363
F0.5
sS'O.X.XOOXX'
p4364
F0.5
sS'OXOOX.XX.'
p4365
I1
sS'O.X.XOOX.'
p4366
F0.5
sS'.OXXO.X..'
p4367
F0.5
sS'...XX.OO.'
p4368
F1.0
sS'OO.XX..XO'
p4369
F0.5
sS'X..O.XX.O'
p4370
F0.5
sS'.OX.XO.XO'
p4371
F0.5
sS'X..OXXO.O'
p4372
F0.5
sS'.XXO.O.XO'
p4373
F0.5
sS'X.O.OXXOX'
p4374
F0.5
sS'OOO.XXX..'
p4375
I0
sS'...OOXOXX'
p4376
F0.5
sS'XOXX.OX.O'
p4377
I1
sS'..XO..OXX'
p4378
F0.5
sS'..OXXOX.O'
p4379
I0
sS'.X.O.X...'
p4380
F0.5
sS'OXX..O.X.'
p4381
F0.5
sS'O..XX..O.'
p4382
F1.0
sS'OO.XOXXOX'
p4383
I0
sS'O...XOX..'
p4384
F0.5
sS'XXOO.XOX.'
p4385
F0.5
sS'O....XXOX'
p4386
F0.5
sS'....X..XO'
p4387
F0.5
sS'.OOOXXXXO'
p4388
F0.5
sS'OO.XXX.XO'
p4389
I1
sS'XXOO.XOXO'
p4390
F0.5
sS'.XOOX.XXO'
p4391
I1
sS'XOXO.O..X'
p4392
F0.5
sS'O...XOX.X'
p4393
F0.5
sS'X..OO.XOX'
p4394
F0.5
sS'O....XXO.'
p4395
F0.5
sS'.OOOXXXX.'
p4396
F0.5
sS'XXOXOOO.X'
p4397
I0
sS'O..XX..OX'
p4398
F0.5
sS'..XO..OX.'
p4399
F0.5
sS'.X.O.X..O'
p4400
F0.5
sS'OXX..O.XO'
p4401
F0.5
sS'O.OXOX..X'
p4402
F0.5
sS'.XXO.O.X.'
p4403
F0.5
sS'XOOXOXOX.'
p4404
I0
sS'O.XXXX.OO'
p4405
I1
sS'.O..OXXOX'
p4406
I0
sS'.XOXO.X.O'
p4407
F0.5
sS'O...O.X.X'
p4408
F0.5
sS'...OX.XO.'
p4409
F1.0
sS'...OX.XOX'
p4410
F0.5
sS'..XX....O'
p4411
F0.5
sS'OXOXX....'
p4412
F0.5
sS'O.O.OXX.X'
p4413
F0.5
sS'XX.XOO.O.'
p4414
F0.5
sS'OOO.XXOXX'
p4415
I0
sS'OXXO..O.X'
p4416
I0
sS'.X..OX.XO'
p4417
F0.5
sS'...XX.OOX'
p4418
F0.5
sS'...O.XXO.'
p4419
F0.5
sS'XX.OO...X'
p4420
F0.5
sS'...XOOX.X'
p4421
F0.5
sS'OX.XO.OX.'
p4422
F0.5
sS'OXOOOXXXX'
p4423
I1
sS'OX.XO.OXX'
p4424
F0.5
sS'...XOOX..'
p4425
F0.5
sS'OXOOOXXX.'
p4426
F0.5
sS'XX.OO....'
p4427
F0.5
sS'OXOXX...O'
p4428
F0.5
sS'.OOXX.O.X'
p4429
F0.5
sS'...O.XXOX'
p4430
F0.5
sS'..XXOXXOO'
p4431
F0.5
sS'XXXO....O'
p4432
I1
sS'XX.XOO.OX'
p4433
F0.5
sS'.XXO..X.O'
p4434
F0.5
sS'OO.X.OXXX'
p4435
I1
sS'.XXX..OO.'
p4436
F0.5
sS'XXX.OOOX.'
p4437
I1
sS'X..XOXOOX'
p4438
F0.5
sS'O...XOXXO'
p4439
F0.5
sS'XO.O..XOX'
p4440
F0.5
sS'.OXX.O...'
p4441
F0.5
sS'XXOO..XOX'
p4442
F0.5
sS'OXXX..O..'
p4443
F0.5
sS'..OOXX.OX'
p4444
F0.5
sS'OXO.XXOOX'
p4445
F0.5
sS'OXOXOXO.X'
p4446
I0
sS'.X.O.OOXX'
p4447
F0.5
sS'XXOO..XO.'
p4448
F0.5
sS'OXXX..O.O'
p4449
F0.5
sS'.OXX.O..X'
p4450
F0.5
sS'X..XOXOO.'
p4451
F0.5
sS'OO.X.OXX.'
p4452
F0.5
sS'X.X.OOXOX'
p4453
F0.5
sS'.XO.O.XOX'
p4454
F0.5
sS'O...XOXX.'
p4455
F0.5
sS'.O..XO.XX'
p4456
F0.5
sS'X..XOX.O.'
p4457
F0.5
sS'XXXOO.OX.'
p4458
I1
sS'.OXX..OXO'
p4459
F0.5
sS'.X.O..X.O'
p4460
F0.5
sS'OXOX.X..O'
p4461
F0.5
sS'OXXXO..OX'
p4462
F0.5
sS'XOO.XXO.X'
p4463
I1
sS'.X.O..X..'
p4464
F0.5
sS'OXXXO..O.'
p4465
F0.5
sS'OXOX.X...'
p4466
F0.5
sS'X..XOX.OO'
p4467
F0.5
sS'...OO.XXX'
p4468
I1
sS'.OXX..OX.'
p4469
F0.5
sS'OO.OX.X.X'
p4470
F0.5
sS'.O..XO.X.'
p4471
F0.5
sS'.......X.'
p4472
F0.5
sS'.XX.....O'
p4473
F0.5
sS'.OXXO....'
p4474
F0.5
sS'XO....XXO'
p4475
F0.5
sS'.X.OXXOO.'
p4476
F0.5
sS'X.XO.X.OO'
p4477
F0.5
sS'O.OXXOXX.'
p4478
F0.5
sS'.X.OXXOOX'
p4479
F0.5
sS'.XXO.OXXO'
p4480
F0.5
sS'.OXXO...X'
p4481
F0.5
sS'OOOXX.OXX'
p4482
I0
sS'XX...OXO.'
p4483
F0.5
sS'O.XX.X.O.'
p4484
F0.5
sS'.XXOOXO..'
p4485
F0.5
sS'OOXXXXO..'
p4486
I1
sS'XX..O.OOX'
p4487
F0.5
sS'O.OOX.XX.'
p4488
F0.5
sS'O..X.XX.O'
p4489
F0.5
sS'XO.X....O'
p4490
F0.5
sS'XO.XO..X.'
p4491
F0.5
sS'X.OO.X.X.'
p4492
F0.5
sS'OOXXXO.X.'
p4493
F0.5
sS'.XOOOXXX.'
p4494
F0.5
sS'XO.X.....'
p4495
F0.5
sS'O.OOX.XXX'
p4496
I1
sS'XO.XO..XO'
p4497
F0.5
sS'X.OO.X.XO'
p4498
F0.5
sS'.XXOOXO.X'
p4499
I1
sS'XX...OXOO'
p4500
F0.5
sS'.O.X...OX'
p4501
F0.5
sS'O.XX.X.OO'
p4502
F0.5
sS'OO.XXXX.O'
p4503
I1
sS'XX.O....O'
p4504
F0.5
sS'.XXOOO.X.'
p4505
I0
sS'XOOX.XX.O'
p4506
I1
sS'X.XOO.XXO'
p4507
F0.5
sS'.X..O.OXX'
p4508
F0.5
sS'.XO....X.'
p4509
F0.5
sS'.OO.XX.OX'
p4510
F0.5
sS'XOO.XOXX.'
p4511
F0.5
sS'OOX...X..'
p4512
F0.5
sS'OOX...X.X'
p4513
F0.5
sS'XX..O..XO'
p4514
F0.5
sS'.XO....XO'
p4515
F0.5
sS'.OX..XX.O'
p4516
F0.5
sS'XXO.X...O'
p4517
F0.5
sS'XOO.XOXXO'
p4518
I0
sS'XX.O.....'
p4519
F0.5
sS'..OXX.OOX'
p4520
F0.5
sS'X.XOX..OO'
p4521
F0.5
sS'X.OXXXOO.'
p4522
I1
sS'O.OOX..XX'
p4523
F0.5
sS'.....OXX.'
p4524
F0.5
sS'X.X..OX.O'
p4525
F0.5
sS'.OXXOX.O.'
p4526
I0
sS'X.OOXX.O.'
p4527
F0.5
sS'X.XX..OO.'
p4528
F0.5
sS'OX.O.XX.O'
p4529
F0.5
sS'OXX....OX'
p4530
F0.5
sS'XOXO.OXOX'
p4531
F0.5
sS'XOXXO.O..'
p4532
F0.5
sS'X.OXXO.O.'
p4533
F0.5
sS'.X..XOO.X'
p4534
F0.5
sS'XOXXO.O.X'
p4535
F0.5
sS'X.XX..OOO'
p4536
I0
sS'.X..XOO..'
p4537
F0.5
sS'X.OXXO.OX'
p4538
I1
sS'X.OOXX.OX'
p4539
I1
sS'OXX....O.'
p4540
F0.5
sS'X..XXOXOO'
p4541
I1
sS'.....OXXO'
p4542
F0.5
sS'OXO.XO..X'
p4543
F0.5
sS'..XOX.O.X'
p4544
F0.5
sS'..O..XOXX'
p4545
F0.5
sS'...X.X..O'
p4546
F0.5
sS'..X.XO...'
p4547
F0.5
sS'XO..X.X.O'
p4548
F0.5
sS'OXO.XX.OX'
p4549
F0.5
sS'XOX......'
p4550
F0.5
sS'.XOXOX.XO'
p4551
F0.5
sS'O.XXOOXXO'
p4552
I0
sS'XOX.OXO..'
p4553
F0.5
sS'XO.OXXO..'
p4554
F0.5
sS'OX....OXX'
p4555
F0.5
sS'.OOXX.X.O'
p4556
F0.5
sS'..X.XO..O'
p4557
F1.0
sS'XO.OXXO.X'
p4558
I1
sS'XOX.OXO.X'
p4559
I1
sS'.X..X.OOX'
p4560
F0.5
sS'XOX.....O'
p4561
F0.5
sS'OX....OX.'
p4562
F0.5
sS'O.XXOOXX.'
p4563
F0.5
sS'XXOOX.OX.'
p4564
I1
sS'OXO.XX.O.'
p4565
F1.0
sS'.OOXX.X..'
p4566
F0.5
sS'.XXXOOX.O'
p4567
F0.5
sS'..XOX.O..'
p4568
F0.5
sS'..O..XOX.'
p4569
F0.5
sS'O.X.XXOXO'
p4570
F0.5
sS'XOX.XOO..'
p4571
F0.5
sS'.O..X...X'
p4572
F0.5
sS'.XOXO..X.'
p4573
F0.5
sS'O.OXOXXX.'
p4574
F0.5
sS'X.X...O..'
p4575
F0.5
sS'X.OXOX...'
p4576
F0.5
sS'.X..XOXO.'
p4577
F0.5
sS'....XX..O'
p4578
F0.5
sS'.X.XO.O.X'
p4579
F0.5
sS'.XO.X..XO'
p4580
I1
sS'X.X...O.O'
p4581
F0.5
sS'XO.O.X.OX'
p4582
F0.5
sS'.X..XOXOO'
p4583
F0.5
sS'OXOOXXXO.'
p4584
F0.5
sS'.XOOXXOX.'
p4585
I1
sS'XXO.OO.X.'
p4586
F0.5
sS'.O..X....'
p4587
F0.5
sS'.X.X....O'
p4588
F0.5
sS'.XOXO..XO'
p4589
F0.5
sS'XOX.XOO.X'
p4590
I1
sS'O.OXOXXXO'
p4591
I0
sS'X.O.OXX.O'
p4592
F0.5
sS'XX.OO.OXX'
p4593
F0.5
sS'.XOOOXXXO'
p4594
F0.5
sS'OO..X.XX.'
p4595
F0.5
sS'...OX....'
p4596
F0.5
sS'..OXXOX..'
p4597
F0.5
sS'X..OX..XO'
p4598
F0.5
sS'OXO.X.XXO'
p4599
I1
sS'O.OX.XO.X'
p4600
F0.5
sS'OO..OX.XX'
p4601
F0.5
sS'OOXXXOX..'
p4602
I1
sS'X.O.OXX..'
p4603
F0.5
sS'OXO.OX..X'
p4604
F0.5
sS'XX.OO.OX.'
p4605
F0.5
sS'OOX.X..OX'
p4606
F0.5
sS'OO..X.XXO'
p4607
F0.5
sS'XO.OO.X.X'
p4608
F0.5
sS'OXXOXXO.O'
p4609
I0
sS'....OOX.X'
p4610
F0.5
sS'XO.O.XX.O'
p4611
F0.5
sS'..XO.OX..'
p4612
F0.5
sS'XXOXOXXOO'
p4613
I1
sS'O..OX.X.X'
p4614
F0.5
sS'XXOXO...O'
p4615
F0.5
sS'OOXX.X.O.'
p4616
F0.5
sS'X.O......'
p4617
F0.5
sS'XXX.OOXO.'
p4618
I1
sS'OX.XO.X..'
p4619
F0.5
sS'X..XOO.XO'
p4620
F0.5
sS'XO..XO..X'
p4621
I1
sS'.XO..OXOX'
p4622
F0.5
sS'XXOXO....'
p4623
F0.5
sS'XO..XO...'
p4624
F0.5
sS'OX.XO.X.O'
p4625
I0
sS'OX.OX.XXO'
p4626
I1
sS'XOO.XXX.O'
p4627
F0.5
sS'X..XOO.X.'
p4628
F0.5
sS'OOXX.X.OX'
p4629
I1
sS'..XO.OX.X'
p4630
F0.5
sS'O..OX.X..'
p4631
F1.0
sS'XO.O.XX..'
p4632
F0.5
sS'XO.XX.XOO'
p4633
I1
sS'OX.OO.XX.'
p4634
F0.5
sS'..XX.XOO.'
p4635
F0.5
sS'O..XO.OXX'
p4636
F0.5
sS'.XOXOOX..'
p4637
F0.5
sS'OX..OXXO.'
p4638
F0.5
sS'XXOXO.OXO'
p4639
I0
sS'XXOOOX...'
p4640
F0.5
sS'O.XX.XOO.'
p4641
F0.5
sS'O.XX.XOOX'
p4642
I1
sS'XXOOOX..X'
p4643
F0.5
sS'OX..OXXOX'
p4644
F0.5
sS'.OX..OOXX'
p4645
F0.5
sS'.XOXOOX.X'
p4646
F0.5
sS'OX.OO.XXX'
p4647
I1
sS'O.XXOXOXO'
p4648
I0
sS'.XXO.OO.X'
p4649
F0.5
sS'.O..X.X..'
p4650
F0.5
sS'O..OX...X'
p4651
F0.5
sS'.XXOO.XXO'
p4652
F0.5
sS'X.XOOX.XO'
p4653
F0.5
sS'OX.OX....'
p4654
F1.0
sS'..XXXOO..'
p4655
F0.5
sS'X.O..X..O'
p4656
F0.5
sS'.XOOO.XXX'
p4657
I1
sS'OXXX..OXO'
p4658
F0.5
sS'..XXXOO.O'
p4659
F0.5
sS'.XO.XOO.X'
p4660
F0.5
sS'X..X..OXO'
p4661
F0.5
sS'X.O..X...'
p4662
F0.5
sS'.XOOO.XX.'
p4663
F0.5
sS'XXX.XO.OO'
p4664
I1
sS'.O..X.X.O'
p4665
F0.5
sS'XX.XOXOOO'
p4666
I0
sS'OX.OX...X'
p4667
F0.5
sS'X.OO....X'
p4668
F0.5
sS'XXXO...O.'
p4669
I1
sS'X.OXOOXX.'
p4670
I1
sS'OXO....XX'
p4671
F0.5
sS'OXXX.O..O'
p4672
F0.5
sS'X..OX....'
p4673
F0.5
sS'..X.XOX.O'
p4674
I1
sS'XXX.OXO.O'
p4675
I1
sS'XX.XXO.OO'
p4676
F0.5
sS'XOXXXOXOO'
p4677
I1
sS'OXO.OXXOX'
p4678
F0.5
sS'..X.O.O.X'
p4679
F0.5
sS'XXXXOO..O'
p4680
I1
sS'XXXOOX.O.'
p4681
I1
sS'X..XOXOXO'
p4682
F0.5
sS'XX.OXO.XO'
p4683
I1
sS'O.......X'
p4684
F0.5
sS'OX.OX.X..'
p4685
F0.5
sS'..O.XO..X'
p4686
F0.5
sS'XOOO...XX'
p4687
F0.5
sS'..XO..O.X'
p4688
F0.5
sS'OOOX.XXXO'
p4689
I0
sS'OXXX.O...'
p4690
F0.5
sS'X..OX...O'
p4691
F0.5
sS'OXO....X.'
p4692
F0.5
sS'.OX.XXO..'
p4693
F0.5
sS'XO..OXXXO'
p4694
F0.5
sS'.X.XO..XO'
p4695
F0.5
sS'X.O.XOXO.'
p4696
F0.5
sS'X...OXXOO'
p4697
F0.5
sS'OXX.X.O..'
p4698
F0.5
sS'...O.OXXX'
p4699
I1
sS'.XOO.X..X'
p4700
F0.5
sS'OO...XXX.'
p4701
F0.5
sS'X..OX.X.O'
p4702
F0.5
sS'XXX..O.O.'
p4703
I1
sS'XXOX..OXO'
p4704
F0.5
sS'OOOXX.X..'
p4705
I0
sS'OO...XXXO'
p4706
F0.5
sS'.OOXO..XX'
p4707
F0.5
sS'.XOXO.XXO'
p4708
F0.5
sS'XX.OX.XOO'
p4709
F0.5
sS'X...OXXO.'
p4710
F0.5
sS'OXX.X.O.O'
p4711
F0.5
sS'..XOO.XXO'
p4712
F0.5
sS'OO.X.XX..'
p4713
F0.5
sS'X.XO..OOX'
p4714
F0.5
sS'.XOO.OX.X'
p4715
F0.5
sS'...O.OXX.'
p4716
F0.5
sS'.XOXX...O'
p4717
F0.5
sS'.OXO..XXO'
p4718
F0.5
sS'O.X.OXOXX'
p4719
I1
sS'..XX.XOOO'
p4720
I0
sS'O.X.OXOX.'
p4721
F0.5
sS'O.X.O.OXX'
p4722
F0.5
sS'.OXO..XX.'
p4723
F0.5
sS'..XOXX..O'
p4724
F0.5
sS'..XOO.XX.'
p4725
F0.5
sS'OO.X.XX.O'
p4726
F0.5
sS'OXOXX.X.O'
p4727
F0.5
sS'.X.XOXXOO'
p4728
F0.5
sS'OX.OXXO..'
p4729
I0
sS'..OX..X.O'
p4730
F0.5
sS'X.XO...O.'
p4731
F0.5
sS'XOXOOXX..'
p4732
F0.5
sS'XOXOOOXX.'
p4733
I0
sS'XXOX.OO.X'
p4734
F0.5
sS'.OXX.X..O'
p4735
F0.5
sS'.X..OXOXO'
p4736
F0.5
sS'XO.XXXOO.'
p4737
I1
sS'..O.X.OXX'
p4738
F0.5
sS'OOX...XXO'
p4739
F0.5
sS'XOO.....X'
p4740
F0.5
sS'..O.X.OX.'
p4741
F1.0
sS'..OXOXO.X'
p4742
I0
sS'XOXXX..OO'
p4743
F0.5
sS'OOX...XX.'
p4744
F0.5
sS'..OX..X..'
p4745
F0.5
sS'.OOXXX...'
p4746
I1
sS'....XOO.X'
p4747
F0.5
sS'XXOX.OO..'
p4748
F0.5
sS'XOXOOXX.O'
p4749
F0.5
sS'X.XO...OX'
p4750
F0.5
sS'.X.OXX..O'
p4751
F0.5
sS'OOX.XOXX.'
p4752
I1
sS'..OXX.O.X'
p4753
F0.5
sS'XOO.XO.XX'
p4754
I1
sS'OX...OXX.'
p4755
F0.5
sS'X.XOO..XO'
p4756
F0.5
sS'X..XXOOXO'
p4757
F0.5
sS'OX.XX...O'
p4758
F0.5
sS'XO.XXO.XO'
p4759
F0.5
sS'XO.X..OX.'
p4760
F0.5
sS'XO.X...O.'
p4761
F0.5
sS'XO.XOO.X.'
p4762
F0.5
sS'..O.O.XX.'
p4763
F0.5
sS'OXXXO.O..'
p4764
F0.5
sS'.XX.OO.OX'
p4765
F0.5
sS'..O.O.XXX'
p4766
I1
sS'XO.X..OXO'
p4767
F0.5
sS'XO.XOO.XX'
p4768
F0.5
sS'XOO...XOX'
p4769
F0.5
sS'OXXXO.O.X'
p4770
F0.5
sS'.X..OOXOX'
p4771
F0.5
sS'XO.X...OX'
p4772
F0.5
sS'.XOO.X...'
p4773
F0.5
sS'O.OXXOOXX'
p4774
F0.5
sS'OX...OXXO'
p4775
F0.5
sS'X.XOO..X.'
p4776
F0.5
sS'OXOXXX..O'
p4777
I1
sS'.XXO.XOO.'
p4778
F0.5
sS'XOO.XO.X.'
p4779
F0.5
sS'..OXX.O..'
p4780
F0.5
sS'X.OXXXO.O'
p4781
I1
sS'O.O....XX'
p4782
F0.5
sS'XO.OXX.OX'
p4783
I1
sS'XO.....X.'
p4784
F0.5
sS'OX..O.XXO'
p4785
I0
sS'XX.O.XOO.'
p4786
F0.5
sS'..XO.XXOO'
p4787
F0.5
sS'.XXOOXOXO'
p4788
F0.5
sS'.XXOO.OX.'
p4789
F0.5
sS'O..XXO..X'
p4790
F0.5
sS'O.OO.X.XX'
p4791
F0.5
sS'.OOOXX.XX'
p4792
F0.5
sS'XOXO.OXX.'
p4793
F0.5
sS'.XXOOXOX.'
p4794
F0.5
sS'..XO.XXO.'
p4795
F0.5
sS'.XXOO.OXX'
p4796
F0.5
sS'O..XXO...'
p4797
F0.5
sS'.OOOXX.X.'
p4798
F0.5
sS'XO.....XO'
p4799
F0.5
sS'XXOOO.X.X'
p4800
F0.5
sS'OX..O.XX.'
p4801
F0.5
sS'OOXXOO.XX'
p4802
F0.5
sS'XO.OXX.O.'
p4803
F0.5
sS'XXO.XO.OX'
p4804
I1
sS'...XX.O..'
p4805
F0.5
sS'XXXXOO.O.'
p4806
I1
sS'XO.XOXOX.'
p4807
F0.5
sS'.X.OOXOX.'
p4808
F0.5
sS'.XXXOOXO.'
p4809
F0.5
sS'X.X.OO.OX'
p4810
F0.5
sS'O.XO...X.'
p4811
F0.5
sS'XOOXXO..X'
p4812
I1
sS'.OXOOXXXO'
p4813
F0.5
sS'OX..XOXXO'
p4814
I1
sS'O.X.X.XO.'
p4815
I1
sS'XOOXXO...'
p4816
F0.5
sS'.OXOOXXX.'
p4817
F0.5
sS'XOX.OOOXX'
p4818
F0.5
sS'...XX.O.O'
p4819
F1.0
sS'.X.OOXOXX'
p4820
F0.5
sS'XXO.XO.O.'
p4821
F0.5
sS'XO.XOXOXO'
p4822
F0.5
sS'.XXXOOXOO'
p4823
F0.5
sS'X.XOO.X..'
p4824
F0.5
sS'.XXXOOO.X'
p4825
F0.5
sS'O....XX..'
p4826
F0.5
sS'XOX.XXO.O'
p4827
F0.5
sS'OOOOXXX.X'
p4828
I0
sS'.O..X..OX'
p4829
F0.5
sS'OXO..XX..'
p4830
F0.5
sS'O...XXO..'
p4831
F0.5
sS'..XXOXOO.'
p4832
F0.5
sS'XO..X.XO.'
p4833
F0.5
sS'OOO..X.XX'
p4834
I0
sS'XO..OXOX.'
p4835
F0.5
sS'X..XO.X.O'
p4836
I1
sS'XO..O.OXX'
p4837
F0.5
sS'O.X.OOX.X'
p4838
F0.5
sS'XO..OXOXX'
p4839
F0.5
sS'..XXOXOOX'
p4840
I1
sS'X.XOO.X.O'
p4841
F0.5
sS'O...XXO.X'
p4842
F0.5
sS'O....XX.O'
p4843
F0.5
sS'XXOOOO.XX'
p4844
I0
sS'.OOXXXX.O'
p4845
I1
sS'OXO..XX.O'
p4846
F0.5
sS'.XXXOOO..'
p4847
F0.5
sS'O.XOX..OX'
p4848
F0.5
sS'.OX.OX.X.'
p4849
F0.5
sS'XO..X.XOO'
p4850
F0.5
sS'.X..XOOX.'
p4851
I1
sS'.XOOXO.XX'
p4852
I1
sS'XOX.O.X..'
p4853
F0.5
sS'.X..OOOXX'
p4854
F0.5
sS'XXOOXOXO.'
p4855
F0.5
sS'X.OX.OO.X'
p4856
F0.5
sS'O..XOX.OX'
p4857
F0.5
sS'XOXOO.XXO'
p4858
F0.5
sS'...X.OOXX'
p4859
F0.5
sS'XOO..O.XX'
p4860
F0.5
sS'...X.OOX.'
p4861
F0.5
sS'.X.....XO'
p4862
F0.5
sS'..X...O.X'
p4863
F0.5
sS'O..X.X.O.'
p4864
F0.5
sS'XOX.O.X.O'
p4865
F0.5
sS'.XOXXOOX.'
p4866
I1
sS'XXOOXOXOX'
p4867
I1
sS'OX.....OX'
p4868
F0.5
sS'OOO..XX.X'
p4869
I0
sS'OXXO..OX.'
p4870
I0
sS'X.OOXOXXO'
p4871
I0
sS'X.XOXX.OO'
p4872
F0.5
sS'X..OXX.O.'
p4873
F0.5
sS'.XXX..O.O'
p4874
F0.5
sS'OXO.XXO..'
p4875
F0.5
sS'..OXX.XO.'
p4876
F0.5
sS'OX..XOX.O'
p4877
F0.5
sS'.X...OXO.'
p4878
F0.5
sS'XO....O.X'
p4879
F0.5
sS'X.X.OOOXX'
p4880
F0.5
sS'.OOOXXXOX'
p4881
F0.5
sS'.X...X.OO'
p4882
F0.5
sS'X....XO.O'
p4883
F0.5
sS'XO.X.X..O'
p4884
F0.5
sS'X.O.XX.OO'
p4885
F0.5
sS'OXOOXOXXX'
p4886
I1
sS'O.X.O.XOX'
p4887
F0.5
sS'OXXOXXOO.'
p4888
F0.0
sS'.X...X.O.'
p4889
F0.5
sS'X....XO..'
p4890
F0.5
sS'X.X.OOOX.'
p4891
F0.5
sS'X.O.XX.O.'
p4892
F0.5
sS'X.OOXOXX.'
p4893
F0.5
sS'X..OXX.OO'
p4894
F0.5
sS'.X...OXOX'
p4895
F0.5
sS'..OXX.XOO'
p4896
F0.5
sS'XOXO.OXXO'
p4897
F0.5
sS'X...X.OOX'
p4898
I1
sS'.XOXO.O.X'
p4899
I0
sS'O.X..XX.O'
p4900
F0.5
sS'.OOX...X.'
p4901
F0.5
sS'X..X.OXO.'
p4902
I1
sS'X.XX.O.OO'
p4903
F0.5
sS'X..XXO..O'
p4904
F0.5
sS'.....XO..'
p4905
F0.5
sS'OOXOXXXOX'
p4906
I1
sS'OX.OO..XX'
p4907
F0.5
sS'X..XX.O.O'
p4908
F0.5
sS'O.XXXOOOX'
p4909
F0.5
sS'.X.OOO.XX'
p4910
I0
sS'.X...XOXO'
p4911
F0.5
sS'.....XO.X'
p4912
F0.5
sS'OX..OX.XO'
p4913
I0
sS'.XXOOX.OX'
p4914
I1
sS'XOOX.XOX.'
p4915
F0.5
sS'XXOX..XOO'
p4916
I1
sS'X.XX.O.O.'
p4917
F0.5
sS'.OOX...XX'
p4918
F0.5
sS'OXO..OX.X'
p4919
F0.5
sS'.O.XO.XOX'
p4920
I0
sS'XO..XXOO.'
p4921
F0.5
sS'.OXXO..OX'
p4922
I0
sS'XXO.X.OO.'
p4923
F0.5
sS'X.OO.XOXX'
p4924
F0.5
sS'.O.O.XX..'
p4925
F0.5
sS'OXX.XOX.O'
p4926
I1
sS'.O.X.O..X'
p4927
F0.5
sS'O..OXOXX.'
p4928
F0.5
sS'O..O..XX.'
p4929
F0.5
sS'OOXXX.XO.'
p4930
I1
sS'.OX.XOO.X'
p4931
F0.5
sS'O..O..XXX'
p4932
I1
sS'O..OXOXXX'
p4933
I1
sS'.O.O.XX.X'
p4934
F0.5
sS'X.OO.XOX.'
p4935
F0.5
sS'O.O.X.OXX'
p4936
F0.5
sS'XXO.X.OOX'
p4937
I1
sS'.O..XOXOX'
p4938
F0.5
sS'XX...OX.O'
p4939
F0.5
sS'..O.OXXXO'
p4940
F0.5
sS'OOXX.OX..'
p4941
F0.5
sS'.OO.XXX.O'
p4942
F0.5
sS'.X..XXOO.'
p4943
F0.5
sS'O.XX.X..O'
p4944
F0.5
sS'X.O..OXXO'
p4945
I0
sS'OXX..OXXO'
p4946
F0.5
sS'..OXXX..O'
p4947
I1
sS'X.OO..OXX'
p4948
F0.5
sS'X.OO.X..X'
p4949
F0.5
sS'OX..X.X.O'
p4950
F0.5
sS'XXXO.OO.X'
p4951
I1
sS'.X..OXXO.'
p4952
F0.5
sS'O..XXXOOX'
p4953
I1
sS'.XO.OOX.X'
p4954
F0.5
sS'OXXO.O..X'
p4955
F0.5
sS'O.X.....X'
p4956
F0.5
sS'XO.O.XXXO'
p4957
F0.5
sS'.XO...O.X'
p4958
F0.5
sS'.X..OXXOO'
p4959
F0.5
sS'X.OO.X...'
p4960
F0.5
sS'O..OXXXO.'
p4961
F0.5
sS'..O.OXXX.'
p4962
F0.5
sS'.X..XXOOO'
p4963
I0
sS'.OO.XXX..'
p4964
F0.5
sS'X.O..OXX.'
p4965
F0.5
sS'OOXX.OX.X'
p4966
F0.5
sS'XXOO.OX.X'
p4967
F0.5
sS'OXX.OOXX.'
p4968
F0.5
sS'X...OXOX.'
p4969
F0.5
sS'XX.O.XXOO'
p4970
F0.5
sS'OX..XO..X'
p4971
F0.5
sS'XOXXOOOX.'
p4972
F0.5
sS'.XXOOXX.O'
p4973
F0.5
sS'XO..X...O'
p4974
F0.5
sS'XOXOOX.X.'
p4975
F0.5
sS'OOXXO..X.'
p4976
F0.5
sS'OOXX..O.X'
p4977
F0.5
sS'.O.OXOXX.'
p4978
F0.5
sS'.XO.XXO.O'
p4979
F0.5
sS'XX.OX.OXO'
p4980
I1
sS'OOXXO..XX'
p4981
F0.5
sS'..OXXXOOX'
p4982
I1
sS'.XO.XXO..'
p4983
F0.5
sS'.O.OXOXXX'
p4984
I1
sS'..X.XOOOX'
p4985
F0.5
sS'OX.X..O.X'
p4986
F0.5
sS'X...OXOXO'
p4987
F0.5
sS'OXX.OOXXO'
p4988
I0
sS'O..XXX.O.'
p4989
I1
sS'OX..XO...'
p4990
F1.0
sS'XOXXOOOXX'
p4991
F0.5
sS'XO..X....'
p4992
F0.5
sS'X.OXOXX.O'
p4993
I1
sS'XOXOOX.XO'
p4994
F0.5
sS'OO.X.X.OX'
p4995
F0.5
sS'XXO.XOOX.'
p4996
I1
sS'.OX.O.X..'
p4997
F0.5
sS'X.OOXO.XX'
p4998
I1
sS'.XXX..OOO'
p4999
I0
sS'.OXOO.X.X'
p5000
F0.5
sS'OXX..OXOX'
p5001
F0.5
sS'OXXX.OOXO'
p5002
F0.5
sS'.X.XO.XO.'
p5003
F0.5
sS'O.XOOX.XX'
p5004
I1
sS'O.XOX.O.X'
p5005
I0
sS'X..OX.XO.'
p5006
F0.5
sS'X.OOXXOX.'
p5007
F0.5
sS'.OOOXXX.X'
p5008
F0.5
sS'.X.XO.XOO'
p5009
F0.5
sS'X..OX.XOO'
p5010
F0.5
sS'X.OOXXOXO'
p5011
F0.5
sS'O.XOOX.X.'
p5012
F0.5
sS'X.XX..O.O'
p5013
F0.5
sS'OO.XXX...'
p5014
I1
sS'X.OOXO.X.'
p5015
F0.5
sS'.OX.O.X.X'
p5016
F0.5
sS'OXX..OXO.'
p5017
F0.5
sS'OOXOXXXXO'
p5018
I1
sS'OXX......'
p5019
F0.5
sS'XO..O.X.X'
p5020
F0.5
sS'OO..XXOXX'
p5021
F0.5
sS'....XXXOO'
p5022
F0.5
sS'..OOXO.XX'
p5023
F0.5
sS'.X..X.O..'
p5024
F0.5
sS'X..XO.O..'
p5025
F0.5
sS'....X...O'
p5026
F0.5
sS'OOXO..X.X'
p5027
F0.5
sS'XXOX.OOOX'
p5028
F0.5
sS'....X....'
p5029
F0.5
sS'X.OX.X..O'
p5030
F0.5
sS'XOXOOXXO.'
p5031
I0
sS'..OX..XXO'
p5032
F0.5
sS'OXX.....O'
p5033
F0.5
sS'X..XO.O.X'
p5034
F0.5
sS'...OXX..O'
p5035
F0.5
sS'.OOXOXOXX'
p5036
I0
sS'OO..XXOX.'
p5037
F0.5
sS'XO..O.X..'
p5038
F0.5
sS'.X..X.O.O'
p5039
F0.5
sS'OX.O.XXO.'
p5040
F0.5
sS'.X.O.XO.X'
p5041
F0.5
sS'.X.X...OO'
p5042
F0.5
sS'OOX..O.XX'
p5043
F0.5
sS'XX.OX.O.O'
p5044
F0.5
sS'....X.OXO'
p5045
F1.0
sS'...OOXXOX'
p5046
F0.5
sS'X.O.XXOOX'
p5047
I1
sS'X..OXOXOX'
p5048
I1
sS'.XXO.XO.O'
p5049
F0.5
sS'.OOXX.XO.'
p5050
F0.5
sS'OXO.XXX.O'
p5051
F0.5
sS'....X.OX.'
p5052
F0.5
sS'X.O.XXOO.'
p5053
F0.5
sS'.OOXX.XOX'
p5054
F0.5
sS'X..OXOXO.'
p5055
F0.5
sS'OO.XX.O.X'
p5056
F0.5
sS'.XXO.XO..'
p5057
F0.5
sS'OXXOOOXX.'
p5058
I0
sS'X.XXO.XOO'
p5059
I1
sS'.OX.XO.OX'
p5060
F0.5
sS'X...XX.OO'
p5061
F0.5
sS'.X.X...O.'
p5062
F0.5
sS'.X.O.XO..'
p5063
F0.5
sS'OX.O.XXOX'
p5064
F0.5
sS'XXOO.XO..'
p5065
F0.5
sS'XX.OX.O..'
p5066
F0.5
sS'X.OOX.XXO'
p5067
F0.5
sS'OO.O.XXX.'
p5068
F0.5
sS'XOX..OOX.'
p5069
F0.5
sS'XO.OXX..O'
p5070
F0.5
sS'.X.O.XXOO'
p5071
F0.5
sS'....OXOX.'
p5072
F0.5
sS'....OXOXX'
p5073
F0.5
sS'XO.OXX...'
p5074
F0.5
sS'.X.O.XXO.'
p5075
F0.5
sS'OO.O.XXXX'
p5076
I1
sS'.OXX...XO'
p5077
F0.5
sS'.XOXXOO..'
p5078
F0.5
sS'XOX..OOXX'
p5079
F0.5
sS'..XO.OXOX'
p5080
F0.5
sS'.OOXX...X'
p5081
F0.5
sS'.OXXOOX.X'
p5082
F0.5
sS'OOO.XX.X.'
p5083
I0
sS'OO.X.OX.X'
p5084
F0.5
sS'XO.X.O...'
p5085
F0.5
sS'OX.XO.XO.'
p5086
F0.5
sS'..O..X..X'
p5087
F0.5
sS'OX.XOXXO.'
p5088
F0.5
sS'..X.XXO.O'
p5089
F0.5
sS'O..OXX...'
p5090
F0.5
sS'O..XXOXXO'
p5091
F0.5
sS'OXXOX..XO'
p5092
I1
sS'XXO.XO..O'
p5093
I0
sS'.OXOO.XX.'
p5094
F0.5
sS'X.XO.O.X.'
p5095
F0.5
sS'XOOXOO.XX'
p5096
F0.5
sS'.O.X.XOOX'
p5097
F0.5
sS'OX.XOXXOO'
p5098
I0
sS'X.O.OX.XO'
p5099
F0.5
sS'.OXOO.XXX'
p5100
I1
sS'.OX..O..X'
p5101
F0.5
sS'..O..X...'
p5102
F0.5
sS'XXO.XO...'
p5103
F0.5
sS'X.XO.O.XO'
p5104
F0.5
sS'O..OXX..X'
p5105
F0.5
sS'OX.XO.XOX'
p5106
F0.5
sS'XO.X.O..X'
p5107
F0.5
sS'.OOXX....'
p5108
F0.5
sS'O.OXXXX.O'
p5109
I1
sS'.OXXOOX..'
p5110
F0.5
sS'OX.XO.O.X'
p5111
F0.5
sS'XOXXOO..X'
p5112
F0.5
sS'.O.X.X.OX'
p5113
F0.5
sS'XX.O.OX..'
p5114
F0.5
sS'.XXXOO.XO'
p5115
F0.5
sS'OX.XOXOXO'
p5116
I0
sS'O...X..XO'
p5117
F0.5
sS'.XOOO..XX'
p5118
F0.5
sS'..X...OXO'
p5119
F0.5
sS'XXOXO..O.'
p5120
F0.5
sS'.X.OXOO.X'
p5121
F0.5
sS'X....XXOO'
p5122
F0.5
sS'OXOXO.XX.'
p5123
F0.5
sS'..X.X.OXO'
p5124
F0.5
sS'.OXOXXO.X'
p5125
I1
sS'..X...OX.'
p5126
F0.5
sS'OOXXXOO.X'
p5127
F0.5
sS'XXO......'
p5128
F0.5
sS'XXOXO..OX'
p5129
F0.5
sS'OXOXO.XXO'
p5130
I0
sS'.O.X.X.O.'
p5131
F0.5
sS'XOXXOO...'
p5132
F0.5
sS'XX.O.OX.O'
p5133
F0.5
sS'OX.XOXOX.'
p5134
F0.5
sS'..XXXOOO.'
p5135
F0.5
sS'X.XX...OO'
p5136
F0.5
sS'XOOOX..X.'
p5137
F0.5
sS'OOX.X..X.'
p5138
F0.5
sS'OX.OX..OX'
p5139
F0.5
sS'X.XO.OX..'
p5140
F0.5
sS'X...XXOO.'
p5141
F0.5
sS'....XXOXO'
p5142
F0.5
sS'X...XXOOO'
p5143
I0
sS'XO.O.XO.X'
p5144
F0.5
sS'O.OXO..XX'
p5145
F0.5
sS'OO..XOX.X'
p5146
F0.5
sS'OOX.X..XO'
p5147
F0.5
sS'XOOOX..XX'
p5148
I1
sS'..XXXOOOX'
p5149
F0.5
sS'X.XO.OX.O'
p5150
F0.5
sS'X.OOXOX..'
p5151
F0.5
sS'OOX..OXXX'
p5152
I1
sS'.X.XX.OO.'
p5153
F0.5
sS'.XXXOXOOO'
p5154
I0
sS'X.XO.O..X'
p5155
F0.5
sS'..X.O.XOX'
p5156
F0.5
sS'OX.O.X...'
p5157
F0.5
sS'XOXO..OXX'
p5158
F0.5
sS'.XXXOXOO.'
p5159
F0.5
sS'XOXO..OX.'
p5160
F0.5
sS'OX.O.X..X'
p5161
F0.5
sS'X.XO.O...'
p5162
F0.5
sS'.XOOXOXOX'
p5163
F0.5
sS'.X...OOXX'
p5164
F0.5
sS'..X.O.XO.'
p5165
F0.5
sS'OOX..OXX.'
p5166
F0.5
sS'OOOX..X.X'
p5167
I0
sS'OOXXXXOXO'
p5168
I1
sS'.OO..XOXX'
p5169
F0.5
sS'OXX.O..OX'
p5170
F0.5
sS'.X.XX.OOO'
p5171
I0
sS'.XO.OX..X'
p5172
F0.5
sS'OXX.X.OOX'
p5173
F0.5
sS'XOO.XX.OX'
p5174
I1
sS'.O.XO.X.X'
p5175
F0.5
sS'O.X..XXOO'
p5176
F0.5
sS'XXOX..O.O'
p5177
F0.5
sS'XX.OOX.XO'
p5178
F0.5
sS'X....XOO.'
p5179
F0.5
sS'X.OOXXXOO'
p5180
F0.5
sS'X..XXO.OO'
p5181
F0.5
sS'XXOXO.OOX'
p5182
I0
sS'O.XOOXXX.'
p5183
F0.5
sS'O.X.X....'
p5184
F0.5
sS'X.XOOXXOO'
p5185
F0.5
sS'XO.X.X.O.'
p5186
F0.5
sS'OOXXO.XOX'
p5187
I0
sS'O.X..XXO.'
p5188
F0.5
sS'XXOX..O..'
p5189
F0.5
sS'X.OOXXXO.'
p5190
F0.5
sS'X..XXO.O.'
p5191
F0.5
sS'.OXOX.XXO'
p5192
I1
sS'O.XOOXXXO'
p5193
I0
sS'X.XOOXXO.'
p5194
F0.5
sS'O.X.X...O'
p5195
F0.5
sS'XO.X.X.OO'
p5196
F0.5
sS'OX.OXOXX.'
p5197
I1
sS'X....XOOX'
p5198
F0.5
sS'.O.XO.X..'
p5199
F0.5
sS'O.XXO.O.X'
p5200
F0.5
sS'.XO.OX...'
p5201
F0.5
sS'XOO.XX.O.'
p5202
F0.5
sS'OXX.X.OO.'
p5203
F0.5
sS'.X.OOOXX.'
p5204
I0
sS'OXO...XOX'
p5205
F0.5
sS'XXOXOOXOX'
p5206
I1
sS'.XOXOXX.O'
p5207
F0.5
sS'OXOXX.XOO'
p5208
F0.5
sS'..O.XOXX.'
p5209
F0.5
sS'O...X....'
p5210
F0.5
sS'.O..XOX.X'
p5211
F0.5
sS'..XXOO..X'
p5212
F0.5
sS'X.OXXOXO.'
p5213
I1
sS'.X..O..XO'
p5214
F0.5
sS'X.OO..XOX'
p5215
F0.5
sS'.XO...OXX'
p5216
F0.5
sS'..XX.O.XO'
p5217
F0.5
sS'X..OOXX..'
p5218
F0.5
sS'XXOOO.X..'
p5219
F0.5
sS'.XO...OX.'
p5220
F0.5
sS'..X..XOXO'
p5221
F0.5
sS'XXX..O..O'
p5222
I1
sS'X.OXO.OX.'
p5223
I0
sS'O..XOXO.X'
p5224
F0.5
sS'X..OOXX.O'
p5225
F0.5
sS'O...X...X'
p5226
F0.5
sS'..XXOO...'
p5227
F0.5
sS'.O..XOX..'
p5228
F0.5
sS'OXOXX.XO.'
p5229
F0.5
sS'..O.XOXXO'
p5230
I0
sS'...X.OO.X'
p5231
F0.5
sS'.X...OO.X'
p5232
F0.5
sS'OXXO.OXX.'
p5233
F0.5
sS'O.XO.X...'
p5234
F0.5
sS'O..OXXX.O'
p5235
F0.5
sS'XOO....XX'
p5236
F0.5
sS'..O.XXOXO'
p5237
F0.5
sS'.O.X.OXXO'
p5238
F0.5
sS'OX.O.X.XO'
p5239
F0.5
sS'O...X.X.O'
p5240
F0.5
sS'X..OX.O..'
p5241
F0.5
sS'O..OXXX..'
p5242
F0.5
sS'XXXO.X.OO'
p5243
I1
sS'X..OX.O.X'
p5244
I1
sS'..O.XXOX.'
p5245
F0.5
sS'.O.X.OXX.'
p5246
F0.5
sS'OX.O.X.X.'
p5247
F0.5
sS'O...X.X..'
p5248
F0.5
sS'.X.X.XO.O'
p5249
F0.5
sS'XOO....X.'
p5250
F0.5
sS'...OO..XX'
p5251
F0.5
sS'OXXXX.O.O'
p5252
F0.5
sS'O.XO.X..X'
p5253
I1
sS'OXXO.OXXO'
p5254
F0.5
sS'O.XX..OXO'
p5255
F0.5
sS'.XOX...O.'
p5256
F0.5
sS'O.OOXX.X.'
p5257
F0.9
sS'XXXOOXOXO'
p5258
I1
sS'OOXX...OX'
p5259
F0.5
sS'OXO.X...X'
p5260
F0.5
sS'..XXOOX.O'
p5261
F0.5
sS'.XXOX...O'
p5262
F0.5
sS'OX..X.XO.'
p5263
F0.5
sS'OOXOX.OXX'
p5264
F0.0
sS'...XX..OO'
p5265
F1.0
sS'.OOX..OXX'
p5266
F0.5
sS'OX..X.XOO'
p5267
F0.5
sS'O.OX.XXXO'
p5268
F0.5
sS'OXO.X....'
p5269
F1.0
sS'..O.XOX..'
p5270
F0.5
sS'O.OOXX.XX'
p5271
F0.5
sS'.X.XOO.X.'
p5272
F0.5
sS'XXXO..OXO'
p5273
I1
sS'..XOX..XO'
p5274
F0.5
sS'XO.OXXOXO'
p5275
F0.5
sS'OXXOX.OOX'
p5276
I0
sS'XOX..O.OX'
p5277
F0.5
sS'.XOO.X.OX'
p5278
F0.5
sS'OXXOOX.X.'
p5279
F0.5
sS'..X...XOO'
p5280
F0.5
sS'O.OXXOXOX'
p5281
F0.5
sS'...OX.OXX'
p5282
F0.5
sS'..X...XO.'
p5283
F0.5
sS'OOOOXXXX.'
p5284
F0.0
sS'XO.OXXOX.'
p5285
F0.5
sS'O..X.XO.X'
p5286
F0.5
sS'OX...XOX.'
p5287
F0.5
sS'.XOXOX...'
p5288
F0.5
sS'O.OOXXXOX'
p5289
F0.5
sS'XOX.XOOXO'
p5290
F0.5
sS'X..XOO..X'
p5291
F0.5
sS'...OOX.X.'
p5292
F0.5
sS'.XOOOXOXX'
p5293
I0
sS'X..XOO...'
p5294
F0.5
sS'O..XXO.OX'
p5295
F0.5
sS'XOX.XOOX.'
p5296
F0.5
sS'...OOX.XX'
p5297
F0.5
sS'..XO.XX.O'
p5298
F0.5
sS'O.XOXOX.X'
p5299
I1
sS'OX...XOXO'
p5300
F0.5
sS'OO..XXO.X'
p5301
F0.5
sS'.XOXOX..O'
p5302
F0.5
sS'O..X.XO..'
p5303
F0.5
sS'OX....O.X'
p5304
F0.5
sS'..OXOXXXO'
p5305
F0.5
sS'XO..XXO.O'
p5306
F0.5
sS'O...XXOOX'
p5307
F0.5
sS'.OX.XO..X'
p5308
F0.5
sS'O.XXOX.O.'
p5309
F0.5
sS'...OXO.XX'
p5310
F0.5
sS'O.XOXO..X'
p5311
F0.5
sS'.X.O..O.X'
p5312
F0.5
sS'X.O.O.X..'
p5313
F0.5
sS'.O.OXXO.X'
p5314
F0.5
sS'O.XXOXOX.'
p5315
F0.5
sS'....O.OXX'
p5316
F0.5
sS'O.O.XXO.X'
p5317
F0.5
sS'.XOO..XXO'
p5318
F0.5
sS'O.X.XX..O'
p5319
F0.5
sS'X..XOOOXX'
p5320
F0.5
sS'.X..OOXX.'
p5321
F0.5
sS'X..XOOOX.'
p5322
F0.5
sS'.OX..X.XO'
p5323
F0.5
sS'X.OO.O.XX'
p5324
F0.5
sS'.XOO..XX.'
p5325
F0.5
sS'OO.XO..XX'
p5326
F0.5
sS'.X..OOXXO'
p5327
F0.5
sS'...OXO.X.'
p5328
F0.5
sS'O.XXOX.OX'
p5329
I1
sS'OX.O.XX..'
p5330
F0.5
sS'OOXXXO.XO'
p5331
F0.5
sS'X.O.O.X.X'
p5332
F0.5
sS'...OXOXXO'
p5333
F0.5
sS'.OX.XO...'
p5334
F1.0
sS'.XOX.OOX.'
p5335
F0.5
sS'.OX.OXXO.'
p5336
I0
sS'.XOXOXOXO'
p5337
I0
sS'OXO.X.X..'
p5338
F0.5
sS'X.XO.XO..'
p5339
F0.5
sS'XOO..X.OX'
p5340
F0.5
sS'.XXOXOOX.'
p5341
I1
sS'O.OX....X'
p5342
F0.5
sS'.....X.O.'
p5343
F0.5
sS'.OX..O.XX'
p5344
F0.5
sS'...XXO...'
p5345
F0.5
sS'..OXXXOXO'
p5346
I1
sS'.X..OXOX.'
p5347
F0.5
sS'O.XXXO...'
p5348
F0.5
sS'XOXO...OX'
p5349
F0.5
sS'.OX..O.X.'
p5350
F0.5
sS'X..XX..OO'
p5351
F0.5
sS'XXOX.X.OO'
p5352
F0.5
sS'...XXO..O'
p5353
F0.5
sS'.....X.OX'
p5354
F0.5
sS'O.XXXO..O'
p5355
F0.5
sS'OXO.X.X.O'
p5356
F0.5
sS'.XOX.OOXX'
p5357
F0.5
sS'OOXXOXXO.'
p5358
I0
sS'X...X.XOO'
p5359
F0.5
sS'X.XO.XO.O'
p5360
F0.5
sS'OXOXXXOOX'
p5361
I1
sS'..OOXOXX.'
p5362
F0.5
sS'X.X..O.O.'
p5363
F0.5
sS'X..OXX..O'
p5364
F0.5
sS'OOXXXOOXX'
p5365
F0.5
sS'OO...XX.X'
p5366
F0.5
sS'XOO.O.XXX'
p5367
I1
sS'..XOX....'
p5368
F0.5
sS'O.XXXOXO.'
p5369
I1
sS'XOO.O.XX.'
p5370
F0.5
sS'XX.OXOOX.'
p5371
I1
sS'..XOX...O'
p5372
F0.5
sS'OXXXOO.OX'
p5373
F0.5
sS'OOXXXOOX.'
p5374
F0.5
sS'X..X.OOOX'
p5375
F0.5
sS'..OX.O..X'
p5376
F0.5
sS'..OOXOXXX'
p5377
I1
sS'...XOXX.O'
p5378
F0.5
sS'X.OXX.OO.'
p5379
F0.5
sS'.X.XO...O'
p5380
F0.5
sS'OOXOX...X'
p5381
F0.5
sS'OOXXX...O'
p5382
F0.5
sS'OX.XO..XO'
p5383
I0
sS'.OXX....O'
p5384
F0.5
sS'..O.XX...'
p5385
F0.5
sS'.X.OO.XOX'
p5386
F0.5
sS'OX.XOOX..'
p5387
F0.5
sS'.XO.X.X.O'
p5388
F0.5
sS'.X.O.XOX.'
p5389
F0.5
sS'XOXOX.XO.'
p5390
I1
sS'X.X.OXOXO'
p5391
F0.5
sS'XXXO.O.OX'
p5392
I1
sS'XOOXX.OXO'
p5393
F0.5
sS'.OOOXXX..'
p5394
F0.5
sS'.OXX.....'
p5395
F0.5
sS'..O.XX..O'
p5396
F1.0
sS'.X.O.XOXO'
p5397
F0.5
sS'OX.XOOX.X'
p5398
F0.5
sS'XOOXX.OX.'
p5399
F0.5
sS'X.O.XX..O'
p5400
F0.5
sS'.X.XO....'
p5401
F0.5
sS'.X.O.O..X'
p5402
F0.5
sS'OOXXX....'
p5403
F0.5
sS'OX.XO..X.'
p5404
F0.5
sS'X.X.XOOOX'
p5405
I1
sS'XXO..XOOX'
p5406
F0.5
sS'O.O.X.X.X'
p5407
F0.5
sS'O...XX.O.'
p5408
F0.5
sS'XXXOOXXOO'
p5409
I1
sS'X.XOO.OX.'
p5410
F0.5
sS'OXXO...OX'
p5411
F0.5
sS'.XOOOX..X'
p5412
F0.5
sS'X.OXO.XOX'
p5413
I1
sS'XXOO....X'
p5414
F0.5
sS'XOO..XOXX'
p5415
F0.5
sS'.X.OXOXO.'
p5416
F0.5
sS'.O...XO.X'
p5417
F0.5
sS'.O...XX..'
p5418
F0.5
sS'O..OX..X.'
p5419
F0.5
sS'O.XOXO.X.'
p5420
F0.5
sS'XXXOO....'
p5421
I1
sS'O..OX..XX'
p5422
F0.5
sS'O.XOXO.XX'
p5423
F0.5
sS'.O...XX.O'
p5424
F0.5
sS'.X.OXOXOX'
p5425
F0.5
sS'XOO..XOX.'
p5426
F0.5
sS'X.OX..OX.'
p5427
F0.5
sS'X.XOO.OXX'
p5428
F0.5
sS'XXOO.....'
p5429
F0.5
sS'OXOO.XXOX'
p5430
F0.5
sS'OXOOOX.XX'
p5431
F0.5
sS'XXO..XOO.'
p5432
F0.5
sS'O.O.X.X..'
p5433
F0.5
sS'X.X.XOOO.'
p5434
F0.5
sS'.XOOX..X.'
p5435
I1
sS'O...XX.OX'
p5436
F0.5
sS'.X....O..'
p5437
F0.5
sS'O..X..XO.'
p5438
F0.5
sS'.OXXOO..X'
p5439
F0.5
sS'.X..XXO.O'
p5440
F0.5
sS'OXOXO.X.X'
p5441
F0.5
sS'XOXX.O.O.'
p5442
F0.5
sS'OXXOOX.XO'
p5443
I0
sS'.OOXX..X.'
p5444
F0.5
sS'OXX.XOXO.'
p5445
I1
sS'.XO...XO.'
p5446
F0.5
sS'..OOXX..X'
p5447
F0.5
sS'OXO.....X'
p5448
F0.5
sS'.XO...XOX'
p5449
F0.5
sS'OXX.XX.OO'
p5450
F0.5
sS'..OOXX...'
p5451
F0.5
sS'.OOXX..XO'
p5452
F0.5
sS'XOXX.O.OX'
p5453
F0.5
sS'OXOXO.X..'
p5454
F0.5
sS'..OXOX.OX'
p5455
F0.5
sS'.O.XXXO..'
p5456
I1
sS'.X..OXX.O'
p5457
F0.5
sS'O..X..XOX'
p5458
F0.5
sS'X..XOXO..'
p5459
F0.5
sS'O..XX.OXO'
p5460
F0.5
sS'XO.O..X..'
p5461
F0.5
sS'X...OX.O.'
p5462
F0.5
sS'.OOXXO..X'
p5463
F0.5
sS'XXOO..X.O'
p5464
F0.5
sS'OXO...X.X'
p5465
F0.5
sS'OO.XXXO.X'
p5466
I1
sS'OXX..XO..'
p5467
F0.5
sS'XOO.XX..O'
p5468
F0.5
sS'OXX..XO.O'
p5469
F0.5
sS'XOX.XOXO.'
p5470
I1
sS'XOO.XX...'
p5471
F0.5
sS'X..XOXO.O'
p5472
F0.5
sS'XOO.O.X.X'
p5473
F0.5
sS'X...OX.OX'
p5474
F0.5
sS'O..XX.OX.'
p5475
F0.5
sS'OXO...X..'
p5476
F0.5
sS'XXOO..X..'
p5477
F0.5
sS'XO.O..X.X'
p5478
F0.5
s.