(dp0
S'.OXXOX.XO'
p1
F0.5
sS'XOOOOXXXX'
p2
I1
sS'OXXXO....'
p3
F0.5
sS'XX.OO..XO'
p4
F0.9887410009315738
sS'.X.OXXO.O'
p5
F0.9999999999999998
sS'.XO.X.OX.'
p6
I1
sS'.XO.XXOO.'
p7
F0.9984888427254818
sS'XXOX.O...'
p8
F0.5
sS'X..OX.OXO'
p9
F0.9999999999999998
sS'.XO.XXOOX'
p10
F0.5
sS'X.XOOXX.O'
p11
F0.5
sS'XX.OO..X.'
p12
F0.5
sS'.X.OXXO..'
p13
F0.5
sS'XXOX.O..O'
p14
F0.0
sS'.XXO.XXOO'
p15
F0.5
sS'X..OX.OX.'
p16
F0.5
sS'OXOOXXO.X'
p17
F0.0
sS'XXO.X.OXO'
p18
I1
sS'OOXOX.X.X'
p19
I1
sS'XOOOOXXX.'
p20
F0.9999999999977699
sS'OXXXO...O'
p21
F0.0
sS'XO..X..XO'
p22
F0.5
sS'XXOOOXX..'
p23
F0.5
sS'OO.XXOOXX'
p24
F0.5
sS'X..OXO..X'
p25
I1
sS'..X.OX...'
p26
F0.5
sS'.XX...O.O'
p27
F1.0
sS'O.XXOOXOX'
p28
F0.5
sS'..XOX.X.O'
p29
I1
sS'.XX...O..'
p30
F0.5
sS'..X.OX..O'
p31
F0.5
sS'X..OXO...'
p32
F0.9999999999999998
sS'.OXO..XOX'
p33
F0.6
sS'XX..O.O.X'
p34
F0.5
sS'XX.OOX...'
p35
F0.5
sS'XXO.OOX.X'
p36
F0.32
sS'OOXX....X'
p37
F0.5
sS'OXXXOOOX.'
p38
F0.5
sS'.X..O.OX.'
p39
F0.5
sS'.OX..XXOO'
p40
F0.9997464698799543
sS'O...X.XO.'
p41
F0.9999999999999998
sS'....X..O.'
p42
F0.5
sS'XOXOXOXXO'
p43
I1
sS'XOOO..XX.'
p44
F0.9996830873499429
sS'XO......X'
p45
F0.5
sS'XOOO..XXX'
p46
I1
sS'.OX..XXO.'
p47
F0.5
sS'XO.......'
p48
F0.5
sS'X.X..OOOX'
p49
F0.9999999999999998
sS'X.O..XOX.'
p50
F0.5
sS'....X..OX'
p51
F0.5
sS'.XOO.XXXO'
p52
F0.5
sS'O...X.XOX'
p53
F0.5
sS'XX.OOX..O'
p54
F0.9999999999999998
sS'OXXXOOOXX'
p55
F0.5
sS'XX..O.O..'
p56
F0.9999999999999998
sS'OOXX.....'
p57
F0.5
sS'.XXOX.OOX'
p58
F0.5
sS'O.OX..OXX'
p59
F0.5
sS'OXOO.X..X'
p60
F0.5
sS'XX.O...O.'
p61
F0.9999999999999998
sS'.XOOXO..X'
p62
F0.9999976615973802
sS'.XO.X..O.'
p63
F0.5
sS'...OOX..X'
p64
F1.0
sS'XOXXO..O.'
p65
F0.0
sS'.X....OXO'
p66
F0.7952
sS'OXO.XXXO.'
p67
F0.5
sS'XOXXO.OOX'
p68
F0.0
sS'.X....OX.'
p69
F0.5
sS'.XO.X..OX'
p70
F0.5
sS'OXO.XXXOO'
p71
F1.0
sS'.OOX.XXOX'
p72
F0.5
sS'XXOOX.X.O'
p73
F0.5
sS'XX.O...OX'
p74
F0.5
sS'.O.XX.XO.'
p75
F0.5
sS'O...XOXOX'
p76
F0.9999999971051978
sS'XOX....OX'
p77
F0.5
sS'.X.XO.X.O'
p78
F0.5
sS'XOX....O.'
p79
F0.5
sS'.X.O.XX.O'
p80
F0.5
sS'X.O..XXO.'
p81
F0.5
sS'.O.XX.XOO'
p82
F0.5
sS'O.OXXXXO.'
p83
I1
sS'XX......O'
p84
F0.5
sS'O..OXX.OX'
p85
F0.9999999999999998
sS'...XXOOOX'
p86
F1.0
sS'..OXXOXO.'
p87
F0.9999999999999998
sS'OXO.XX..O'
p88
F0.9999999999999998
sS'XXO.OOOXX'
p89
F0.0
sS'O.XXOX..O'
p90
F0.0
sS'OO.XOXX..'
p91
F0.5
sS'.OXXOOXX.'
p92
F0.5
sS'.O.X..OXX'
p93
F0.5
sS'XO...OXX.'
p94
F0.5
sS'.X..OXO.X'
p95
F0.5
sS'OXO.OXX.X'
p96
F0.5
sS'.X..XO...'
p97
F0.5
sS'....X.OOX'
p98
F0.9999999999999998
sS'X.X...OOX'
p99
F0.5
sS'.OX.OX...'
p100
F0.9999998971559652
sS'.OO..X..X'
p101
F0.5
sS'...OX.X.O'
p102
F1.0
sS'.OX.OX..X'
p103
I1
sS'XO...OXXO'
p104
F0.9993810299803573
sS'X.X...OO.'
p105
F1.0
sS'.X..XO..O'
p106
F0.9999999999999998
sS'...O..XOX'
p107
F0.5
sS'OXO.OXX..'
p108
F0.5
sS'.X..OXO..'
p109
F0.5
sS'OO.XOXX.X'
p110
F0.5
sS'XO.X.XOXO'
p111
F0.5
sS'.O.X..OX.'
p112
F0.5
sS'OXO.XX...'
p113
F0.5
sS'O.XXOX...'
p114
F0.5
sS'..OXXOXOX'
p115
F0.5
sS'.OXXOOXXO'
p116
F0.83616
sS'....XOXOX'
p117
F0.5
sS'XOXXOO.X.'
p118
F0.5
sS'.OX.OXX.O'
p119
F0.5
sS'.OOX.X..X'
p120
F0.5
sS'X.XO.OXOX'
p121
F0.5
sS'.O.OX...X'
p122
F1.0
sS'..XX...O.'
p123
F0.5
sS'..XX.OO..'
p124
F0.5
sS'O.X.XX.O.'
p125
F0.5
sS'..XX...OO'
p126
F0.5
sS'..XX.OO.X'
p127
F0.5
sS'O.X.XX.OO'
p128
F0.9999999999999998
sS'OX..O...X'
p129
F0.5
sS'X...XXO.O'
p130
F0.5
sS'.XOO.XO.X'
p131
F0.5
sS'XOXXOO.XO'
p132
F1.0
sS'X.X.X..OO'
p133
F0.5
sS'.OX.OXX..'
p134
F0.5
sS'XXO.OO..X'
p135
F0.5
sS'XO.XO.OXX'
p136
F0.5
sS'....XOXO.'
p137
F0.9999996861449132
sS'X.XO.OXO.'
p138
F0.9999999999999587
sS'.OOX.X...'
p139
F1.0
sS'.XOOXOX..'
p140
F0.9990328593443083
sS'.OXO...X.'
p141
F0.5
sS'...XOXXOO'
p142
F1.0
sS'XOO.OXXX.'
p143
F0.5
sS'.OX.XXOXO'
p144
F0.5
sS'O..O.XXOX'
p145
F0.9981110534068522
sS'.XO..OX.X'
p146
F0.5
sS'XOO.OXXXO'
p147
F0.9999999999999194
sS'.XO..OX..'
p148
F0.4999662882729784
sS'.X.OX..XO'
p149
I1
sS'.O.XOO.XX'
p150
F0.9463129088000001
sS'..OOXXXXO'
p151
F0.5
sS'.XOOXOX.X'
p152
F0.5
sS'.OXO...XX'
p153
F0.5
sS'...XOXXO.'
p154
F0.5
sS'..X.O.X..'
p155
F0.5
sS'O.OXOXX..'
p156
F0.5
sS'.X.XO..OX'
p157
F0.5
sS'O.OX.X...'
p158
F1.0
sS'OX..OXX.O'
p159
F0.0
sS'O.XX.XO.O'
p160
F0.9328911360000001
sS'XXXO.XO.O'
p161
I1
sS'OX..OXX..'
p162
F0.5
sS'O.XX.XO..'
p163
F0.5
sS'.X.X.X.OO'
p164
F0.5
sS'..X.O.X.O'
p165
F0.5
sS'XOXOOO.XX'
p166
F0.0
sS'OOX..OX.X'
p167
F0.9999999999930008
sS'.X.XO..O.'
p168
F0.5
sS'O.OXOXX.X'
p169
F0.5
sS'..XOXO.OX'
p170
F1.0
sS'.XO.OOXXX'
p171
I1
sS'.OX...XOX'
p172
F0.5
sS'XXO.X.XOO'
p173
F0.5
sS'X..OOXXO.'
p174
F0.5
sS'...XOOOXX'
p175
F0.5
sS'XXOXO.O..'
p176
F0.0
sS'OOXX..X.O'
p177
F0.9999999999999998
sS'OOXX.OXXO'
p178
F0.868928
sS'.O.XO..X.'
p179
F0.5
sS'X.X.XOO.O'
p180
F0.9999999999999865
sS'OOXX.OXX.'
p181
F0.5
sS'X.OXO.X..'
p182
I1
sS'X.X.XOO..'
p183
F0.5
sS'.O.XO..XX'
p184
F0.5
sS'.X.OOOX.X'
p185
F0.0
sS'X..OOXXOX'
p186
F0.5
sS'.XO.OOXX.'
p187
F0.744
sS'.OX...XO.'
p188
F0.9999995096014269
sS'OX.OX..X.'
p189
I1
sS'X.X.OX.O.'
p190
F0.5
sS'XO.X..X.O'
p191
I1
sS'..O.X.X..'
p192
F0.5
sS'XXO.XOXOO'
p193
F0.0
sS'OX..XOOXX'
p194
I1
sS'X.O..X.OX'
p195
F0.5
sS'.OXXOO.X.'
p196
F0.5
sS'..X.OO.X.'
p197
F0.5
sS'..XXO.O..'
p198
F0.5
sS'XX.XOOO.X'
p199
F0.5
sS'XOOOXXXXO'
p200
F0.5
sS'..OXOO.XX'
p201
F1.0
sS'X..O..OXX'
p202
F0.5
sS'XX.XOOO..'
p203
F0.7952
sS'X.O..OX.X'
p204
F0.5
sS'X..O..OX.'
p205
F0.5
sS'.XOOO.X.X'
p206
F0.9999999999902344
sS'..XXO.O.X'
p207
F0.5
sS'XOXOXO.XO'
p208
F1.0
sS'X.O.X.O..'
p209
F0.9999999999999998
sS'OXOXOX.X.'
p210
F0.5
sS'X.X.OX.OO'
p211
F0.9999999999999998
sS'.OXXOO.XX'
p212
F0.5
sS'..X.OO.XX'
p213
F0.5
sS'X.O..X.O.'
p214
F0.5
sS'..O.X.X.O'
p215
F0.5
sS'XXO.XOXO.'
p216
F0.5
sS'X.XOOOX..'
p217
F0.0
sS'XXO....XO'
p218
F0.5
sS'.OOXXO.X.'
p219
F0.5
sS'.XOXOOXX.'
p220
F0.5
sS'..X.XOXO.'
p221
I1
sS'.O.OX..X.'
p222
F0.5
sS'.OOO.XX.X'
p223
F0.6799999999999999
sS'X.O..O..X'
p224
F0.982407813955584
sS'OXX.X.OXO'
p225
I1
sS'.XXO.XOXO'
p226
F0.5
sS'OOXXOOXXX'
p227
I1
sS'XOOOXX.X.'
p228
F0.5
sS'X.XOO.O.X'
p229
F0.9999999730400534
sS'O...OXX..'
p230
F0.5
sS'XXO.XOO.X'
p231
I1
sS'OXOOX.XOX'
p232
F0.5
sS'XXO.XOO..'
p233
F0.9999999999999971
sS'O...OXX.X'
p234
F0.5
sS'XOOOXX.XO'
p235
F0.5
sS'X.XO.OOXX'
p236
F0.5
sS'O..XXXXOO'
p237
I1
sS'..O...OXX'
p238
F0.5
sS'.XOXOOXXO'
p239
F0.0
sS'.OOXXO.XX'
p240
F0.5
sS'OO.XXXXO.'
p241
I1
sS'.X.XOOXO.'
p242
F0.7952
sS'X..OXXOXO'
p243
F0.5
sS'XOX.XO.O.'
p244
F0.9999999999999865
sS'.X..X.OO.'
p245
F0.5
sS'OXXOXOXXO'
p246
I1
sS'...OXX.XO'
p247
F0.5
sS'OOX.XX.XO'
p248
F0.5
sS'.XXOX.OO.'
p249
F0.8951424
sS'XO..OOX.X'
p250
F0.5
sS'OXO.O..XX'
p251
F0.9999999999999789
sS'O...X.O.X'
p252
F0.5
sS'XOXX..XOO'
p253
I1
sS'XXO.XXO.O'
p254
F0.5
sS'.X.XOOXOX'
p255
F0.5
sS'X.XO..O..'
p256
F1.0
sS'..OOXX.X.'
p257
F0.5
sS'O.XOO.XXX'
p258
I1
sS'.XOXX..OO'
p259
F0.95705032704
sS'.XXOO....'
p260
F0.9999999999996152
sS'.XOXX.OO.'
p261
F0.9927942405962072
sS'XO.XXXO.O'
p262
I1
sS'XOXO.O.X.'
p263
F0.5
sS'.OOX..X..'
p264
F1.0
sS'.XOO.XX.O'
p265
F0.5
sS'.OOX..X.X'
p266
F0.5
sS'.XOXX.OOX'
p267
F0.5
sS'.XXOO...X'
p268
F0.5
sS'XOXO.O.XX'
p269
F0.5
sS'.XOO.XX..'
p270
F0.5
sS'O.XOO.XX.'
p271
F0.9999995096014269
sS'X.XO..O.X'
p272
F0.5
sS'.XOXX..O.'
p273
F0.5
sS'XOO.XXXOO'
p274
F0.5
sS'.XXOX.O.O'
p275
F0.5
sS'.OXX.X.O.'
p276
F0.5
sS'X.OOX.XO.'
p277
F0.9999999999971332
sS'..OOX..X.'
p278
F0.9999999999863297
sS'XXO.OOXOX'
p279
F0.9999999999936
sS'.X..OOX.X'
p280
F0.5
sS'X.OOXOX.X'
p281
I1
sS'O.XX.OXOX'
p282
F0.5
sS'.OOXXXO.X'
p283
I1
sS'X.O..XOXO'
p284
F0.5
sS'O..X.O.XX'
p285
F0.5
sS'OX.XX.OOX'
p286
F0.5
sS'.XX.OO..X'
p287
F0.5
sS'.XX.OO...'
p288
F0.9999995096014269
sS'OX.XX.OO.'
p289
F0.9997971759039634
sS'.XX...XOO'
p290
F0.5
sS'XXO..O.OX'
p291
F1.0
sS'O..X.O.X.'
p292
F0.5
sS'OX..XOO.X'
p293
F1.0
sS'..OOX..XX'
p294
F0.5
sS'O.XX.OXO.'
p295
F0.999999999991251
sS'.X..OOX..'
p296
F0.5
sS'XOO.XXXO.'
p297
F0.5
sS'X.OOX.XOX'
p298
I1
sS'.XXOX.O..'
p299
F0.5
sS'..XOX.OOX'
p300
F0.9999468308801686
sS'.OXX.X.OO'
p301
F1.0
sS'OX.XX..OO'
p302
F0.9725122093056
sS'XXX.O.O..'
p303
I1
sS'.XOX.OX.O'
p304
F0.0
sS'.OOX.OXX.'
p305
F0.7952
sS'.XXOO.X..'
p306
F0.5
sS'XO..OX...'
p307
F0.5
sS'..XXXOXOO'
p308
I1
sS'.OXXO.XXO'
p309
F0.5
sS'O.XXXO.XO'
p310
F0.5
sS'..OO..XXX'
p311
I1
sS'.XOXO.OX.'
p312
F0.0
sS'...X..X.O'
p313
F0.5
sS'OO.XXO..X'
p314
F0.5
sS'XO..OX..X'
p315
F0.5
sS'OX.XX..O.'
p316
F0.5
sS'XXXOOX..O'
p317
I1
sS'.OOX.OXXX'
p318
I1
sS'.XOX.OX..'
p319
F0.5
sS'OXOXXXO..'
p320
I1
sS'X.OXOXOOX'
p321
F0.0
sS'OXXXOO...'
p322
F0.5
sS'..XXO..OX'
p323
F0.5
sS'OOOX..XX.'
p324
F0.0
sS'X.X..O..O'
p325
F0.9999999999999998
sS'.XO..O.X.'
p326
F1.0
sS'.XXOO..XO'
p327
F0.5
sS'O..OXX.X.'
p328
F0.5
sS'XO...OX.X'
p329
F0.5
sS'.OOX..XXO'
p330
F0.6
sS'XO...OX..'
p331
F0.9999999999999998
sS'.OOX..XX.'
p332
F0.5
sS'.OXOX.X..'
p333
I1
sS'...XO.O.X'
p334
F0.5
sS'OOXXXO...'
p335
F0.9999999889572059
sS'.XO..O.XX'
p336
F0.5
sS'X.X..O...'
p337
F0.5
sS'.X.O.X.XO'
p338
F0.5
sS'OOX...OXX'
p339
F0.83616
sS'.XXOO..X.'
p340
F0.5
sS'OXXXOO..X'
p341
F0.5
sS'..XXO..O.'
p342
F0.5
sS'.XXXOO.OX'
p343
F0.5
sS'..XOXOOX.'
p344
F0.9999988027378587
sS'..OOX...X'
p345
F1.0
sS'.XXO.X..O'
p346
F0.5
sS'...XXOO.X'
p347
F0.5
sS'XO.OX..XO'
p348
F0.5
sS'OOXX.O.X.'
p349
F0.5
sS'XX.X.OXOO'
p350
I1
sS'.XX.X..OO'
p351
F0.5
sS'XOOXXX..O'
p352
I1
sS'.O.X.XXO.'
p353
F0.5
sS'XO.OX..X.'
p354
F0.5
sS'...XXOO..'
p355
F0.5
sS'XX..OXOXO'
p356
F0.5
sS'.O.X.XXOO'
p357
F1.0
sS'OOXX.O.XX'
p358
F0.5
sS'O..OX.XOX'
p359
F0.9996830873499429
sS'OO...XXOX'
p360
F0.9999999981473267
sS'XXO.OOX..'
p361
F1.0
sS'.XXOOX.XO'
p362
F0.5
sS'..XOXOOXX'
p363
F0.5
sS'.XXXOO.O.'
p364
F0.7952
sS'O..XOOXX.'
p365
F0.9998701925785366
sS'OXOO.XX.X'
p366
F0.5
sS'.OOXXXOX.'
p367
I1
sS'.OOXX.OX.'
p368
F0.9999942910092292
sS'O...XX..O'
p369
F0.9999999999999998
sS'XO..OX.XO'
p370
F0.5
sS'XOXXOOXXO'
p371
I1
sS'XOXO..XO.'
p372
F1.0
sS'....XOX.O'
p373
F0.9999999999999998
sS'XOXO..XOX'
p374
F0.5
sS'OOX.....X'
p375
F1.0
sS'X..O.O.X.'
p376
F0.5
sS'OXOOXXXOX'
p377
F0.5
sS'.OOX.XXO.'
p378
F0.868928
sS'.XXXOOOOX'
p379
F1.0
sS'.OOXX.OXX'
p380
F0.5
sS'XXOOXXXOO'
p381
F0.5
sS'XXXOO..OX'
p382
I1
sS'...O..OXX'
p383
F0.5
sS'O...XX...'
p384
F0.5
sS'X..XO.XO.'
p385
I1
sS'OXOO.XX..'
p386
F0.5
sS'XO..OX.X.'
p387
F0.5
sS'O..XOOXXX'
p388
I1
sS'O.XOOXX.X'
p389
I1
sS'.XOOX.XO.'
p390
F0.5
sS'O..XOX...'
p391
F0.5
sS'.X.XO.O..'
p392
F0.5
sS'O..X..X.O'
p393
F0.5
sS'XO..O..X.'
p394
F0.5
sS'.O.XOXX..'
p395
F0.5
sS'.XO...X..'
p396
F0.5
sS'OO.XOXXXO'
p397
F0.0
sS'OOX.XXO..'
p398
F1.0
sS'OO..OXX.X'
p399
F0.9887410009315738
sS'OO.XOXXX.'
p400
F0.5
sS'.OOX.OX.X'
p401
F0.9999963462459067
sS'OOX.XXO.X'
p402
I1
sS'XO..O..XX'
p403
F0.5
sS'O.XOOXX..'
p404
F0.982407813955584
sS'O..X..X..'
p405
F0.5
sS'....XOX..'
p406
F0.5
sS'.O.XOXX.O'
p407
F1.0
sS'O..XOX..X'
p408
F0.5
sS'.XOOX.XOX'
p409
F0.5
sS'.XO...X.O'
p410
F0.5
sS'OXX..XOO.'
p411
F1.0
sS'OXXX.O.O.'
p412
F0.5
sS'.OOX....X'
p413
F0.5
sS'.X...X..O'
p414
F0.5
sS'O.OXOXXOX'
p415
F0.5
sS'.XXOXOXO.'
p416
I1
sS'OXO.O.XX.'
p417
F0.9999999999999998
sS'O..O.XX..'
p418
F0.5
sS'OXO.XX.XO'
p419
I1
sS'O..O.XX.X'
p420
F0.5
sS'.O.XXO.X.'
p421
F0.5
sS'.O..XX.XO'
p422
F0.5
sS'OXO.O.XXX'
p423
I1
sS'OOXXXO..X'
p424
F0.5
sS'OXXX.O.OX'
p425
F0.5
sS'OXX..XOOX'
p426
I1
sS'X.XOXOOXO'
p427
F0.5
sS'.XX.OXO..'
p428
F0.5
sS'XOXXX.O.O'
p429
F0.5
sS'..OOX.X.X'
p430
F0.5
sS'XXOX.O.O.'
p431
F0.9999999341798177
sS'..XOXO..X'
p432
F0.5
sS'O.O...XX.'
p433
F1.0
sS'O.O...XXX'
p434
I1
sS'XOX..XOXO'
p435
F0.5
sS'..XOXO...'
p436
F1.0
sS'XXOX.O.OX'
p437
F0.5
sS'..OOX.X..'
p438
F0.5
sS'.XX.OXO.O'
p439
F0.6
sS'XX..OOO.X'
p440
F0.8951424
sS'..OO.X.XX'
p441
F0.5
sS'..XXX.O.O'
p442
F0.5
sS'X.O...XOX'
p443
F0.5
sS'.XOO....X'
p444
F0.5
sS'OX..OX.OX'
p445
F0.9725122093056
sS'X.XOOOXOX'
p446
I0
sS'XO.X..XO.'
p447
I1
sS'.OX.XXO.O'
p448
F1.0
sS'..OO.X.X.'
p449
F0.5
sS'X.O...XO.'
p450
F0.9999999996114662
sS'XOO.X..XO'
p451
F0.5
sS'O.XXOOX..'
p452
F0.5
sS'X.XOOXOXO'
p453
F0.9999999999999998
sS'XOOXOXXXO'
p454
I1
sS'OXX...OX.'
p455
F0.5
sS'XXOXX.O.O'
p456
F0.5
sS'.X.XOO...'
p457
F0.5
sS'.X.XOO..X'
p458
F0.5
sS'OXX...OXO'
p459
F0.9999999999999805
sS'XX.XOOOOX'
p460
F1.0
sS'..XXOOXXO'
p461
F0.5
sS'O...X.OX.'
p462
F1.0
sS'.XO.OXO.X'
p463
F0.0
sS'XOO.X..X.'
p464
F0.5
sS'.XXOOO..X'
p465
F0.0
sS'XXXO..OOX'
p466
I1
sS'OOO.XXXOX'
p467
F0.0
sS'X.XOOXOX.'
p468
F0.5
sS'O..XXXO..'
p469
I1
sS'O.XXOOX.X'
p470
F0.5
sS'.XX.OOXXO'
p471
F0.5
sS'O.O.XX.X.'
p472
F0.5
sS'.X.XOOX.O'
p473
F0.6
sS'O...XO..X'
p474
F0.5
sS'XO..X..O.'
p475
F1.0
sS'OXX..X.O.'
p476
F0.5
sS'OXX..X.OO'
p477
F0.5
sS'.XX..O.XO'
p478
F0.5
sS'.O.O.XOXX'
p479
F0.868928
sS'.XO.OO.XX'
p480
F1.0
sS'O.O.XX.XO'
p481
F0.95705032704
sS'XO..X..OX'
p482
I1
sS'.X.XOOX..'
p483
F0.5
sS'OOO.X.XX.'
p484
F0.0
sS'OXOO..X.X'
p485
F1.0
sS'XX.OXOXOO'
p486
F0.5
sS'OXX..OX..'
p487
F0.5
sS'.X...OXXO'
p488
F0.5
sS'XX.....OO'
p489
F0.9999999999999998
sS'OO.X.X...'
p490
F1.0
sS'.O.XX.X.O'
p491
F0.5
sS'..XO.OXXO'
p492
F0.9463129088000001
sS'OXOO.X.X.'
p493
F0.9976388167585652
sS'O.XXO..X.'
p494
F0.5
sS'X.OX.X.OO'
p495
F0.9999999999999998
sS'XOXO.XOX.'
p496
F0.5
sS'.O.OXX...'
p497
F0.5
sS'XOX..O...'
p498
F0.5
sS'.O.OXX..X'
p499
F0.5
sS'.O..O..XX'
p500
F1.0
sS'..OXXO...'
p501
F0.5
sS'X.X..O.OX'
p502
F0.5
sS'XOX..O..X'
p503
F0.5
sS'XXO.OX.XO'
p504
F0.5
sS'X.OX.X.O.'
p505
F0.5
sS'XOXO.XOXO'
p506
F0.5
sS'XX.OXOXO.'
p507
F0.5
sS'OO.X.X..X'
p508
F0.5
sS'OXX..OX.O'
p509
F0.9999659717633078
sS'OXOO.X.XX'
p510
F0.5
sS'XX.....O.'
p511
F0.5
sS'O.XOO.X.X'
p512
F1.0
sS'X..O..O.X'
p513
F0.9999999999999971
sS'..XO.OXX.'
p514
F0.5
sS'O.XXO..XO'
p515
F0.0
sS'O.OXX..XO'
p516
F0.9997464698799543
sS'OX.X...XO'
p517
F0.5
sS'XOXOOX...'
p518
F0.9999976615973802
sS'XOO.OXOXX'
p519
F0.0
sS'...O..X..'
p520
F0.5
sS'.XOO..X..'
p521
F0.5
sS'...XXO.XO'
p522
F0.5
sS'X.OOX.X.O'
p523
F0.5
sS'XXO.O..OX'
p524
F0.5
sS'X.X..OOX.'
p525
F0.5
sS'OXO..X..X'
p526
F0.5
sS'X.O.OO.XX'
p527
F0.9999659717633078
sS'X.X..OOXO'
p528
F0.9999999999999998
sS'OOX.XO..X'
p529
F0.9999999578750833
sS'O.OXX..X.'
p530
F0.5
sS'.XOO..X.X'
p531
F0.5
sS'...O..X.X'
p532
F0.5
sS'XOXOOX..X'
p533
I1
sS'X.OOX.X..'
p534
F0.5
sS'...OOXX.X'
p535
F0.5
sS'..XOXOX..'
p536
I1
sS'X..OOXO.X'
p537
F1.0
sS'X.O.X.OXO'
p538
F0.9999999999999998
sS'XOX.XXOO.'
p539
F0.5
sS'..OO...XX'
p540
F0.9976388167585652
sS'X.XOO.XO.'
p541
F0.9999999999999669
sS'...X.OX.O'
p542
F1.0
sS'....X.O..'
p543
F0.5
sS'.OOXXXXO.'
p544
I1
sS'XXO.O.OX.'
p545
F0.0
sS'X....O.XO'
p546
F0.5
sS'..OOXOX.X'
p547
F0.9999825775428136
sS'OXO..XXO.'
p548
F0.5
sS'XX.OX...O'
p549
F0.5
sS'...X.OX..'
p550
F0.5
sS'OXO..XXOX'
p551
F0.5
sS'.X..OXOOX'
p552
F0.998976
sS'..XX..OXO'
p553
F0.5
sS'....X.O.X'
p554
F0.5
sS'X....O.X.'
p555
F0.5
sS'X.XOO.XOX'
p556
F0.5
sS'..XX.OOOX'
p557
F0.5
sS'X...O..OX'
p558
F0.5
sS'...OOXX..'
p559
F0.5
sS'X.O.X.OX.'
p560
F0.5
sS'XOX.XXOOO'
p561
F0.0
sS'X.O.XXO.O'
p562
F0.9999999999999998
sS'XOOO.XXXO'
p563
F0.5
sS'XXO..OO.X'
p564
F1.0
sS'..OXXO..X'
p565
F0.5
sS'OX.O...X.'
p566
F1.0
sS'..XX.OX.O'
p567
F0.5
sS'O..X.X...'
p568
F0.5
sS'.OX.X..XO'
p569
F0.5
sS'OX.......'
p570
F0.5
sS'.OXO.OXX.'
p571
F0.95705032704
sS'OO.OXXOXX'
p572
F0.0
sS'OOO.X.X.X'
p573
F0.0
sS'X....OXXO'
p574
F0.5
sS'.OXO.OXXX'
p575
I1
sS'OX......X'
p576
F0.5
sS'XOOO.XXX.'
p577
F0.5
sS'OX.O...XX'
p578
F0.5
sS'.X..X.OXO'
p579
I1
sS'O..X.X..O'
p580
F1.0
sS'..O..X.OX'
p581
F0.5
sS'.XX.OO.X.'
p582
F0.5
sS'O.O..XXXO'
p583
F0.5
sS'..O.OX.XX'
p584
F0.5
sS'X.X.O.OX.'
p585
F0.5
sS'OX.XO..OX'
p586
F0.5
sS'..XO...OX'
p587
F1.0
sS'X.X.OXO..'
p588
F0.5
sS'XO.OX.XXO'
p589
F0.5
sS'X.XXOO...'
p590
F0.5
sS'.O.X.XO.X'
p591
F0.5
sS'XOO.XX.XO'
p592
F0.5
sS'.XOOXXX.O'
p593
F0.5
sS'.XXOXOX.O'
p594
I1
sS'O.XXXOO.X'
p595
F0.5
sS'O.OX.X.XO'
p596
F0.9999999999999998
sS'X...X.O..'
p597
F0.5
sS'OOX.OXX.X'
p598
I1
sS'.XXO.X.OO'
p599
F0.6799999999999999
sS'.X...OX..'
p600
F0.5
sS'OXXOOXOX.'
p601
F0.0
sS'O.OX.X.X.'
p602
F0.5
sS'X...X.O.O'
p603
F0.5
sS'.XOO.OXXX'
p604
I1
sS'.XXO.X.O.'
p605
F0.5
sS'O.XXXOO..'
p606
F0.5
sS'XXOOXX..O'
p607
F0.5
sS'..OXX.X.O'
p608
F0.5
sS'XX..OOXXO'
p609
F0.5
sS'OOX.OXX..'
p610
F0.9725122093056
sS'.XX.OO.XO'
p611
F0.5
sS'O.O..XXX.'
p612
F0.5
sS'X.X.O.OXO'
p613
F1.0
sS'.OXXOOXOX'
p614
F0.0
sS'XOO...XXO'
p615
F0.9997464698799543
sS'X.X.OXO.O'
p616
F0.9999999999999998
sS'.O.X.XO..'
p617
F1.0
sS'X.XXOO..O'
p618
F0.744
sS'..O.OX.X.'
p619
F0.5
sS'O..OXXO.X'
p620
F0.0
sS'....OXXXO'
p621
F0.5
sS'XX....OOX'
p622
F0.5
sS'XX.XOO.XO'
p623
F0.5
sS'OOXOX.XX.'
p624
I1
sS'.........'
p625
F0.5
sS'OXOO.XXX.'
p626
F0.5
sS'X.XO.OXXO'
p627
F0.5
sS'...X.XXOO'
p628
F0.5
sS'.X..OX.OX'
p629
F0.5
sS'XO.OXX.XO'
p630
F0.5
sS'X.X..OO..'
p631
F1.0
sS'.XOOX....'
p632
F0.9887410009315738
sS'.XOOX...X'
p633
F0.5
sS'X..X.OX.O'
p634
I1
sS'X.OOOX.X.'
p635
F0.5
sS'........X'
p636
F0.5
sS'XXX.XOOO.'
p637
I1
sS'.O....OXX'
p638
F0.5
sS'XOXXOO.OX'
p639
F0.0
sS'..OO..X.X'
p640
F0.83616
sS'OXOO.XXXO'
p641
F0.9999999999999998
sS'O..XOXXOX'
p642
F0.5
sS'.XOOX.X.O'
p643
F0.95705032704
sS'.XO.O.XXO'
p644
F0.5
sS'XOX.O....'
p645
F0.5
sS'X..O.X.XO'
p646
F0.5
sS'OOOOXX.XX'
p647
F0.0
sS'..XXO.OXO'
p648
F0.5
sS'O..XXOX.O'
p649
F0.9997464698799543
sS'XX.OXO...'
p650
F0.5
sS'O..O.XXXO'
p651
F0.5
sS'.O.O.XXOX'
p652
F0.744
sS'..XXO.OX.'
p653
F0.5
sS'XXOOOXOX.'
p654
F0.0
sS'O..XXOX..'
p655
F0.5
sS'XX.OXO..O'
p656
F0.9999999730400534
sS'X......OX'
p657
F0.5
sS'O..O.XXX.'
p658
F0.5
sS'XOX.O...X'
p659
F0.5
sS'XOXXO.X.O'
p660
I1
sS'.XOOX.X..'
p661
F0.5
sS'.XO.O.XX.'
p662
F0.5
sS'O..XOXXO.'
p663
F0.5
sS'.XXXOXO.O'
p664
F0.5
sS'XO.OX....'
p665
F1.0
sS'.OO.XXXO.'
p666
F1.0
sS'X.XO.XXOO'
p667
F0.5
sS'XOX..XO.O'
p668
F0.5
sS'O.X.X..OX'
p669
F0.5
sS'..X....OX'
p670
F0.5
sS'O.X.X.OOX'
p671
F0.9999970769967254
sS'XOX..XO..'
p672
F0.5
sS'O.X.X..O.'
p673
F0.9999999999999998
sS'XXOO..XXO'
p674
F0.5
sS'O...OXXOX'
p675
F0.9990328593443083
sS'X..OXXXOO'
p676
F0.5
sS'XO.OX...X'
p677
I1
sS'.OO.XXXOX'
p678
F0.5
sS'.X....XOO'
p679
F0.5
sS'X.XOXOO..'
p680
F0.9999992337522295
sS'OXXOXX.OO'
p681
F0.5
sS'X.OOXXX.O'
p682
F0.5
sS'X.XOXXOO.'
p683
F0.5
sS'XOOO.X.XX'
p684
F0.5
sS'.XXOOXXO.'
p685
F0.5
sS'.O..OXOXX'
p686
F0.5
sS'XOXOO.XOX'
p687
F0.0
sS'O.....OXX'
p688
F0.5
sS'.OX.O...X'
p689
F1.0
sS'.X....XO.'
p690
F0.5
sS'XOOO.X.X.'
p691
F0.5
sS'OXXOXX.O.'
p692
F0.5
sS'.X.OXXOXO'
p693
I1
sS'X.XOXXOOO'
p694
F0.0
sS'X.XOXOO.X'
p695
I1
sS'OX..XO.OX'
p696
F0.5
sS'.XXOOXXOO'
p697
F0.9927942405962072
sS'XOOO..X.X'
p698
F0.9999999999999996
sS'XOXXX.OOO'
p699
F0.0
sS'.XO..XO.X'
p700
F0.5
sS'X.XOOOOXX'
p701
F0.0
sS'X.OO..X..'
p702
F0.5
sS'.X..O....'
p703
F0.5
sS'OX....X.O'
p704
F0.5
sS'...OX.X..'
p705
F0.5
sS'XOXXO...O'
p706
F0.9999999999999998
sS'XO...O.X.'
p707
F0.5
sS'OOXO.XXX.'
p708
F0.5
sS'..X...O..'
p709
F0.5
sS'OX....X..'
p710
F0.5
sS'.OX.O.XOX'
p711
F0.0
sS'.X..O...X'
p712
F0.5
sS'OOXO.XXXO'
p713
F1.0
sS'XOXXX.OO.'
p714
F0.5
sS'X.OO..X.X'
p715
F0.5
sS'XX.O..OXO'
p716
F1.0
sS'.O.XXX..O'
p717
I1
sS'..X.....O'
p718
F0.5
sS'XX..O..O.'
p719
F0.9999999999999998
sS'..XXOX.OO'
p720
F0.5
sS'O...XXOXO'
p721
F0.95705032704
sS'.XX...OXO'
p722
F0.5
sS'.X...O..X'
p723
F0.5
sS'XOO.XOX.X'
p724
I1
sS'..XX..XOO'
p725
F0.5
sS'....XO...'
p726
F0.5
sS'XX..O.OX.'
p727
F0.5
sS'XOXOXXO..'
p728
F0.5
sS'.XOO.XXO.'
p729
F0.5
sS'.XOO.XXOX'
p730
F0.5
sS'XOOX.O.X.'
p731
F0.9887410009315738
sS'XX..O.OXO'
p732
F1.0
sS'.XOX.XOXO'
p733
F0.5
sS'XOXOXXO.O'
p734
F0.5
sS'XOO.XOX..'
p735
F0.9887410009315738
sS'.X...O...'
p736
F0.5
sS'OXOXO.OXX'
p737
F0.0
sS'..X......'
p738
F0.5
sS'XO..O.XOX'
p739
F0.0
sS'..XXOX.O.'
p740
F0.5
sS'O...XXOX.'
p741
F0.5
sS'XX..O..OX'
p742
F0.5
sS'XOO.XXO..'
p743
F0.9999981292779042
sS'XXXO..O..'
p744
I1
sS'XO.O.OXXX'
p745
I1
sS'.XO..XOOX'
p746
F0.5
sS'XX.O.XOXO'
p747
F0.5
sS'.OXXO..XO'
p748
F0.5
sS'OXO.X.O.X'
p749
F1.0
sS'.OXXO..X.'
p750
F0.5
sS'XOOXX..XO'
p751
F0.5
sS'XO.O.OXX.'
p752
F0.9887410009315738
sS'XXO.OO.XX'
p753
F0.4
sS'OO..X...X'
p754
F0.5
sS'OXX..O.OX'
p755
F0.5
sS'O.XO...XX'
p756
F0.5
sS'X..O.OXXO'
p757
F0.5
sS'XO.XOXO..'
p758
F0.5
sS'..X...X.O'
p759
F0.5
sS'XX.OXOX.O'
p760
F0.5
sS'X.X.XO..O'
p761
F0.5
sS'O.X..X.XO'
p762
F0.5
sS'O.O.X..X.'
p763
F0.9987910741803854
sS'.O.X.OX.X'
p764
F0.5
sS'.XO.OXOX.'
p765
F0.0
sS'.XOXX.OXO'
p766
I1
sS'.O.X.OX..'
p767
F1.0
sS'.XO.O.OXX'
p768
F0.0
sS'XO.XOXO.X'
p769
F0.5
sS'X..O.OXX.'
p770
F0.5
sS'X.O.XOXOX'
p771
I1
sS'XO.X.XOO.'
p772
F0.9996830873499429
sS'..XOX.OX.'
p773
F0.5
sS'.OO..X.X.'
p774
F0.5
sS'XO..XXOOX'
p775
I1
sS'X.X...OXO'
p776
F0.5
sS'XXO..O.X.'
p777
F0.4
sS'.OX.OO.XX'
p778
F0.9859262511644672
sS'XO.X.O.OX'
p779
F0.9996830873499429
sS'XO...OXOX'
p780
F0.9999999999990605
sS'XO..OO.XX'
p781
F0.9909928007452591
sS'XXO..O.XO'
p782
F0.0
sS'..XOX.OXO'
p783
F0.9887410009315738
sS'.OXOX.XOX'
p784
I1
sS'OX....XXO'
p785
F0.5
sS'XO.X.XOOX'
p786
F0.5
sS'.OO..X.XX'
p787
F0.5
sS'XOOXXX.O.'
p788
I1
sS'OX..OOXXX'
p789
I1
sS'...XO.XXO'
p790
F0.5
sS'.XOXXOO.X'
p791
F0.5
sS'XO.XX.OO.'
p792
F0.9999999999999998
sS'.X.......'
p793
F0.5
sS'O.O.XXOX.'
p794
F0.965640261632
sS'.XOOXXOOX'
p795
F1.0
sS'O.O.XXOXX'
p796
F0.5
sS'.X......O'
p797
F0.5
sS'X..XOOO.X'
p798
F0.5
sS'X.OX.OOX.'
p799
F0.5
sS'XO.X..O..'
p800
F0.5
sS'OX..OOXX.'
p801
F1.0
sS'XOOO.XX..'
p802
F0.5
sS'..O.XXX.O'
p803
F0.5
sS'..XOOOX.X'
p804
F0.0
sS'.....O..X'
p805
F0.5
sS'OXO.XXOX.'
p806
I1
sS'XO....OXX'
p807
F0.5
sS'OXOXOO.XX'
p808
F0.9953883139815727
sS'OXXXOOX..'
p809
F0.5
sS'XXOO.OOXX'
p810
F0.5
sS'OOX.XO.XX'
p811
F0.5
sS'O..OOXXXX'
p812
I1
sS'OOX.XO.X.'
p813
F0.9953883139815727
sS'XOXOXO.X.'
p814
F0.5
sS'O.OXX.O.X'
p815
F0.9970485209482065
sS'OXXXOOX.O'
p816
F0.0
sS'O..OOXXX.'
p817
F0.9859262511644672
sS'XO....OX.'
p818
F0.5
sS'OXO.X.OXX'
p819
I1
sS'XXO.....O'
p820
F0.5
sS'XOOO.XX.X'
p821
F0.5
sS'XXXO..XOO'
p822
I1
sS'..OXOXX..'
p823
F0.5
sS'O.XXOXO..'
p824
F0.95705032704
sS'OX.X.OXOX'
p825
F0.5
sS'OX..OX..X'
p826
F0.5
sS'.X..X..O.'
p827
F0.5
sS'XOXOX.X.O'
p828
I1
sS'..O.XX.OX'
p829
F0.5
sS'OOXXOOX.X'
p830
F1.0
sS'.OXX..OOX'
p831
F0.868928
sS'..O.XX.O.'
p832
F1.0
sS'OX.O.X.OX'
p833
F0.9996038591874287
sS'OOX.O.X.X'
p834
F1.0
sS'OX.X.OXO.'
p835
F0.5
sS'O.XXOXO.X'
p836
I1
sS'.XX.OXOOX'
p837
I1
sS'XOXOXO..X'
p838
I1
sS'OX.X.X.OO'
p839
F0.95705032704
sS'.OXX...OX'
p840
F0.5
sS'XXX.XOO.O'
p841
I1
sS'O..X.X.XO'
p842
F0.5
sS'.O...XXOX'
p843
F0.5
sS'...OOXXX.'
p844
F0.5
sS'X.O.XO...'
p845
F0.9999997489159306
sS'.XX.O.XO.'
p846
F0.5
sS'O.OX...XX'
p847
F0.5
sS'X.OX..OXO'
p848
F0.5
sS'...OOXXXO'
p849
F0.5
sS'O.OX...X.'
p850
F0.5
sS'OX.....XO'
p851
F0.9999659717633078
sS'XX.OXXOO.'
p852
F0.5
sS'X.O.XO..X'
p853
I1
sS'.O...XXO.'
p854
F0.5
sS'.OXX...O.'
p855
F0.5
sS'.XO.OX.OX'
p856
F0.5
sS'XOXOXO...'
p857
F0.9999999999999998
sS'OX.X.X.O.'
p858
F0.5
sS'OXOXXO.X.'
p859
I1
sS'.XX.OXOO.'
p860
F0.6799999999999999
sS'OXXO.....'
p861
F0.5
sS'O.XOX.OX.'
p862
F0.0
sS'XOX.XO..O'
p863
F0.9999999999999998
sS'.X.X.OXO.'
p864
F0.5
sS'XXO..XO..'
p865
F0.5
sS'..OXXO.XO'
p866
F0.0
sS'XO.XO.OX.'
p867
F0.5
sS'OX..X..OX'
p868
F0.5
sS'OO..XO.XX'
p869
F0.9996038591874287
sS'X.O....X.'
p870
F0.5
sS'X.OOO..XX'
p871
F0.9999999999999998
sS'O.X.O...X'
p872
F1.0
sS'.XXX.OOXO'
p873
F0.5
sS'X.O....XO'
p874
F0.5
sS'..XXOO.OX'
p875
F0.5
sS'OOXXXOXXO'
p876
I1
sS'XO.XO..OX'
p877
F0.0
sS'.X.X.OXOO'
p878
F0.868928
sS'OX..X..O.'
p879
F0.5
sS'XXO..XO.O'
p880
F0.5
sS'OXXO....X'
p881
F0.5
sS'XOX.XO...'
p882
F0.5
sS'XXX.OO.XO'
p883
I1
sS'.OXX.XO.O'
p884
F1.0
sS'XOXX.OOXO'
p885
F0.5
sS'X.XO....O'
p886
F0.9999999999999998
sS'OXXXX.OO.'
p887
F0.5
sS'..OOOXX.X'
p888
F0.982407813955584
sS'XO.X.XO.O'
p889
F1.0
sS'.O..XOOXX'
p890
F1.0
sS'.XXXXOOOO'
p891
F0.0
sS'XOXO.OOXX'
p892
F0.9999997991327445
sS'OXX.O.O.X'
p893
F0.9999999999999998
sS'OOXX.XX.O'
p894
F0.5
sS'OX.XOXOOX'
p895
F0.6
sS'OXXXX.OOO'
p896
F0.0
sS'.XXXXOOO.'
p897
F0.5
sS'X.....OX.'
p898
F0.5
sS'O.OX.X..X'
p899
F0.5
sS'XOXX.OOX.'
p900
F0.5
sS'OXOXO.XOX'
p901
F0.5
sS'X.XOXXO.O'
p902
F0.5
sS'.XXXXO.OO'
p903
F0.5
sS'.OOXXOXX.'
p904
F0.5
sS'XOX.XOX.O'
p905
I1
sS'.XO.OXX.O'
p906
F0.5
sS'..OO.XXOX'
p907
F0.5
sS'.X....X.O'
p908
F0.5
sS'XXOXX.OO.'
p909
F0.5
sS'OXXOXX..O'
p910
F0.5
sS'O.XXX.OXO'
p911
F0.5
sS'X....X.OO'
p912
F0.5
sS'X.O.XO.XO'
p913
F0.0
sS'.O...OXX.'
p914
F0.868928
sS'XXOXX.OOO'
p915
F0.0
sS'.O...OXXX'
p916
I1
sS'X....X.O.'
p917
F0.5
sS'X.O.XO.X.'
p918
F0.5
sS'.O.X..XXO'
p919
F0.5
sS'XOXXO..XO'
p920
F0.5
sS'..OOXXO.X'
p921
F0.9996830873499429
sS'OXX..X..O'
p922
F0.5
sS'.OOX.XXXO'
p923
F0.5
sS'.XO.OXX..'
p924
F0.5
sS'X.OX.OXOX'
p925
I1
sS'OOOXOXX.X'
p926
F0.0
sS'X.X..O.XO'
p927
F0.5
sS'X...O.O.X'
p928
F0.5
sS'...OX...X'
p929
F0.5
sS'OOXX.XO.X'
p930
I1
sS'.OX..XO..'
p931
F0.9859262511644672
sS'.XOX..OXO'
p932
F0.95705032704
sS'XX..OXO.O'
p933
F0.9999992337522295
sS'XXOO.OXX.'
p934
F0.5
sS'.XOX..OX.'
p935
F0.5
sS'XX..OXO..'
p936
F0.5
sS'XXOO.OXXO'
p937
F0.0
sS'OOOXX..X.'
p938
F0.0
sS'.O.OXX.OX'
p939
F0.9999999999999998
sS'.OX..XO.X'
p940
I1
sS'OOXX.XO..'
p941
F0.97800976744448
sS'.XOXX.XOO'
p942
F0.5
sS'XXOOOXO.X'
p943
F0.0
sS'OX.X.O...'
p944
F0.5
sS'OOOX.X..X'
p945
F0.0
sS'O.OOXXX..'
p946
F0.5
sS'.XX...OO.'
p947
F1.0
sS'.XXOXO...'
p948
F0.5
sS'.OXXOXXOO'
p949
I0
sS'.XOXOX.O.'
p950
F0.5
sS'X.X..OO.X'
p951
F0.5
sS'OOX....XX'
p952
F0.5
sS'.OO....XX'
p953
F0.9999988027378587
sS'XOXXXOOXO'
p954
F0.5
sS'OXO..X.XO'
p955
F0.91611392
sS'OXOOXX.X.'
p956
I1
sS'XO.OOXOXX'
p957
F0.9725122093056
sS'OOX....X.'
p958
F0.5
sS'.XOXOX.OX'
p959
F0.5
sS'OXO..X.X.'
p960
F0.5
sS'O.OOXXX.X'
p961
F0.32
sS'O..X.XOOX'
p962
F1.0
sS'.XX...OOX'
p963
F0.5
sS'..XOX.XO.'
p964
I1
sS'OX.X.O..X'
p965
F0.5
sS'.XXOXO..O'
p966
F0.5
sS'..XOXOXOX'
p967
I1
sS'OO..X.XOX'
p968
F0.9984888427254818
sS'..OXOX..X'
p969
F0.5
sS'OX.O..OXX'
p970
F0.0
sS'..XO...X.'
p971
F0.5
sS'XO.....OX'
p972
F0.9999992337522295
sS'OOXO.XX.X'
p973
I1
sS'O.XXXO.OX'
p974
F0.5
sS'OX.OX.X.O'
p975
F0.9999999999999998
sS'.XXOO.O.X'
p976
F0.6
sS'OXOOXXXXO'
p977
I1
sS'X.O.O.XOX'
p978
F0.9993810299803573
sS'.OXO.O.XX'
p979
F0.9328911360000001
sS'XOXXO....'
p980
F0.5
sS'OX.XX.XOO'
p981
F0.5
sS'.XO..XO..'
p982
F0.5
sS'O.XXXO.O.'
p983
F0.9998961540628293
sS'OX.OXOXOX'
p984
F0.9999999999940137
sS'OOXO.XX..'
p985
F0.982407813955584
sS'...OXXOX.'
p986
F0.5
sS'..XO...XO'
p987
F0.5
sS'XO.XOXOOX'
p988
I0
sS'X.O.XOX.O'
p989
F0.0
sS'X.X...XOO'
p990
F0.5
sS'OOXXOXX..'
p991
F0.5
sS'..OX.....'
p992
F0.5
sS'.OOOX..XX'
p993
F0.9990328593443083
sS'..XXO..XO'
p994
F0.5
sS'OXO.X.XO.'
p995
F0.5
sS'..O.OXOXX'
p996
F0.0
sS'..XOXOO.X'
p997
F0.9963106511852582
sS'OXO.X.XOX'
p998
F0.5
sS'X.O.XOX..'
p999
F0.5
sS'OOXXOXX.O'
p1000
F0.0
sS'..XOOXOX.'
p1001
F0.5
sS'X.XXOO.OX'
p1002
F0.5
sS'.X.OX.O..'
p1003
F0.9999999999990605
sS'XX....O.O'
p1004
F0.9999999999999998
sS'..XOXXO..'
p1005
F0.5
sS'...OXX...'
p1006
F0.5
sS'OOXXOX..X'
p1007
I1
sS'.......XO'
p1008
F0.5
sS'.OXOOX.XX'
p1009
I1
sS'XO..OXO.X'
p1010
F0.91611392
sS'OOXX.XOX.'
p1011
F0.5
sS'.X..XO.OX'
p1012
F0.5
sS'.X.O.OX..'
p1013
F0.5
sS'.X.O.OX.X'
p1014
F0.5
sS'.X..XO.O.'
p1015
F0.5
sS'...XX.OXO'
p1016
F0.5
sS'XXX.O.XOO'
p1017
I1
sS'OOXXOX...'
p1018
F0.9725122093056
sS'.OXOOX.X.'
p1019
F1.0
sS'OOXX.XOXO'
p1020
F1.0
sS'...O....X'
p1021
F0.5
sS'XO.X.XO..'
p1022
F0.5
sS'.O.OX.XX.'
p1023
F0.5
sS'X.XXOO.O.'
p1024
F0.7952
sS'XX....O..'
p1025
F0.5
sS'X..O..XXO'
p1026
F0.5
sS'..XOXXO.O'
p1027
F0.5
sS'X..OOXXXO'
p1028
F0.5
sS'OOXXX..O.'
p1029
F1.0
sS'OO...X.X.'
p1030
F0.5
sS'XX.O.XO..'
p1031
F0.5
sS'OOXOOXXXX'
p1032
I1
sS'...XO...X'
p1033
F0.5
sS'.XOXXOOOX'
p1034
F0.9999996861449132
sS'OX..OXO.X'
p1035
F0.9463129088000001
sS'XX.O.XO.O'
p1036
F0.9999999999999998
sS'...XO....'
p1037
F0.5
sS'OOXOOXXX.'
p1038
F0.5
sS'OO...X.XX'
p1039
F0.5
sS'...X...XO'
p1040
F0.5
sS'OX..OOX.X'
p1041
F1.0
sS'OOXXX..OX'
p1042
F0.5
sS'XXOOO..XX'
p1043
F0.5
sS'XX.OXO.O.'
p1044
F0.9976388167585652
sS'XOOO.XXOX'
p1045
F0.999978221928517
sS'OOX..XOXX'
p1046
I1
sS'O.X.O.XX.'
p1047
F0.5
sS'XXO....OX'
p1048
F0.5
sS'OXOX.O.XX'
p1049
F0.5
sS'X..O.OX..'
p1050
F0.5
sS'.X..OX...'
p1051
F0.5
sS'.XOO.X.XO'
p1052
F0.91611392
sS'.X..OX..O'
p1053
F0.5
sS'X..O.OX.X'
p1054
F0.5
sS'XXOO...OX'
p1055
F0.9999999827456342
sS'XXO....O.'
p1056
F0.5
sS'OOX..XOX.'
p1057
F0.99999999998
sS'O.O.X.XOX'
p1058
F0.5
sS'OXOX.O.X.'
p1059
F0.9999999861965073
sS'X.OXO.O.X'
p1060
F0.0
sS'O.X.O.XXO'
p1061
F0.0
sS'XXOOO..X.'
p1062
F0.5
sS'..XO..X.O'
p1063
F1.0
sS'XX.OXO.OX'
p1064
I1
sS'XOXX....O'
p1065
F0.5
sS'.X...XOO.'
p1066
F0.5
sS'OXX..XXOO'
p1067
F0.5
sS'XO.XXOO.X'
p1068
I1
sS'O..XXOXO.'
p1069
F0.9999999999999998
sS'X.OX..O.X'
p1070
F0.5
sS'OX.X.OX.O'
p1071
F0.5
sS'X.OX..O..'
p1072
F0.5
sS'..OXOX...'
p1073
F0.4735242330910958
sS'X.XOXO.XO'
p1074
F0.5
sS'OX.X.OX..'
p1075
F0.5
sS'O..XXOXOX'
p1076
F0.5
sS'.O.XXXOOX'
p1077
I1
sS'XO.XXOO..'
p1078
F0.9999999999999998
sS'.X...XOOX'
p1079
F0.5
sS'O..XXOOXX'
p1080
F0.5
sS'XOXOXOOXX'
p1081
I1
sS'O....X.XO'
p1082
F0.5
sS'XOXO.XXOO'
p1083
F0.9999999999999998
sS'OX..O..X.'
p1084
F0.5
sS'XOX..XOO.'
p1085
F0.9999999995143328
sS'.XXX.OO.O'
p1086
F0.744
sS'.OX.O..XX'
p1087
F0.5
sS'O.X...OX.'
p1088
F0.5
sS'X...OX...'
p1089
F0.5
sS'X.XOX.O..'
p1090
F0.5
sS'XOXO.XXO.'
p1091
F0.5
sS'OX.OOX..X'
p1092
F0.91611392
sS'.XXX.OO..'
p1093
F0.5
sS'XOX..XOOX'
p1094
I1
sS'OX..O..XX'
p1095
F0.5
sS'O.X...OXX'
p1096
F0.5
sS'.OX.O..X.'
p1097
F0.5
sS'X.XOX.O.O'
p1098
F0.9999999999999998
sS'X...OX..O'
p1099
F0.5
sS'..XOOXXXO'
p1100
F0.5
sS'O....X.X.'
p1101
F0.5
sS'XOXOXOOX.'
p1102
F1.0
sS'O..XXOOX.'
p1103
F0.9927942405962072
sS'X.XXOOOOX'
p1104
F1.0
sS'X..X.OOXO'
p1105
F0.5
sS'XO.XO...X'
p1106
F0.5
sS'..X.OO..X'
p1107
F0.5
sS'O.O.X...X'
p1108
F0.5
sS'OXOXO..XX'
p1109
F0.5
sS'O...XXXO.'
p1110
F0.5
sS'X.O...XXO'
p1111
F0.5
sS'OXO...OXX'
p1112
F0.9999999999999891
sS'.XXOXX.OO'
p1113
F0.5
sS'XXO.OXOXO'
p1114
F0.0
sS'XOXOO.X.X'
p1115
F0.5
sS'X..X.OOX.'
p1116
F0.5
sS'.OOX.O.XX'
p1117
F1.0
sS'O...XXXOO'
p1118
F0.9999999999999998
sS'XOOO.X..X'
p1119
F0.9981110534068522
sS'XO.XO....'
p1120
F0.9999999999999998
sS'OXOXO..X.'
p1121
F0.5
sS'..O.OXX..'
p1122
F0.5
sS'X.O..XOOX'
p1123
F0.9999999999999998
sS'O.OXO.XXX'
p1124
I1
sS'XOXOO...X'
p1125
F0.9999999999999998
sS'XOXX.OO..'
p1126
F0.5
sS'XX.O..XOO'
p1127
F1.0
sS'XX....XOO'
p1128
F0.5
sS'XX.XOOOX.'
p1129
F0.5
sS'OXX.XXOOO'
p1130
F0.0
sS'OXOO..XXX'
p1131
I1
sS'XX.O..XO.'
p1132
F0.5
sS'XX.XOOOXO'
p1133
F0.5
sS'OXOO..XX.'
p1134
F1.0
sS'OXOX.O..X'
p1135
F0.5
sS'OXX.XXOO.'
p1136
F0.5
sS'X....XOXO'
p1137
F0.5
sS'O..X...OX'
p1138
F0.5
sS'XOXX.OO.X'
p1139
F0.5
sS'XO.X...XO'
p1140
F0.5
sS'..O.OXX.X'
p1141
F0.5
sS'O.OXO.XX.'
p1142
F0.9993810299803573
sS'OX..XO.X.'
p1143
I1
sS'OXXOO.OXX'
p1144
F0.0
sS'XX.X.OO..'
p1145
F0.5
sS'XXOXXO.O.'
p1146
F0.5
sS'OOXXO.XX.'
p1147
F0.5
sS'XOOXO.X.X'
p1148
I1
sS'.XO.X...O'
p1149
F0.9999999999999998
sS'OO.X.XOX.'
p1150
F0.7952
sS'XXOOX....'
p1151
F0.5
sS'O.XX.OXXO'
p1152
F0.5
sS'OOXXO.XXO'
p1153
F0.0
sS'OO.X.XOXX'
p1154
F0.5
sS'.XO.X....'
p1155
F0.5
sS'..X..OO.X'
p1156
F0.5
sS'XX.OOX.OX'
p1157
F0.5
sS'XXOOX...O'
p1158
F0.9999999730400534
sS'XO.O....X'
p1159
F0.9999999999999998
sS'O.O.XX.OX'
p1160
F0.9999999827456342
sS'XX.X.OO.O'
p1161
F0.744
sS'XXOXXO.OO'
p1162
F0.0
sS'.OOO.X.XX'
p1163
F0.91611392
sS'O.X.O..X.'
p1164
F0.5
sS'XXOO.O.XX'
p1165
F0.5
sS'..OX.O.XX'
p1166
F0.5
sS'XXO..OOXX'
p1167
F0.5
sS'XOX.OOX.X'
p1168
F0.5
sS'X..X.O.OX'
p1169
F0.5
sS'.XOXX.O.O'
p1170
F0.982407813955584
sS'..OO.XX..'
p1171
F0.5
sS'.O.XOXO.X'
p1172
F0.744
sS'.O...X...'
p1173
F0.5
sS'XXOOX.XO.'
p1174
F0.5
sS'.XOOXX...'
p1175
F0.5
sS'.O...X..X'
p1176
F0.5
sS'.XOXX.O..'
p1177
F0.5
sS'X....X..O'
p1178
F0.5
sS'OXO.XOXX.'
p1179
I1
sS'X.OX.OX..'
p1180
I1
sS'.XOOXX..O'
p1181
F0.9999999999988257
sS'..OO.XX.X'
p1182
F0.5
sS'XOX.OOX..'
p1183
F0.9998377407231708
sS'XXO..OOX.'
p1184
F0.9990328593443083
sS'O.XXO..OX'
p1185
F0.9953883139815727
sS'OXXOO...X'
p1186
F0.9999999999999998
sS'X..X.O.O.'
p1187
F0.9999999999999998
sS'O.X.O..XX'
p1188
F0.5
sS'..OX.O.X.'
p1189
F0.5
sS'XXOO.O.X.'
p1190
F0.9999825775428136
sS'O.XXX..O.'
p1191
F0.5
sS'O.X.XXXOO'
p1192
I1
sS'....OXX..'
p1193
F0.5
sS'O.OXX..OX'
p1194
F1.0
sS'.X.XXOXOO'
p1195
F0.5
sS'....OOXX.'
p1196
F0.7952
sS'O..X.OXX.'
p1197
F0.5
sS'XO..O.XX.'
p1198
F0.5
sS'O.X.OX.X.'
p1199
F0.5
sS'XXO..O..X'
p1200
F0.5
sS'OX.XXOOX.'
p1201
I1
sS'.XOOXXXO.'
p1202
F0.5
sS'O.X.OX.XO'
p1203
F0.0
sS'OXO.XO.XX'
p1204
I1
sS'X.XOXOXO.'
p1205
I1
sS'OXOXXXXOO'
p1206
I1
sS'XXO..O...'
p1207
F0.5
sS'.O.X.OXOX'
p1208
F0.9999998714449565
sS'.XOOXXXOO'
p1209
F0.5
sS'O.XXX..OO'
p1210
F0.9725122093056
sS'....OXX.O'
p1211
F0.5
sS'OXOXXOO.X'
p1212
F0.9999996861449132
sS'O..X.OXXO'
p1213
F0.5
sS'XO..O.XXO'
p1214
F0.9995048239842859
sS'XXXOO..XO'
p1215
I1
sS'O....OXXX'
p1216
I1
sS'.O.X.OOXX'
p1217
F0.5
sS'.X.....O.'
p1218
F0.5
sS'OX.XX.O.O'
p1219
F0.9328911360000001
sS'.OX.X.OX.'
p1220
F0.5
sS'OXXO.X...'
p1221
F0.5
sS'O.XX.OX.O'
p1222
F0.9999976615973802
sS'XO...XXOO'
p1223
F0.9999999999999998
sS'.OX...XXO'
p1224
F0.5
sS'OOXO...XX'
p1225
F0.83616
sS'O.XO....X'
p1226
F0.9999999999999998
sS'XOXOO..X.'
p1227
F0.5
sS'.OXXOXX.O'
p1228
F0.5
sS'XXXXO..OO'
p1229
I1
sS'XOXOO..XX'
p1230
F0.5
sS'O.XOXXO..'
p1231
F0.0
sS'..O.OXXOX'
p1232
F0.5
sS'.OX.X.OXO'
p1233
F0.5
sS'O....OXX.'
p1234
F1.0
sS'OXXO.X..O'
p1235
F0.5
sS'O.XX.OX..'
p1236
F0.5
sS'.X.....OX'
p1237
F0.5
sS'XO...XXO.'
p1238
F0.5
sS'XOX.OOXXO'
p1239
F1.0
sS'OOXOXX..X'
p1240
I1
sS'OX...XOOX'
p1241
F0.9997638816758565
sS'O.OOXXXXO'
p1242
F0.9999999999999994
sS'OXO..XO.X'
p1243
F0.5
sS'XO.O.X.XO'
p1244
F0.5
sS'X.OX..XO.'
p1245
I1
sS'..XXO.XO.'
p1246
F0.5
sS'O.OOXXXX.'
p1247
F0.4
sS'.XO.XOOXX'
p1248
I1
sS'.XX.OOO.X'
p1249
F0.7952
sS'..XXO.XOO'
p1250
F0.9999468308801686
sS'XOXX.XOOO'
p1251
F0.0
sS'.OOX.X.OX'
p1252
F0.9999888496274008
sS'X..OO.OXX'
p1253
F0.5
sS'OOXOXX...'
p1254
F0.9999996076811415
sS'...XXX.OO'
p1255
I1
sS'OX..X.O.X'
p1256
F0.5
sS'O.X.OX..X'
p1257
I1
sS'O.O..XXOX'
p1258
F0.5
sS'.O.XX..O.'
p1259
F1.0
sS'.OX.OXOXX'
p1260
I1
sS'OO..XX.XO'
p1261
F0.9999999999863297
sS'OO...X..X'
p1262
F0.9999999999999998
sS'XXOOXO.X.'
p1263
I1
sS'O.O.XXX..'
p1264
F0.5
sS'XOOX.OXX.'
p1265
I1
sS'X.O..OX..'
p1266
F0.9999910797019206
sS'...XX...O'
p1267
F0.5
sS'XXXO.XOO.'
p1268
I1
sS'O.O.XXX.O'
p1269
F0.9999999999999998
sS'.OX.OXOX.'
p1270
F0.6799999999999999
sS'OO...XX..'
p1271
F0.5
sS'.O.XX..OX'
p1272
F0.5
sS'OX..X.O..'
p1273
F1.0
sS'OXOXOX.XO'
p1274
F0.0
sS'OXOXXXOXO'
p1275
I1
sS'.OXX.XOXO'
p1276
F0.5
sS'..X..O.OX'
p1277
F0.5
sS'X..O.XOX.'
p1278
F0.5
sS'.XOOOX.XX'
p1279
F0.5
sS'...OXXO.X'
p1280
F0.5
sS'XOX..XXOO'
p1281
F0.5
sS'O.X..OXOX'
p1282
F0.9999999999999988
sS'OO..XOXXX'
p1283
I1
sS'..XOOX.X.'
p1284
F0.5
sS'O.XX..X.O'
p1285
F0.5
sS'OOOXXO.XX'
p1286
F0.0
sS'X.XXXOOO.'
p1287
F0.5
sS'O.XO.OXX.'
p1288
F0.9999993870017836
sS'XOX.O.OX.'
p1289
F0.5
sS'XOX.O.OXX'
p1290
F0.5
sS'XOXO..X..'
p1291
F0.5
sS'O.XO.OXXX'
p1292
I1
sS'..XOOX.XO'
p1293
F0.5
sS'.O.XXXOXO'
p1294
I1
sS'X.XXXOOOO'
p1295
F0.0
sS'OO..XOXX.'
p1296
F0.6799999999999999
sS'...OXXO..'
p1297
F0.5
sS'.XOOOX.X.'
p1298
F0.5
sS'X..O.XOXO'
p1299
F0.5
sS'.OOXXOOXX'
p1300
F0.9999999990514313
sS'.XXXOO..O'
p1301
F0.744
sS'.OX.XOXOX'
p1302
I1
sS'X.OX.O...'
p1303
F0.9999999999999998
sS'OXX.O..XO'
p1304
F0.0
sS'X.OO.OXXX'
p1305
I1
sS'.OX...X..'
p1306
F0.5
sS'O.XX.O..X'
p1307
F0.5
sS'.X.X.OX.O'
p1308
F0.5
sS'....O.XXO'
p1309
F0.5
sS'X..O..X.O'
p1310
F0.5
sS'...XO.OX.'
p1311
F0.5
sS'X.O..OXOX'
p1312
F0.9999999999990605
sS'.O......X'
p1313
F0.5
sS'...X.O.X.'
p1314
F0.5
sS'..XXO.OOX'
p1315
F0.868928
sS'X..O..X..'
p1316
F0.5
sS'...X.O.XO'
p1317
F0.5
sS'.X....OOX'
p1318
F0.5
sS'...XO..OX'
p1319
F0.5
sS'OXOO...XX'
p1320
F0.9999999999999736
sS'OOOX...XX'
p1321
F0.0
sS'.O.XOOX.X'
p1322
F0.9999727774106463
sS'O.XX.O...'
p1323
F0.5
sS'OXX.O..X.'
p1324
F0.5
sS'.OX...X.O'
p1325
F0.9942353924769658
sS'O.XOX.X..'
p1326
I1
sS'X.OO.OXX.'
p1327
F0.9996830873499429
sS'.OOOX.XXX'
p1328
I1
sS'...OO.X.X'
p1329
F0.744
sS'....O.XX.'
p1330
F0.5
sS'X.OX.O..X'
p1331
F0.5
sS'XOX..X.O.'
p1332
F0.5
sS'OX..OXOXX'
p1333
F0.5
sS'.OX.....X'
p1334
F0.5
sS'XOX.X.O..'
p1335
F0.5
sS'...XXOOXO'
p1336
F0.97800976744448
sS'XOXX...OO'
p1337
F0.9999999999999998
sS'O.O.XXXXO'
p1338
F0.5
sS'X.X.OX..O'
p1339
F0.5
sS'XOX.OOXX.'
p1340
F0.5
sS'XOX.X.O.O'
p1341
F0.5
sS'...XXOOX.'
p1342
F0.5
sS'XOXX...O.'
p1343
F0.5
sS'.XOXXX.OO'
p1344
I1
sS'.OX......'
p1345
F0.5
sS'..XOO.OXX'
p1346
F0.6
sS'OX..OXOX.'
p1347
F0.5
sS'.O.XXOXXO'
p1348
F0.5
sS'XOX..X.OO'
p1349
F0.5
sS'XXXO.O...'
p1350
I1
sS'O...XX.XO'
p1351
F0.5
sS'O.X.OXX.O'
p1352
F0.0
sS'.OO.X...X'
p1353
F1.0
sS'OO.XX.X..'
p1354
F0.5
sS'OX...OOXX'
p1355
F0.9976388167585652
sS'OO.OXX..X'
p1356
F0.9999999999829121
sS'..O.XOOXX'
p1357
F0.9328911360000001
sS'OXXOO.XOX'
p1358
F1.0
sS'OX.XOXO..'
p1359
F0.5
sS'OX.OXO.XX'
p1360
I1
sS'.X.X..O.O'
p1361
F0.5
sS'.O..XXOX.'
p1362
F0.5
sS'XO.XOO..X'
p1363
F0.9999998393061956
sS'OX.XOXO.X'
p1364
F0.5
sS'O.X.OXX..'
p1365
F0.5
sS'...X.XOXO'
p1366
F0.5
sS'OO.XX.X.O'
p1367
F0.7952
sS'X..X.X.OO'
p1368
F0.5
sS'O..X..XXO'
p1369
F0.5
sS'.XX..OO..'
p1370
F0.9999169232502634
sS'XX.OO.O.X'
p1371
F0.6799999999999999
sS'OXOXXOXO.'
p1372
F0.5
sS'XXO.XXOO.'
p1373
F0.5
sS'.XO..XXO.'
p1374
F0.5
sS'X.XO.OOX.'
p1375
F0.9999999827456342
sS'X.O....OX'
p1376
F0.9999999999999998
sS'XXO.XXOOO'
p1377
F0.0
sS'.XO..XXOO'
p1378
F0.5
sS'.XX..OO.X'
p1379
F0.5
sS'.XO...XXO'
p1380
F0.5
sS'..O.O.X.X'
p1381
F0.9995048239842859
sS'XX..OXOO.'
p1382
F0.6
sS'XOXX.OOOX'
p1383
F1.0
sS'..XXX.OO.'
p1384
F0.5
sS'.XXOXO.OX'
p1385
F0.5
sS'OX.X.O.OX'
p1386
F0.5
sS'..OX.X.XO'
p1387
F0.5
sS'OX.O..XX.'
p1388
F0.5
sS'XOXXOX..O'
p1389
F0.5
sS'OXXOO.X.X'
p1390
F0.5
sS'O..XX.OOX'
p1391
F1.0
sS'.OOX..XOX'
p1392
F0.868928
sS'XO.X.OXOX'
p1393
I1
sS'OX..XXXOO'
p1394
F0.5
sS'..XXX.OOO'
p1395
F0.0
sS'XX..OXOOX'
p1396
F0.5
sS'OX.O..XXO'
p1397
F1.0
sS'.OXXXOXO.'
p1398
I1
sS'.XXOXO.O.'
p1399
F0.8951424
sS'O.O.XX..X'
p1400
F0.5
sS'.OXXXX.OO'
p1401
I1
sS'O.X.XOX..'
p1402
I1
sS'....OX.X.'
p1403
F0.5
sS'XOXXOXOXO'
p1404
F0.5
sS'XOOXOXX..'
p1405
I1
sS'XX..OOX..'
p1406
F0.5
sS'..X.OXOXO'
p1407
F0.5
sS'...X..XOO'
p1408
F0.868928
sS'XXOXO.XO.'
p1409
I1
sS'XO..OX.OX'
p1410
F0.0
sS'..XX..OO.'
p1411
F0.5
sS'...XOX..O'
p1412
F0.5
sS'XX..OOX.O'
p1413
F0.8951424
sS'...X..XO.'
p1414
F0.5
sS'..X.OXOX.'
p1415
F0.5
sS'.O.XX.OOX'
p1416
F1.0
sS'..XX..OOX'
p1417
F0.5
sS'OX.XXOX.O'
p1418
F0.5
sS'XO.OXO.X.'
p1419
F0.965640261632
sS'...XOX...'
p1420
F0.5
sS'O.O.XX...'
p1421
F1.0
sS'.XO.X.OOX'
p1422
F1.0
sS'....OX.XO'
p1423
F0.5
sS'OXOX...OX'
p1424
F0.5
sS'OOXXX.O..'
p1425
F0.9999999999999587
sS'XXO.O.X.O'
p1426
F1.0
sS'O.XXO...X'
p1427
F0.5
sS'.XOX.OXO.'
p1428
F0.9996830873499429
sS'OOXXOOXX.'
p1429
F0.868928
sS'OXXXXOXOO'
p1430
I1
sS'.XO.XOXO.'
p1431
F0.5
sS'.X.OOX.X.'
p1432
F0.5
sS'XOX.OOXOX'
p1433
F0.0
sS'OX.OX.O.X'
p1434
F0.0
sS'XXX.O.OOX'
p1435
I1
sS'XXOO.OXOX'
p1436
F1.0
sS'.X.OOX.XO'
p1437
F0.5
sS'.XXO.XOOX'
p1438
I1
sS'.XOX.OXOX'
p1439
F0.5
sS'XXO.O.X..'
p1440
F0.5
sS'XX.XXOO.O'
p1441
F0.5
sS'O.XXO....'
p1442
F0.5
sS'XXXO.OXO.'
p1443
I1
sS'....OXXOX'
p1444
F0.5
sS'..XXO....'
p1445
F0.5
sS'XOX.X..OO'
p1446
F0.9999999999999998
sS'OO.X.XO.X'
p1447
F1.0
sS'OXX...O..'
p1448
F0.5
sS'XOXO.OXOX'
p1449
F0.5
sS'XOXO.X.XO'
p1450
F0.5
sS'.XOXXO...'
p1451
F0.5
sS'.X.O.OXXO'
p1452
F0.83616
sS'OXX...O.X'
p1453
F0.5
sS'.XOXXO..O'
p1454
F0.0
sS'.X..X...O'
p1455
F0.5
sS'OXOXOX.OX'
p1456
F0.5
sS'....OXXO.'
p1457
F0.5
sS'XXOOOXXXO'
p1458
F0.5
sS'..XXO...O'
p1459
F0.5
sS'XOX.X..O.'
p1460
F0.5
sS'XXO.O...X'
p1461
F0.5
sS'.XOO.XOX.'
p1462
F0.7952
sS'XOXO...X.'
p1463
F0.5
sS'.XXO.O...'
p1464
F0.9909928007452591
sS'.OXOX..X.'
p1465
F0.5
sS'XO..XOOX.'
p1466
F1.0
sS'.OXOX..XO'
p1467
F1.0
sS'.O.X.XX.O'
p1468
F0.5
sS'X.XOXOX.O'
p1469
I1
sS'OXX.X...O'
p1470
F0.5
sS'.XXO.O..X'
p1471
F0.5
sS'.XOO.XOXX'
p1472
F0.5
sS'.XOO..OXX'
p1473
F0.6799999999999999
sS'XOXO...XO'
p1474
F0.5
sS'XXO.O....'
p1475
F0.5
sS'XX.OOOXXO'
p1476
F0.0
sS'.XOX.O..X'
p1477
F0.5
sS'OXOOX..XX'
p1478
I1
sS'XX.OX..OO'
p1479
F0.9999999827456342
sS'...X.OXOX'
p1480
F0.5
sS'O.....XX.'
p1481
F0.5
sS'XOXXO.OX.'
p1482
F0.5
sS'..OX..OXX'
p1483
F0.5
sS'.O..OX.X.'
p1484
F0.5
sS'OX...XO.X'
p1485
F0.5
sS'OO.XXOXXO'
p1486
F0.5
sS'XOXXO.OXO'
p1487
F0.5
sS'OX...XO..'
p1488
F0.5
sS'OO.XO.X.X'
p1489
F0.9927942405962072
sS'.O..OX.XX'
p1490
F0.5
sS'O.OXXX.OX'
p1491
I1
sS'OO.XXOXX.'
p1492
F0.5
sS'..OX..OX.'
p1493
F0.5
sS'...X.OXO.'
p1494
F1.0
sS'XX.OX..O.'
p1495
F0.5
sS'OXXOO.X..'
p1496
F0.5
sS'.X...XXOO'
p1497
F0.5
sS'.XOX.O...'
p1498
F0.5
sS'O...OXXXO'
p1499
F0.0
sS'.OXXXO...'
p1500
F0.5
sS'..XX.OXO.'
p1501
F0.5
sS'..O.XX.XO'
p1502
F0.5
sS'.X..O..OX'
p1503
F0.5
sS'.O.XOXXO.'
p1504
F0.0
sS'O.X.X.OX.'
p1505
F0.5
sS'O.X..O.X.'
p1506
F0.5
sS'O.X..O.XX'
p1507
F0.5
sS'X.XOOOXXO'
p1508
F0.0
sS'X..XXOOOX'
p1509
I1
sS'O.X.X.OXO'
p1510
F0.9999942910092292
sS'O...OXXX.'
p1511
F0.5
sS'.OXXXO..O'
p1512
F0.9999999999999998
sS'..XX.OXOO'
p1513
F0.9999574647041348
sS'..XOOO.XX'
p1514
F0.0
sS'X.XXOOO.X'
p1515
F0.5
sS'..O.XOXOX'
p1516
F0.9999999971051978
sS'XOOXXOX..'
p1517
I1
sS'XOXO.OX..'
p1518
F1.0
sS'OX.XO....'
p1519
F0.5
sS'X.X.XOOXO'
p1520
F0.5
sS'.OXX..XO.'
p1521
F0.5
sS'X.XOX.OXO'
p1522
F0.5
sS'X.OXOO..X'
p1523
F0.9998701925785366
sS'X.OX..OOX'
p1524
F0.9328911360000001
sS'.OXX..XOO'
p1525
F0.9999999999999998
sS'O....OX.X'
p1526
F0.97800976744448
sS'XOXO.OX.X'
p1527
F0.5
sS'OX.XO...X'
p1528
F0.5
sS'XOXOO.X..'
p1529
F0.5
sS'XXX...OO.'
p1530
I1
sS'X.XXOOO..'
p1531
F0.9999999988142891
sS'XOXXOOO.X'
p1532
F0.5
sS'XO.XOX.XO'
p1533
F0.5
sS'XX.O.OOXX'
p1534
F0.5
sS'.OX.X...O'
p1535
F1.0
sS'OOXXO.OXX'
p1536
F0.8951424
sS'XXOO.X.OX'
p1537
F0.5
sS'O...XXX.O'
p1538
F0.5
sS'OX.XOOOXX'
p1539
F0.5
sS'XOOX.OX.X'
p1540
I1
sS'.XXX.OOO.'
p1541
F0.6
sS'X..OXXOOX'
p1542
I1
sS'X.OOXXO..'
p1543
F0.9999574647041348
sS'O.XX..XO.'
p1544
F0.5
sS'..X.X.OO.'
p1545
F0.5
sS'X.OXXOO..'
p1546
F0.9999999999999998
sS'..XO.O.X.'
p1547
F0.5
sS'..X.X.OOX'
p1548
F0.5
sS'X.OXXOO.X'
p1549
I1
sS'..XO.O.XX'
p1550
F0.5
sS'X.OOXXO.X'
p1551
I1
sS'.OX.XOX..'
p1552
I1
sS'O.XX..XOO'
p1553
F0.9999574647041348
sS'.OX.X....'
p1554
F0.5
sS'OXX.XOOOX'
p1555
F0.5
sS'..OOX.XOX'
p1556
F0.9999910797019206
sS'..OXX..XO'
p1557
F0.5
sS'XXOO.X.O.'
p1558
F0.5
sS'OO.O.XX.X'
p1559
F0.95705032704
sS'XX.OXOO..'
p1560
F0.5
sS'O..OX.XXO'
p1561
F0.9927942405962072
sS'OX..X....'
p1562
F0.5
sS'O..X....X'
p1563
F0.5
sS'O..XOXX..'
p1564
F0.5
sS'X.O...X..'
p1565
F0.5
sS'XOX.O.O.X'
p1566
F1.0
sS'.OX.XXOO.'
p1567
F1.0
sS'.X.XOO.OX'
p1568
F0.5
sS'O.X.X.O.X'
p1569
F0.5
sS'XO.OXOXX.'
p1570
F0.5
sS'......OXX'
p1571
F0.5
sS'..O..O.XX'
p1572
F0.965640261632
sS'......OX.'
p1573
F0.5
sS'O.X.X.O..'
p1574
F0.5
sS'XO.OXOXXO'
p1575
F0.9999999999999998
sS'.OX.XXOOX'
p1576
I1
sS'O..OX.XX.'
p1577
F0.5
sS'XO...OOXX'
p1578
F0.9993810299803573
sS'O..X.....'
p1579
F0.5
sS'O..XOXX.O'
p1580
F0.0
sS'XX.OXOO.X'
p1581
I1
sS'X.O...X.O'
p1582
F0.9999999999999998
sS'O.OXOXOXX'
p1583
F0.0
sS'OXOX..OX.'
p1584
F0.97800976744448
sS'O.XXX.O..'
p1585
F0.5
sS'..XO.....'
p1586
F0.5
sS'X...O..XO'
p1587
F0.5
sS'O.OXX.XXO'
p1588
F0.5
sS'OXXOOXXO.'
p1589
F0.9999910797019206
sS'.XO..XOXO'
p1590
F0.91611392
sS'OXO.OXXXO'
p1591
F0.0
sS'OOXOX..X.'
p1592
F0.91611392
sS'XX.O.OOX.'
p1593
F0.9999996076811415
sS'.X.OO.OXX'
p1594
F0.5
sS'XX.OOXOX.'
p1595
F0.5
sS'..X..OOXX'
p1596
F0.5
sS'OXXX.OO.X'
p1597
F0.5
sS'.O.XOOXXX'
p1598
I1
sS'XXOOX..XO'
p1599
I1
sS'.O.XOOXX.'
p1600
F0.97800976744448
sS'.XO..XOX.'
p1601
F0.5
sS'OXXX.OO..'
p1602
F0.5
sS'..X..OOX.'
p1603
F0.5
sS'XX.O..X.O'
p1604
F0.5
sS'XX.OOXOXO'
p1605
F1.0
sS'OOXOX..XX'
p1606
F0.5
sS'.OX....OX'
p1607
F1.0
sS'XOXO..XXO'
p1608
F0.5
sS'XX.OOO.X.'
p1609
F0.0
sS'O.XXX.O.O'
p1610
F0.9999928637615365
sS'OXXOOXXOX'
p1611
I1
sS'X...O..X.'
p1612
F0.5
sS'..XO....X'
p1613
F0.5
sS'OXOX..OXX'
p1614
F0.5
sS'X..O.X..O'
p1615
F0.5
sS'.OXO.X.X.'
p1616
F0.5
sS'OX...X.XO'
p1617
F0.5
sS'OXOX.XOXO'
p1618
F0.5
sS'OXXO..XOX'
p1619
F0.5
sS'O.X..X.OX'
p1620
I1
sS'XOOX..OXX'
p1621
F0.5
sS'.OO..XXXO'
p1622
F0.5
sS'.XOOXX.XO'
p1623
I1
sS'XX.XOOX.O'
p1624
I1
sS'XOOX..OX.'
p1625
F0.5
sS'O.X..X.O.'
p1626
F0.9999999999999998
sS'.OO..XXX.'
p1627
F0.5
sS'X..O.X...'
p1628
F0.5
sS'.OXO.X.XO'
p1629
F0.5
sS'.X.OXO.X.'
p1630
I1
sS'OXXO..XO.'
p1631
F0.9999999999999998
sS'OXOX.XOX.'
p1632
F0.5
sS'X.OXOXO..'
p1633
F0.0
sS'XO.X.O.X.'
p1634
F0.5
sS'.O..XX.O.'
p1635
F0.9999999999999998
sS'O..XO.XX.'
p1636
F0.5
sS'..OXO.XX.'
p1637
F0.5
sS'.OOXOX.X.'
p1638
F0.5
sS'OX....XO.'
p1639
F0.5
sS'.X.XOOOXX'
p1640
F0.5
sS'OXO..X.OX'
p1641
F0.5
sS'XOXOXX.O.'
p1642
F0.5
sS'X..OO...X'
p1643
F0.5
sS'.OXXXOX.O'
p1644
I1
sS'XOXOXXOOX'
p1645
I1
sS'XOXOXXOO.'
p1646
F0.5
sS'XOXOXX.OO'
p1647
F0.9999999999999999
sS'.XO.O...X'
p1648
F0.5
sS'.X.XOOOX.'
p1649
F0.5
sS'XO.X.O.XO'
p1650
F0.9859262511644672
sS'XXXX.O.OO'
p1651
I1
sS'O..XO.XXO'
p1652
F0.0
sS'..OXO.XXO'
p1653
F0.9992262874754466
sS'XXOO.O..X'
p1654
F1.0
sS'OX....XOX'
p1655
F0.5
sS'.O..XX.OX'
p1656
F0.5
sS'XX.OO.XXO'
p1657
F0.5
sS'XOOXO...X'
p1658
F0.6799999999999999
sS'....OXO.X'
p1659
F1.0
sS'.XX.O.OXO'
p1660
F0.9999999999999805
sS'O.O..X.XX'
p1661
F0.5
sS'OXXO.X.OX'
p1662
I1
sS'.X...O.OX'
p1663
F0.5
sS'OX.X..O..'
p1664
F0.5
sS'..XO.XO..'
p1665
F0.9942353924769658
sS'..OO.XOXX'
p1666
F0.5
sS'.XO.X.O.X'
p1667
F0.5
sS'X..OXXOO.'
p1668
F0.999999999999803
sS'.OXOXXOX.'
p1669
F0.5
sS'.XX.X.OO.'
p1670
F0.5
sS'O..O.X..X'
p1671
F0.9999999999999998
sS'.OXOXXOXO'
p1672
F0.5
sS'.XX.X.OOO'
p1673
F0.0
sS'XO...X.XO'
p1674
F0.5
sS'.XOO..XOX'
p1675
F0.5
sS'..XO.XO.X'
p1676
I1
sS'.XX.O.OX.'
p1677
F0.5
sS'.XO.X.O..'
p1678
F0.9999825775428136
sS'OXXO.X.O.'
p1679
F1.0
sS'O.O..X.X.'
p1680
F0.5
sS'XX..X..OO'
p1681
F0.5
sS'.OXOXO.XX'
p1682
F0.5
sS'O.OXXOX.X'
p1683
F0.5
sS'X.O...OX.'
p1684
F0.5
sS'.XXO....O'
p1685
F1.0
sS'OXOX....X'
p1686
F0.5
sS'O.O.XOXXX'
p1687
I1
sS'X...O....'
p1688
F0.5
sS'XX...OOXO'
p1689
F1.0
sS'...XOX.O.'
p1690
F0.5
sS'...XOX.OX'
p1691
F0.5
sS'..OOXX.XO'
p1692
F0.9999999999999998
sS'X...O...X'
p1693
F0.5
sS'OXOX.....'
p1694
F0.5
sS'XX...OOX.'
p1695
F0.5
sS'XXOO.XX.O'
p1696
F0.5
sS'X.O...OXX'
p1697
F0.5
sS'X.XOO..OX'
p1698
F0.5
sS'XXXOXO.O.'
p1699
I1
sS'XOO.O..XX'
p1700
F0.744
sS'.XXO.....'
p1701
F0.5
sS'.OXOXO.X.'
p1702
F0.6
sS'...XX..O.'
p1703
F0.5
sS'X..OO.X..'
p1704
F0.5
sS'X.X.XO.OO'
p1705
F0.9999999999999831
sS'.XO.O..XX'
p1706
F0.5
sS'.O.XX...O'
p1707
F1.0
sS'OXX..O...'
p1708
F0.5
sS'.XOXO....'
p1709
F0.5
sS'OX.X.OXXO'
p1710
F0.5
sS'OXX.XO.O.'
p1711
F0.9999999999999931
sS'.OXOX...X'
p1712
F0.5
sS'XXOOXX.OO'
p1713
F0.5
sS'XXOXOO.X.'
p1714
F0.5
sS'XOOXOOXXX'
p1715
I1
sS'...OXOOXX'
p1716
F0.7952
sS'.OXOX....'
p1717
F1.0
sS'...X.OXXO'
p1718
F0.5
sS'XXOOXX.O.'
p1719
F0.5
sS'XXOXOO.XO'
p1720
F0.0
sS'OXX.XO.OX'
p1721
F0.5
sS'.XOXO...X'
p1722
F0.5
sS'OXX..O..X'
p1723
F0.5
sS'XOOX..O.X'
p1724
F0.9999999999348148
sS'X.X.XO.O.'
p1725
F0.5
sS'.O.XX....'
p1726
F0.5
sS'.XO.O..X.'
p1727
F0.5
sS'XOOXO.OXX'
p1728
F0.0
sS'..X.OXO..'
p1729
F0.9999999999999998
sS'XO.O.OX.X'
p1730
F0.9999999999999996
sS'.XO.OX.X.'
p1731
F0.5
sS'X.X..XOO.'
p1732
F0.5
sS'.XO..X..O'
p1733
F0.5
sS'X.OXX.OOX'
p1734
I1
sS'.XOOX..OX'
p1735
F0.9859262511644672
sS'XOOX.X...'
p1736
F0.5
sS'XXO.OOXX.'
p1737
F0.5
sS'X.X.OXOO.'
p1738
F0.91611392
sS'O.X....XO'
p1739
F0.5
sS'OOX..X.X.'
p1740
F0.5
sS'XOOX.X..O'
p1741
F1.0
sS'XXO.OOXXO'
p1742
F0.0
sS'OXOXXOOXX'
p1743
I1
sS'O.X....X.'
p1744
F0.5
sS'OOX..X.XO'
p1745
F0.5
sS'..X..OXXO'
p1746
F0.5
sS'X.X.OXOOX'
p1747
I1
sS'..X.OXO.X'
p1748
I1
sS'XO..XXO..'
p1749
F0.5
sS'.XO.OX.XO'
p1750
F0.5
sS'XXOOO.OXX'
p1751
F0.0
sS'X.X..XOOO'
p1752
F0.0
sS'.XO..X...'
p1753
F0.5
sS'X.OX.O.OX'
p1754
F0.9997971759039634
sS'XXO.OXXOO'
p1755
F1.0
sS'XX.OOOX..'
p1756
F0.0
sS'X...XOO..'
p1757
F0.9999999999999998
sS'.OOX.X.X.'
p1758
F0.5
sS'XXOOOXX.O'
p1759
F0.5
sS'O.X..O..X'
p1760
F0.5
sS'.X.OX.XO.'
p1761
F0.5
sS'XOXX..O..'
p1762
F0.5
sS'OXXXOOXOX'
p1763
F0.5
sS'X..OOOX.X'
p1764
F0.0
sS'.......OX'
p1765
F0.5
sS'..OX.OXOX'
p1766
F0.9999999999863297
sS'OXXXOOXO.'
p1767
F0.5
sS'XOXX.XO.O'
p1768
F0.5
sS'.X.OX.XOO'
p1769
F0.9999999578750833
sS'XOXX..O.O'
p1770
F0.5
sS'XXO.OXXO.'
p1771
F0.5
sS'OXOOX...X'
p1772
F0.9984888427254818
sS'X...XOO.X'
p1773
I1
sS'.X....O.X'
p1774
F0.5
sS'.OOX.X.XO'
p1775
F0.9999999999999831
sS'OX.OOX.XX'
p1776
F0.5
sS'..O.XXXO.'
p1777
F0.5
sS'X.O.X..XO'
p1778
F0.5
sS'O....XOX.'
p1779
F0.5
sS'.XXX...OO'
p1780
F0.5
sS'XOX..X..O'
p1781
F0.5
sS'X.OX...O.'
p1782
F0.9997971759039634
sS'XOX.X.OXO'
p1783
F0.5
sS'XX.OOXXOO'
p1784
F1.0
sS'.OXX.OOX.'
p1785
F0.5
sS'XX..X.OO.'
p1786
F0.5
sS'.OXOOXX.X'
p1787
I1
sS'XXOOXXOXO'
p1788
I1
sS'.OXX.OOXX'
p1789
F0.5
sS'.OXOOXX..'
p1790
F0.97800976744448
sS'XX.OOXXO.'
p1791
F0.5
sS'XX..X.OOO'
p1792
F0.0
sS'..O.XXXOO'
p1793
F1.0
sS'X.OX...OX'
p1794
F0.5
sS'X.O..XXOO'
p1795
F1.0
sS'OX.OOX.X.'
p1796
F0.5
sS'O....XOXX'
p1797
F0.5
sS'XOXO..O.X'
p1798
F1.0
sS'XXXOXOOOX'
p1799
I1
sS'.X..O.XO.'
p1800
F0.5
sS'O.OXXXO.X'
p1801
I1
sS'..XX.OOXO'
p1802
F0.5
sS'.XXOO.X.O'
p1803
F0.9976388167585652
sS'..OXXXXOO'
p1804
I1
sS'.OXX..O.X'
p1805
F0.5
sS'.XXX.O.O.'
p1806
F0.5
sS'.XOOX.OXX'
p1807
I1
sS'....X.XO.'
p1808
F0.5
sS'..XOXO.XO'
p1809
F0.868928
sS'O.....X.X'
p1810
F0.5
sS'..O.XOX.X'
p1811
F0.5
sS'O..X..OX.'
p1812
F0.5
sS'O.....X..'
p1813
F0.5
sS'XX.OOX.O.'
p1814
F1.0
sS'XOO.OX..X'
p1815
F0.5
sS'O..X..OXX'
p1816
F0.5
sS'....X.XOO'
p1817
F0.9999999999999998
sS'..XOXO.X.'
p1818
F0.5
sS'OXO..XXXO'
p1819
F0.5
sS'..XX.OOX.'
p1820
F0.5
sS'.OXX..O..'
p1821
F0.5
sS'OOX.XOOXX'
p1822
F0.5
sS'.X..O.XOX'
p1823
F0.5
sS'O.O.XOXX.'
p1824
F0.5
sS'OX.O.XOX.'
p1825
F0.0
sS'.XXX.O.OO'
p1826
F0.6799999999999999
sS'XOX..O.XO'
p1827
F0.5
sS'OX...O.XX'
p1828
F0.5
sS'...XOO..X'
p1829
F0.5
sS'OXOX..X..'
p1830
F0.5
sS'OXXOO..X.'
p1831
F0.5
sS'X..XOO.OX'
p1832
F0.9999928637615365
sS'OXOXXOX..'
p1833
F0.5
sS'.OX.X..OX'
p1834
F0.5
sS'O.XO..XX.'
p1835
F0.5
sS'XXOO.X..O'
p1836
F0.5
sS'X...O.X.O'
p1837
F0.9999999999999998
sS'X..O.O.XX'
p1838
F0.5
sS'OXOX.XX.O'
p1839
F0.5
sS'.OX.X..O.'
p1840
F1.0
sS'.OXO.XXXO'
p1841
F0.5
sS'O.XO..XXO'
p1842
F0.9999992337522295
sS'XXOO.X...'
p1843
F0.5
sS'X...O.X..'
p1844
F0.5
sS'XOX..O.X.'
p1845
F0.5
sS'OXOX..X.O'
p1846
F0.5
sS'OXOXXOX.O'
p1847
F0.0
sS'OXXOO..XX'
p1848
F0.5
sS'.XO..XX.O'
p1849
F0.5
sS'.O.OXO.XX'
p1850
F0.9990328593443083
sS'..XO..XXO'
p1851
F0.5
sS'.OX.OX.XO'
p1852
F0.5
sS'XXO..X..O'
p1853
F0.5
sS'.XX.OXXOO'
p1854
F0.5
sS'..OOOX.XX'
p1855
F0.91611392
sS'XO..OXX.O'
p1856
F1.0
sS'..OX.OOXX'
p1857
F0.5
sS'O..X.XOX.'
p1858
F0.5
sS'X.XOOXO.X'
p1859
I1
sS'..OXXOOX.'
p1860
F0.9984888427254818
sS'..OXO..X.'
p1861
F0.5
sS'X.XOX...O'
p1862
F0.5
sS'XOOOXXXO.'
p1863
F1.0
sS'X.X.OOO.X'
p1864
F0.9999999730400534
sS'XOOOXXXOX'
p1865
I1
sS'XO.O..OXX'
p1866
F1.0
sS'..OXXOOXX'
p1867
F0.5
sS'..OXO..XX'
p1868
F0.5
sS'X.XOOXO..'
p1869
F0.9999825775428136
sS'XO..OXX..'
p1870
F0.5
sS'O..X.XOXO'
p1871
F0.95705032704
sS'X.O.O.XX.'
p1872
F0.5
sS'OO.OXXX.X'
p1873
F0.5
sS'X.OXXOOXO'
p1874
F0.0
sS'XOOX.XOOX'
p1875
F0.5
sS'.XXXXOO.O'
p1876
F0.5
sS'XOX.XX.OO'
p1877
F0.5
sS'..X....O.'
p1878
F0.5
sS'..X.O..XO'
p1879
F0.5
sS'X..X...OO'
p1880
F0.9999999999999998
sS'X.X.X.O.O'
p1881
F0.5
sS'OX.XXOXO.'
p1882
F0.5
sS'XOXXXOOO.'
p1883
F0.9999988027378587
sS'...OXOXOX'
p1884
F0.9999999971051978
sS'OXX.O.OX.'
p1885
F0.5
sS'XX..O....'
p1886
F0.5
sS'.OXOXXXO.'
p1887
I1
sS'OOX..XXOX'
p1888
I1
sS'OXOXOOX.X'
p1889
F1.0
sS'XX..O...O'
p1890
F0.9999999999999998
sS'OOX..XXO.'
p1891
F0.9970485209482065
sS'XOXXOX.OO'
p1892
F0.0
sS'OXX.O.OXX'
p1893
F0.5
sS'.XOO.OXX.'
p1894
F0.9463129088000001
sS'XOXXXOOOX'
p1895
I1
sS'X.O.O.XXO'
p1896
F0.9999999943460894
sS'X.OXXOOX.'
p1897
F0.5
sS'..XXOX..O'
p1898
F0.5
sS'OO.OXXX..'
p1899
F0.9887410009315738
sS'..X.O..X.'
p1900
F0.5
sS'X..X...O.'
p1901
F0.5
sS'OX.XXOXOO'
p1902
F0.9999999963814973
sS'XX.O.O.XO'
p1903
F0.9909928007452591
sS'XX.XXOOOO'
p1904
F0.0
sS'O..OOX.XX'
p1905
F0.9999992337522295
sS'..OXOXOX.'
p1906
F0.0
sS'XXO.OX...'
p1907
F0.5
sS'X..OOXOX.'
p1908
F0.5
sS'X..O.X.OX'
p1909
F0.5
sS'XO..XOXXO'
p1910
F0.5
sS'X..O.X.O.'
p1911
F0.5
sS'.XOO.O.XX'
p1912
F1.0
sS'XXO.OX..O'
p1913
F0.5
sS'OXXX.OOOX'
p1914
F0.5
sS'X..OOXOXX'
p1915
F0.5
sS'O.XOXX.XO'
p1916
F0.5
sS'XX.O.O.X.'
p1917
F0.5
sS'OX.XXOO..'
p1918
F0.9999860620342509
sS'XX.XXOOO.'
p1919
F0.5
sS'XO.XO.O.X'
p1920
F0.5
sS'.OX..XOX.'
p1921
F0.5
sS'X.....OXO'
p1922
F0.5
sS'OX.X.O.XO'
p1923
F0.9999999999999998
sS'.XOXXO.O.'
p1924
F0.5
sS'X.XXOO.XO'
p1925
F0.5
sS'X.OX..X.O'
p1926
I1
sS'.XXOXO.XO'
p1927
I1
sS'OX...XXO.'
p1928
F0.5
sS'XXOOX.O.X'
p1929
I1
sS'OX...XXOO'
p1930
F0.5
sS'XO.X.OXXO'
p1931
I1
sS'XOX....XO'
p1932
F0.5
sS'OX.O.OX.X'
p1933
F0.9996038591874287
sS'XXOOX.O..'
p1934
F0.9999999999999977
sS'OXXO..X..'
p1935
F0.5
sS'.XOXXO.OX'
p1936
F0.5
sS'.OOXOXX.X'
p1937
F0.5
sS'OX.X.O.X.'
p1938
F0.5
sS'OXXOXO.OX'
p1939
F0.9999999999863297
sS'OXX...OOX'
p1940
F0.9328911360000001
sS'.X..X..OO'
p1941
F0.5
sS'.XOXOO..X'
p1942
F0.5
sS'..XOOXOXX'
p1943
I1
sS'.XOOXXO.X'
p1944
F0.5
sS'OO.XXO.XX'
p1945
F0.5
sS'X.XX.OOOX'
p1946
F0.5
sS'....XOXXO'
p1947
F0.5
sS'..OX.XXO.'
p1948
F0.5
sS'XOOXX.O.X'
p1949
I1
sS'.O.XX.OX.'
p1950
F0.5
sS'XOXXOXOO.'
p1951
F0.0
sS'XOOXX.O..'
p1952
F0.9999999999999998
sS'X.X.OOXXO'
p1953
F0.5
sS'.XOOXXO..'
p1954
F0.8951424
sS'..OX.XXOO'
p1955
F1.0
sS'X.XX.OOO.'
p1956
F0.9992262874754466
sS'XO..OOXX.'
p1957
F0.9725122093056
sS'OO.XXO.X.'
p1958
F0.5
sS'.O.XX.OXO'
p1959
F0.9997971759039634
sS'.X.OX.O.X'
p1960
F0.5
sS'OX.X.OO.X'
p1961
F0.5
sS'.OX.O.XX.'
p1962
F0.5
sS'OO..X.X..'
p1963
F0.9999999861965073
sS'O.O.X.XX.'
p1964
F0.5
sS'XOOX...OX'
p1965
F0.91611392
sS'.XXO...OX'
p1966
F0.5
sS'XOO..OX.X'
p1967
F0.5
sS'.XOX..O.X'
p1968
F0.5
sS'.O...XXXO'
p1969
F0.5
sS'.XOX..O..'
p1970
F0.5
sS'.XXO...O.'
p1971
F1.0
sS'OO..X.X.X'
p1972
F0.5
sS'.OX.O.XXO'
p1973
F0.5
sS'O.O.X.XXO'
p1974
F0.9942353924769658
sS'XX..XOO..'
p1975
F0.5
sS'.OXXXO.OX'
p1976
F0.5
sS'OXX.OXXOO'
p1977
F0.0
sS'O.XOXOOXX'
p1978
F0.0
sS'X.OXO..X.'
p1979
F0.5
sS'XXX..OOOX'
p1980
I1
sS'.XX.O....'
p1981
F0.5
sS'O..X.X.OX'
p1982
F0.5
sS'OOXX.OOXX'
p1983
F0.5
sS'X.OXO..XO'
p1984
F0.8951424
sS'OXOXOXX..'
p1985
F0.5
sS'.XX.O...O'
p1986
F1.0
sS'.OO.OXX.X'
p1987
F0.999978221928517
sS'..X.X...O'
p1988
F0.5
sS'.OXXXO.O.'
p1989
F1.0
sS'XO..OOXXX'
p1990
I1
sS'OX.O....X'
p1991
F0.5
sS'XX..XOO.O'
p1992
F0.5
sS'OXX.OXXO.'
p1993
F0.5
sS'O.XO.XXXO'
p1994
F0.5
sS'..XO.OOXX'
p1995
F0.5
sS'O.XX.OOXX'
p1996
F0.5
sS'..X..O.XO'
p1997
F0.5
sS'.XO..X.OX'
p1998
F0.5
sS'.OXX.OX..'
p1999
F0.5
sS'XX..OOOX.'
p2000
F0.9992262874754466
sS'XXOOX.XOO'
p2001
F0.5
sS'.OOOX.X.X'
p2002
F0.999978221928517
sS'XX..OOOXX'
p2003
F0.5
sS'.OXX.OX.O'
p2004
F0.9999999999999998
sS'.XO..X.O.'
p2005
F0.5
sS'XXXO.OX.O'
p2006
I1
sS'..X.X.XOO'
p2007
I1
sS'O.XX.OOX.'
p2008
F0.5
sS'XX.XO..O.'
p2009
F0.5
sS'..X..O.X.'
p2010
F0.5
sS'XO.OOXX.X'
p2011
F0.5
sS'XX.OOOXOX'
p2012
F0.0
sS'OXX.XOO.X'
p2013
F0.5
sS'OXXO..X.O'
p2014
F0.9999999999999998
sS'OOXOXOXXX'
p2015
I1
sS'XXO.OXX.O'
p2016
F0.5
sS'OOX.XXOXO'
p2017
F0.9999659717633078
sS'OO.XXOXOX'
p2018
F0.9999999999999998
sS'..XO.O..X'
p2019
F0.5
sS'OOX.XXOX.'
p2020
F0.5
sS'X.OXX.O.O'
p2021
F0.9999999999999998
sS'.XOXO.X..'
p2022
F0.5
sS'O.OXXX.XO'
p2023
I1
sS'OXX.XOO..'
p2024
F0.9999999981473267
sS'OO..XXXXO'
p2025
F0.5
sS'XOOOOXX.X'
p2026
F0.9859262511644672
sS'OX.X.X..O'
p2027
F0.5
sS'XO.OOXX..'
p2028
F0.5
sS'XX....OXO'
p2029
F0.5
sS'OXXX.O.XO'
p2030
F0.5
sS'...OXXXO.'
p2031
F0.5
sS'XOO..OXX.'
p2032
F0.97800976744448
sS'X.OO.XX..'
p2033
F0.5
sS'X.X.O.OOX'
p2034
F0.9999999730400534
sS'X.O.X.X.O'
p2035
F0.5
sS'X..OOX.OX'
p2036
F0.9999999999999998
sS'XOX.XO.OX'
p2037
I1
sS'..O.X..OX'
p2038
F1.0
sS'XOO..OXXX'
p2039
I1
sS'XXO...X.O'
p2040
F0.5
sS'...OXXXOO'
p2041
F0.9999999999999998
sS'X.OO.XX.O'
p2042
F0.5
sS'OX..X...O'
p2043
F1.0
sS'O..XX.XO.'
p2044
F0.5
sS'X.OOOXX.X'
p2045
F0.5
sS'.O..X.OX.'
p2046
F0.5
sS'.O..XXO..'
p2047
F0.9999999999999998
sS'OXX.O...X'
p2048
F0.5
sS'.X.OOX..X'
p2049
F0.5
sS'O..X.OOXX'
p2050
F0.5
sS'XO..X.OX.'
p2051
F0.5
sS'.XOXOXOOX'
p2052
F0.0
sS'.OXXXOOOX'
p2053
F1.0
sS'XO..X.OXO'
p2054
F0.5
sS'O.OX.X.OX'
p2055
F0.9999997489159306
sS'.X.OOX...'
p2056
F0.5
sS'X..XOOXOX'
p2057
I1
sS'O..XX.XOO'
p2058
F0.9984888427254818
sS'....OO.XX'
p2059
F1.0
sS'OX.O.XO.X'
p2060
F0.0
sS'XXXX.OO.O'
p2061
I1
sS'OXOX.OOXX'
p2062
F0.9984888427254818
sS'XOXOO.XX.'
p2063
F0.5
sS'.O..XXO.X'
p2064
F0.5
sS'X.OOOXX..'
p2065
F0.5
sS'.O..X.OXX'
p2066
F0.5
sS'XOXO.XX.O'
p2067
F0.5
sS'...XOXOX.'
p2068
F0.5
sS'..OOX.XX.'
p2069
F0.5
sS'.OX.XOOX.'
p2070
F0.5
sS'XXOOO...X'
p2071
F0.5
sS'.XO.OXXO.'
p2072
F0.5
sS'XXOOOOX.X'
p2073
F0.0
sS'.O.O.X..X'
p2074
F0.9725122093056
sS'O.XX.OO.X'
p2075
F0.5
sS'X...X.OO.'
p2076
F0.9999999999999998
sS'..X.XO.XO'
p2077
F0.5
sS'.OX.XOOXX'
p2078
F0.5
sS'...XOXOXO'
p2079
F0.5
sS'..OOX.XXO'
p2080
F0.9987910741803854
sS'.XO.OXXOX'
p2081
F0.5
sS'XX.OOO..X'
p2082
F0.0
sS'OXX.OX...'
p2083
F0.5
sS'O.X..X...'
p2084
F0.5
sS'.X.X.O.O.'
p2085
F0.5
sS'OX.OOXXX.'
p2086
F0.5
sS'O.O..XOXX'
p2087
F0.5
sS'X..O...X.'
p2088
F0.5
sS'....XO.X.'
p2089
F0.5
sS'X..O...XO'
p2090
F0.5
sS'....XO.XO'
p2091
F0.9999999999999998
sS'OXX.OX..O'
p2092
F0.0
sS'.X.X.O.OX'
p2093
F0.5
sS'O.X..X..O'
p2094
F0.5
sS'XX.XOXO.O'
p2095
F0.5
sS'OX.OOXXXO'
p2096
F0.0
sS'OX.X..OOX'
p2097
F0.5
sS'X.OOOXOXX'
p2098
F0.0
sS'O....X..X'
p2099
F0.5
sS'X.XOO...X'
p2100
F0.5
sS'.OXXOXO..'
p2101
F0.9328911360000001
sS'OO.OXXXOX'
p2102
F0.5
sS'.XX.OXOXO'
p2103
F0.5
sS'X.O.O..X.'
p2104
F0.5
sS'.X.XOXOXO'
p2105
F0.5
sS'.OOXOXXOX'
p2106
F0.0
sS'.XX..OXO.'
p2107
F0.5
sS'OX.OXXX.O'
p2108
F0.5
sS'X..X....O'
p2109
F0.5
sS'OX.OXOX.X'
p2110
F0.5
sS'O.X.X..XO'
p2111
F0.5
sS'OX.OXOX..'
p2112
F0.9999999999999998
sS'X.O.O..XX'
p2113
F0.5
sS'.XX..OXOO'
p2114
F0.9999999911657647
sS'O....X...'
p2115
F0.5
sS'.OXXOXO.X'
p2116
I1
sS'X.XOO....'
p2117
F1.0
sS'.X.XXOOOX'
p2118
F0.5
sS'XXOO.XXOO'
p2119
F0.5
sS'....OOXXX'
p2120
I1
sS'OX.XXO.XO'
p2121
I1
sS'OOX..XX..'
p2122
F0.5
sS'X.OXOXOXO'
p2123
F0.0
sS'..OX..O.X'
p2124
F0.5
sS'.O...X.OX'
p2125
F0.9999860620342509
sS'OOX..XX.O'
p2126
F0.965640261632
sS'XXOO.XXO.'
p2127
F0.5
sS'..XXOO.X.'
p2128
F0.5
sS'X.OOOX..X'
p2129
F0.5
sS'.X.XXOOO.'
p2130
F0.5
sS'X.....O..'
p2131
F0.5
sS'O.XO.OX.X'
p2132
F0.9999999999930008
sS'XOXO.X...'
p2133
F0.5
sS'X.XOXO.O.'
p2134
F0.5
sS'OX.XOO.X.'
p2135
F0.5
sS'..OX...XO'
p2136
F0.5
sS'.X.O.OXOX'
p2137
F0.5
sS'.....O.X.'
p2138
F0.5
sS'OOXXXOXOX'
p2139
I1
sS'..OX...X.'
p2140
F0.5
sS'OXO.XXO.X'
p2141
F0.5
sS'.O.XOX.OX'
p2142
F0.0
sS'.....O.XX'
p2143
F0.5
sS'OX.XOO.XX'
p2144
F0.5
sS'XOXO.X..O'
p2145
F0.5
sS'X.....O.X'
p2146
F0.5
sS'X.XOXO.OX'
p2147
I1
sS'X...OOOXX'
p2148
F0.5
sS'O.XXOO.XX'
p2149
F0.5
sS'.....XXO.'
p2150
F0.5
sS'.O.X..XO.'
p2151
F1.0
sS'O.OXX....'
p2152
F0.9999999999999998
sS'XOOXX..O.'
p2153
F0.5
sS'...XO.X.O'
p2154
F0.9328911360000001
sS'OOXO.X.XX'
p2155
I1
sS'XOOX.X.XO'
p2156
F0.5
sS'.....OXOX'
p2157
F0.5
sS'XO.XXX.OO'
p2158
I1
sS'.O.XXOOXX'
p2159
F0.5
sS'XXO.O..X.'
p2160
F0.5
sS'..XOXXOO.'
p2161
F0.9995048239842859
sS'XX.O.XOOX'
p2162
F0.5
sS'XO...X.O.'
p2163
F0.5
sS'OX.XXXOO.'
p2164
I1
sS'.OXO..OXX'
p2165
F0.744
sS'.OXOXOOXX'
p2166
F0.9997971759039634
sS'.X.OX.OOX'
p2167
F0.9942353924769658
sS'XO...X.OX'
p2168
F0.5
sS'XX.O.OO.X'
p2169
F0.8951424
sS'..XOXXOOX'
p2170
I1
sS'.OXOX..OX'
p2171
F0.5
sS'XXO.O..XO'
p2172
F0.5
sS'..OXOOX.X'
p2173
F0.9999954328073833
sS'OX..XOX..'
p2174
F0.5
sS'...XO.X..'
p2175
F0.5
sS'O.OXX...X'
p2176
F0.5
sS'.O.X..XOX'
p2177
F0.5
sS'O.XXOO.X.'
p2178
F0.5
sS'OOXO.X.X.'
p2179
F1.0
sS'XOOXX..OX'
p2180
I1
sS'OX..OX.X.'
p2181
F0.5
sS'OX.X...O.'
p2182
F0.5
sS'..XXOO.XO'
p2183
F0.5
sS'XOXX..OO.'
p2184
F0.5
sS'.XXXO...O'
p2185
F0.5
sS'..OO.XXX.'
p2186
F0.5
sS'.OXO.OX.X'
p2187
F0.9992262874754466
sS'.X.O....X'
p2188
F0.5
sS'X..O.OXOX'
p2189
F0.9999999999992484
sS'..OO.XXXO'
p2190
F0.5
sS'X....O.OX'
p2191
F0.9999999999999998
sS'XOOXXXXOO'
p2192
I1
sS'X.O.OOX.X'
p2193
F0.9990328593443083
sS'...X.O.OX'
p2194
F0.5
sS'XXOX.XO.O'
p2195
F0.5
sS'O.XOXXOXO'
p2196
F0.0
sS'.XXOOX.O.'
p2197
F0.744
sS'XOXX..OOX'
p2198
F0.5
sS'OO.XOXOXX'
p2199
F0.5
sS'OXXO.XO..'
p2200
F0.0
sS'OX.X...OX'
p2201
F0.5
sS'.OX.XXXOO'
p2202
I1
sS'X.OXOO.XX'
p2203
F0.5
sS'O..X...XO'
p2204
F0.5
sS'XO....X..'
p2205
F0.5
sS'X.O..XX.O'
p2206
F0.5
sS'X.OX....O'
p2207
F0.9999999999999998
sS'..XXXO.OO'
p2208
F0.9999999999999998
sS'X.XXO.OXO'
p2209
F0.5
sS'XOOX.....'
p2210
F0.9999999999999944
sS'XXXOO.XO.'
p2211
I1
sS'XOOX....X'
p2212
F0.5
sS'OXXXX..OO'
p2213
F0.5
sS'..XXXO.O.'
p2214
F0.5
sS'O..X...X.'
p2215
F0.5
sS'X.OXOO.X.'
p2216
F0.91611392
sS'...XXOX.O'
p2217
F0.5
sS'XXXOXOO..'
p2218
I1
sS'XX..X.O.O'
p2219
F0.5
sS'X.OX.....'
p2220
F0.5
sS'.X..O.X.O'
p2221
F0.5
sS'O.O..XX..'
p2222
F0.5
sS'OOOXXOXX.'
p2223
F0.0
sS'.O...OX.X'
p2224
F0.868928
sS'.XXX.O..O'
p2225
F0.5
sS'XO.XOX.O.'
p2226
F0.0
sS'..XOO.X.X'
p2227
F0.5
sS'X...OO..X'
p2228
F0.5
sS'..XOXOXXO'
p2229
I1
sS'X.XXXOO.O'
p2230
F0.5
sS'.X...XO..'
p2231
F0.5
sS'O..X..O.X'
p2232
F0.5
sS'OX.X.XOOX'
p2233
F0.5
sS'O.X.XOO.X'
p2234
F0.5
sS'XO.OX.OX.'
p2235
F0.9999999999999998
sS'XXOOXOOXX'
p2236
I1
sS'..X..OXO.'
p2237
F0.9463129088000001
sS'XO.OX.OXX'
p2238
I1
sS'..X..OXOX'
p2239
F0.5
sS'.X...XO.O'
p2240
F0.5
sS'.X.X.OOOX'
p2241
F0.5
sS'XXOXOXO.O'
p2242
F0.0
sS'X.OXOOX.X'
p2243
I1
sS'OX.X.XOO.'
p2244
F1.0
sS'X.XOX.OO.'
p2245
F0.9999981292779042
sS'XOOXXOOXX'
p2246
I1
sS'.X..O.X..'
p2247
F0.5
sS'..XOO.X..'
p2248
F0.5
sS'O.XOO..XX'
p2249
F0.9999999999999998
sS'OOX.XXXO.'
p2250
I1
sS'OO.X.XXXO'
p2251
F0.5
sS'O.O..XX.X'
p2252
F0.5
sS'.OXXX.O.O'
p2253
F0.9999999999733001
sS'OXOX.XXO.'
p2254
F0.5
sS'OO.X..OXX'
p2255
F0.5
sS'XO.OXOX.X'
p2256
I1
sS'OX...X..O'
p2257
F0.5
sS'.OOXXX.XO'
p2258
I1
sS'OX.XX.O..'
p2259
F0.5
sS'.O.O.XXX.'
p2260
F0.5
sS'XOOOX.XXO'
p2261
F0.5
sS'X.OOX...X'
p2262
I1
sS'OOXXX.O.X'
p2263
F0.5
sS'......XO.'
p2264
F0.5
sS'.OO..XX.X'
p2265
F0.5
sS'..OX.OXX.'
p2266
F0.5
sS'......XOX'
p2267
F0.5
sS'.OO..XX..'
p2268
F0.5
sS'XOOOX.XX.'
p2269
F0.5
sS'X.OOX....'
p2270
F0.9999999999999998
sS'..OX.X.OX'
p2271
F0.5
sS'..OX.OXXO'
p2272
F0.0
sS'OXOX.XXOO'
p2273
F0.9999999999997186
sS'.XX..O.OX'
p2274
F0.5
sS'OX...X...'
p2275
F0.5
sS'O.X..OX..'
p2276
F1.0
sS'XO.OXOX..'
p2277
F0.9999999999977065
sS'.O.O.XXXO'
p2278
F0.5
sS'OXOX..XO.'
p2279
F0.5
sS'OXOOOXX.X'
p2280
F0.9998377407231708
sS'..XOO...X'
p2281
F1.0
sS'XXO...XOO'
p2282
F0.9999981292779042
sS'.OO.XXXXO'
p2283
F0.5
sS'OX...OX..'
p2284
F0.5
sS'.O.OOX.XX'
p2285
F0.83616
sS'X.O..OOXX'
p2286
F0.999978221928517
sS'.X..XX.OO'
p2287
F0.5
sS'O..X.OXOX'
p2288
F0.5
sS'.O..O.XX.'
p2289
F0.9998377407231708
sS'O..O.X.XX'
p2290
F0.5
sS'X.X.O.O.X'
p2291
F0.5
sS'X...XO.O.'
p2292
F0.9999976615973802
sS'.XOOOXX.X'
p2293
F0.5
sS'..OX.XOX.'
p2294
F0.5
sS'X.X.O.O..'
p2295
F1.0
sS'.XOOOXX..'
p2296
F0.5
sS'X...XO.OX'
p2297
I1
sS'.O..O.XXX'
p2298
I1
sS'O..O.X.X.'
p2299
F0.5
sS'..OX.XOXO'
p2300
F0.9999999999999998
sS'X..O..XO.'
p2301
F0.5
sS'OX...OX.X'
p2302
F0.5
sS'XXO...XO.'
p2303
F0.5
sS'X.X.....O'
p2304
F0.5
sS'.X.O.O.X.'
p2305
F1.0
sS'OXXOXOO.X'
p2306
F0.0
sS'X..OOX...'
p2307
F0.5
sS'X.OOOXXOX'
p2308
F0.5
sS'XXOOX..OX'
p2309
I1
sS'OOOX.X.X.'
p2310
F0.0
sS'X.O.X.XO.'
p2311
F0.5
sS'.X.X..OOX'
p2312
F0.5
sS'..XX.O..O'
p2313
F0.5
sS'OO....XX.'
p2314
F1.0
sS'O....O.XX'
p2315
F0.8951424
sS'.X.X..OO.'
p2316
F0.5
sS'OX.X.XXOO'
p2317
F0.5
sS'X.O.X.XOO'
p2318
F0.9999999889572059
sS'OO....XXX'
p2319
I1
sS'X..OOX..X'
p2320
F0.5
sS'..XX.O...'
p2321
F0.5
sS'..X.XOOX.'
p2322
F0.5
sS'XXOOX..O.'
p2323
F0.9999999981473267
sS'.XXOOOXOX'
p2324
F0.0
sS'OXOX.X.XO'
p2325
F0.5
sS'OXOXX..XO'
p2326
I1
sS'.X.O.O.XX'
p2327
F0.5
sS'XXOO...XO'
p2328
F0.9927942405962072
sS'XXO.OX.O.'
p2329
F0.5
sS'XO.OOX..X'
p2330
F0.9981110534068522
sS'OX..X..XO'
p2331
I1
sS'...O.XOX.'
p2332
F0.5
sS'.XOOXX.OX'
p2333
F0.5
sS'OOX.X.XOX'
p2334
I1
sS'XX.X.OOO.'
p2335
F0.95705032704
sS'XX...OO.X'
p2336
F0.5
sS'XOO..XO.X'
p2337
F0.91611392
sS'XX...OO..'
p2338
F1.0
sS'XX.X.OOOX'
p2339
F0.5
sS'...O.XOXX'
p2340
F0.5
sS'.XOOXX.O.'
p2341
F0.5
sS'XXOO...X.'
p2342
F0.5
sS'.X.XX..OO'
p2343
F0.5
sS'XXO.OX.OX'
p2344
F0.5
sS'.O.XX..XO'
p2345
F0.5
sS'.OO...XXX'
p2346
I1
sS'X..X.O...'
p2347
F0.5
sS'X..OO..X.'
p2348
F0.5
sS'XX.OO.XO.'
p2349
F1.0
sS'OXX.O.X..'
p2350
F0.4
sS'XX...O.XO'
p2351
F0.5
sS'XXX.OO.OX'
p2352
I1
sS'XOO.X.OXX'
p2353
I1
sS'OXX.O.X.O'
p2354
F0.0
sS'XO.X.OX..'
p2355
I1
sS'XOO.X.OX.'
p2356
F0.9999999999999993
sS'X..XO..XO'
p2357
F0.5
sS'..XO.X.XO'
p2358
F0.5
sS'OX...XX.O'
p2359
F0.5
sS'XOOX.OOXX'
p2360
F0.95705032704
sS'XX.OO.XOX'
p2361
F0.5
sS'X..X.O..O'
p2362
F0.9999999999999998
sS'O..XO.XOX'
p2363
F0.5
sS'.XXOXXOOO'
p2364
F0.0
sS'X..OO..XX'
p2365
F0.5
sS'X...OOX..'
p2366
F0.9999999999999944
sS'.XX.O.OOX'
p2367
F0.9987910741803854
sS'O..XX.O.X'
p2368
F0.5
sS'..X..X.OO'
p2369
F0.5
sS'.XO.XO...'
p2370
F0.95705032704
sS'OO....X.X'
p2371
F0.9999999988142891
sS'OO.XX.OX.'
p2372
F0.9999999997513384
sS'.O.XX.O.X'
p2373
F0.5
sS'XXOXO.X.O'
p2374
I1
sS'O....X.OX'
p2375
F0.9999999999999831
sS'O.XXX...O'
p2376
F0.5
sS'XXX..OO..'
p2377
I1
sS'OO.XXXOX.'
p2378
I1
sS'O...OXOXX'
p2379
F0.9999996076811415
sS'OO.XX.OXX'
p2380
F0.5
sS'.O.XX.O..'
p2381
F0.9999999999993987
sS'O..XX.O..'
p2382
F0.9999999999999998
sS'.XO.XO..X'
p2383
F0.5
sS'XOX.O.XXO'
p2384
F0.5
sS'.OX...O.X'
p2385
F1.0
sS'..OX.XX.O'
p2386
F0.5
sS'..X..X.O.'
p2387
F0.5
sS'X...OOX.X'
p2388
F0.5
sS'.XXOOOOXX'
p2389
F0.0
sS'XXOXOO..X'
p2390
F0.5
sS'....O...X'
p2391
F0.5
sS'.O.OOXXXX'
p2392
I1
sS'O.OX.OXXX'
p2393
I1
sS'XOX.OXOXO'
p2394
F0.5
sS'XOXXOXO..'
p2395
F0.5
sS'XXXOXO..O'
p2396
I1
sS'XXOXXOO.O'
p2397
F0.0
sS'.XO.XOX.O'
p2398
F0.0
sS'.X.XXOO.O'
p2399
F0.83616
sS'XOXOX..XO'
p2400
F0.5
sS'..XXO.X.O'
p2401
F0.5
sS'OXX..OOX.'
p2402
F0.9942353924769658
sS'XOXXOXO.O'
p2403
F0.5
sS'O.OOX.X.X'
p2404
F0.9999860620342509
sS'OXX..OOXX'
p2405
F0.5
sS'XXOXXOO..'
p2406
F0.5
sS'.XO.XOX..'
p2407
F0.5
sS'.X.XXOO..'
p2408
F0.5
sS'...XOX.XO'
p2409
F0.5
sS'O.OX.OXX.'
p2410
F0.9999990421902869
sS'.O.OOXXX.'
p2411
F0.965640261632
sS'XXOXOO...'
p2412
F0.6
sS'XOX.OXOX.'
p2413
F0.5
sS'.O.O.X.XX'
p2414
F0.5
sS'XO...XX.O'
p2415
F0.5
sS'X.XOXO..O'
p2416
F0.9999999999999998
sS'.X.XOX.O.'
p2417
F0.5
sS'XX..XOOOX'
p2418
I1
sS'X.X.O..XO'
p2419
F0.5
sS'.O.XXOXOX'
p2420
F0.5
sS'.OO.XXOX.'
p2421
F0.9999999663000667
sS'..O..X.XO'
p2422
F0.5
sS'.OO.X.OXX'
p2423
F1.0
sS'.OX..OX..'
p2424
F0.9463129088000001
sS'XO.OX.XOX'
p2425
I1
sS'.OO...XX.'
p2426
F1.0
sS'XO.OX.XO.'
p2427
F0.9999999999971332
sS'X.OXOX..O'
p2428
F0.9999999999999998
sS'.OX..OX.X'
p2429
F0.5
sS'XOO..XXXO'
p2430
F0.5
sS'..O..X.X.'
p2431
F0.5
sS'.OO.XXOXX'
p2432
F0.5
sS'XXO.OXOOX'
p2433
F0.0
sS'.....XOXO'
p2434
F0.5
sS'XOX.X.XOO'
p2435
I1
sS'.O.XOXXXO'
p2436
F0.5
sS'X.XOXO...'
p2437
F0.5
sS'.X.XOX.OO'
p2438
F0.5
sS'XX.XO..OO'
p2439
F0.83616
sS'.O.XXOXO.'
p2440
F0.9999999999999998
sS'XX..XOOO.'
p2441
F0.9887410009315738
sS'O.OO.XXX.'
p2442
F0.9328911360000001
sS'X..X..XOO'
p2443
I1
sS'....OX...'
p2444
F0.5
sS'XOOXX...O'
p2445
F0.9999999999999998
sS'XO..XX.O.'
p2446
F0.5
sS'OXOXX.O.X'
p2447
F0.5
sS'.OXX.OXO.'
p2448
F0.8951424
sS'O.O.XXXO.'
p2449
F0.9999999997145504
sS'.O.OX.XXO'
p2450
F0.9999999999999998
sS'OXXXOX.OO'
p2451
F0.0
sS'OXX.X..OO'
p2452
F0.9999999341798177
sS'XO.OO.XXX'
p2453
I1
sS'...XO.XOX'
p2454
F0.5
sS'OXXXOX.O.'
p2455
F0.5
sS'XOO.XXOXO'
p2456
F1.0
sS'XO.OO.XX.'
p2457
F0.9993810299803573
sS'...XO.XO.'
p2458
F0.9859262511644672
sS'O.O.XXXOX'
p2459
F0.5
sS'OXX.X..O.'
p2460
F0.5
sS'XO..XXOXO'
p2461
F0.5
sS'OXOXX.O..'
p2462
F0.9999999861965073
sS'OX..X.OOX'
p2463
F0.5
sS'.OXX.OXOX'
p2464
F0.5
sS'XOOXX....'
p2465
F0.5
sS'XO..XX.OO'
p2466
F1.0
sS'XX.XO...O'
p2467
F0.5
sS'X.X.OXXOO'
p2468
F0.5
sS'....OX..X'
p2469
F0.5
sS'X.OOX.OXX'
p2470
I1
sS'XX..O.XOO'
p2471
F0.9999976615973802
sS'..X..O...'
p2472
F0.5
sS'XXOO.X.XO'
p2473
F0.5
sS'O.OXX.OXX'
p2474
F0.5
sS'.X.OO..X.'
p2475
F0.5
sS'OX.XOO..X'
p2476
F0.5
sS'XOOX...XO'
p2477
F0.9725122093056
sS'O.XXXXOO.'
p2478
I1
sS'.OX....XO'
p2479
F0.5
sS'O..XO...X'
p2480
F0.5
sS'XXXXO.OO.'
p2481
I1
sS'O.OXX.OX.'
p2482
F0.9463129088000001
sS'O.OXXX...'
p2483
I1
sS'XOOX...X.'
p2484
F0.5
sS'...OXXOOX'
p2485
F0.9999999999999998
sS'..X..O..X'
p2486
F0.5
sS'XX..O.XO.'
p2487
F0.5
sS'X.OOX.OX.'
p2488
F0.9999999999999998
sS'O..OXXXOX'
p2489
F0.5
sS'.OXXXO.XO'
p2490
F0.5
sS'XO.XXOOXO'
p2491
F0.5
sS'...XXOXOO'
p2492
F0.9999999999999998
sS'XO.OOXXX.'
p2493
F0.5
sS'..OXO.OXX'
p2494
F0.0
sS'.OOX.XO.X'
p2495
F0.7952
sS'O.XXO.X.O'
p2496
F0.0
sS'OXOXOOXXX'
p2497
I1
sS'XOX.X.OOX'
p2498
I1
sS'.XXO.OOXX'
p2499
F0.5
sS'OO.XXOX..'
p2500
F0.9995048239842859
sS'XOX.X.OO.'
p2501
F0.9999999999999931
sS'OO.XXOX.X'
p2502
F0.5
sS'.XXO.OOX.'
p2503
F0.982407813955584
sS'.X.O...OX'
p2504
F0.5
sS'OXOXO...X'
p2505
F0.5
sS'OXOXOOXX.'
p2506
F0.5
sS'O.XOX.XOX'
p2507
I1
sS'XO.XXOOX.'
p2508
F0.5
sS'X.OO.XXO.'
p2509
F0.5
sS'O.XX.O.OX'
p2510
F0.5
sS'...XXOXO.'
p2511
F0.5
sS'XXXXOOXOO'
p2512
I1
sS'XO.OOXXXO'
p2513
F0.5
sS'X.OX...XO'
p2514
F0.5
sS'O.O...X.X'
p2515
F0.9999999999996921
sS'XX..XO.O.'
p2516
F0.5
sS'O.OX.O.XX'
p2517
F1.0
sS'XO...XOX.'
p2518
F0.5
sS'.O.X..O.X'
p2519
F0.5
sS'.O..OXXXO'
p2520
F0.5
sS'.OXXXOO..'
p2521
F0.5
sS'.OXXO.O.X'
p2522
F0.9328911360000001
sS'XO.XOX..O'
p2523
F1.0
sS'XOO.X.XOX'
p2524
I1
sS'OXOXXO.OX'
p2525
F0.5
sS'XOX.OO.XX'
p2526
F0.5
sS'O.OX.XOX.'
p2527
F0.8951424
sS'OXOX.OX..'
p2528
F0.5
sS'XXXOO.X.O'
p2529
I1
sS'O.OX.XOXX'
p2530
F0.5
sS'XX.OOXOOX'
p2531
F0.5
sS'XOX.OO.X.'
p2532
F0.5
sS'XOO.X.XO.'
p2533
F0.9953883139815727
sS'O.OXO.X.X'
p2534
F0.9999981292779042
sS'O.X...O.X'
p2535
F0.9999999999999998
sS'.X..O.XXO'
p2536
F0.5
sS'XX..XO.OO'
p2537
F0.9859262511644672
sS'.OXXXOO.X'
p2538
F0.5
sS'XO...XOXO'
p2539
F0.5
sS'.O..OXXX.'
p2540
F0.5
sS'XO.XOX...'
p2541
F0.5
sS'O.X.OXXO.'
p2542
F0.9963106511852582
sS'XX.O..OOX'
p2543
F0.8951424
sS'OX...X.OX'
p2544
F0.5
sS'.O.XXOOX.'
p2545
F0.5
sS'O.OXXOX..'
p2546
F0.5
sS'O..XO..XX'
p2547
F0.5
sS'..OX.XO.X'
p2548
F0.5
sS'X.O.....X'
p2549
F0.5
sS'X.OXOX...'
p2550
F0.32
sS'..X.XX.OO'
p2551
F0.5
sS'OO.XX.XO.'
p2552
F0.9981110534068522
sS'X.XOOX...'
p2553
F0.5
sS'OX.X.XO..'
p2554
F0.5
sS'OO.XX.XOX'
p2555
F0.5
sS'X..OOO.XX'
p2556
F0.0
sS'O..XO..X.'
p2557
F0.5
sS'X.XOOX..O'
p2558
F0.9999999999999998
sS'OX.X.XO.O'
p2559
F0.9999999999999631
sS'..OX.XO..'
p2560
F0.9999999784320427
sS'O.X.OX...'
p2561
F0.9999999999999998
sS'.X.OOX.OX'
p2562
F0.83616
sS'O.X.OXXOX'
p2563
I1
sS'OX...X.O.'
p2564
F0.5
sS'.O.XXO.XO'
p2565
F0.5
sS'O.XOX...X'
p2566
F0.5
sS'..X.O.OX.'
p2567
F0.5
sS'.X.X.O..O'
p2568
F0.5
sS'.XOX.XOO.'
p2569
F0.83616
sS'OXX.OX.OX'
p2570
I1
sS'O.OX..XX.'
p2571
F0.5
sS'OXXOOOX.X'
p2572
F0.0
sS'OXX...XOO'
p2573
F0.9999999999478518
sS'X..OOX.XO'
p2574
F0.5
sS'..XOOOXX.'
p2575
F0.0
sS'.XO.XX.OO'
p2576
F0.83616
sS'XXOOOX.X.'
p2577
F0.5
sS'OOX.OXXX.'
p2578
F0.5
sS'OXX...XO.'
p2579
F0.5
sS'XO.XX.OXO'
p2580
F0.5
sS'XOO.OXX..'
p2581
F0.9328911360000001
sS'X..OOX.X.'
p2582
F0.5
sS'.XX..OOOX'
p2583
F0.9999999999999997
sS'.XO.XX.O.'
p2584
F0.5
sS'XXOOOX.XO'
p2585
F0.5
sS'OOXXX.OOX'
p2586
F0.5
sS'XXOX.OXO.'
p2587
I1
sS'OXX.OX.O.'
p2588
F1.0
sS'.XOX.XOOX'
p2589
F0.5
sS'.X.X.O...'
p2590
F0.5
sS'XOOXOX.OX'
p2591
I0
sS'..X.O.OXX'
p2592
F0.5
sS'O.OX..XXO'
p2593
F0.5
sS'O.XOX....'
p2594
F0.9999999999999998
sS'X.XXOOOXO'
p2595
F1.0
sS'.OOXOXXX.'
p2596
F0.5
sS'OX.X.OOX.'
p2597
F0.9999999999999996
sS'.O.O..X.X'
p2598
F0.965640261632
sS'..XOOXXOX'
p2599
I1
sS'OXXO.X.XO'
p2600
F0.5
sS'XOOX.XOXO'
p2601
F1.0
sS'..X.OXX.O'
p2602
F0.5
sS'...O.XO.X'
p2603
F0.9725122093056
sS'XX..OOXOX'
p2604
F0.5
sS'X.O.O...X'
p2605
F0.5
sS'.XXXOO...'
p2606
F0.5
sS'XOX...OOX'
p2607
F1.0
sS'XX..OOXO.'
p2608
F0.8951424
sS'..OO..XX.'
p2609
F1.0
sS'OXO.XOX.X'
p2610
F0.5
sS'..XOOXXO.'
p2611
F0.9328911360000001
sS'.OOXOXXXO'
p2612
F0.5
sS'XOXO..X.O'
p2613
F1.0
sS'.OX..XOXO'
p2614
F0.5
sS'OX.X.OOXX'
p2615
F0.5
sS'XOOXXXO..'
p2616
I1
sS'.XOX.XXOO'
p2617
F0.5
sS'O.XOXX.O.'
p2618
F0.9993810299803573
sS'OX.OXXXO.'
p2619
F0.5
sS'XXOO.XO.X'
p2620
F0.5
sS'.OO.X.X.X'
p2621
F0.5
sS'XO....XO.'
p2622
F0.9999999999999998
sS'XX.O.O.OX'
p2623
F0.9999996076811415
sS'.O.OXX.XO'
p2624
F0.5
sS'XXXOX.OO.'
p2625
I1
sS'XO.OOX.X.'
p2626
F0.5
sS'OXXX.OOX.'
p2627
F0.5
sS'..XX..O..'
p2628
F0.5
sS'.OX.XOXXO'
p2629
I1
sS'O.X..OXX.'
p2630
F0.5
sS'O......X.'
p2631
F0.5
sS'....O.XOX'
p2632
F0.5
sS'OXOO.XOXX'
p2633
F0.0
sS'O......XX'
p2634
F0.5
sS'..XX..O.O'
p2635
F0.5
sS'O.X..OXXO'
p2636
F0.744
sS'O.X.XOXOX'
p2637
I1
sS'..O..XXXO'
p2638
F0.5
sS'X......XO'
p2639
F0.5
sS'XXOO.OX..'
p2640
F0.5
sS'OX.OXXXOO'
p2641
F1.0
sS'XO.OOX.XX'
p2642
F0.5
sS'O.XOXX.OX'
p2643
I1
sS'.O.OXX.X.'
p2644
F0.5
sS'.XXXOX.OO'
p2645
F0.5
sS'XO....XOX'
p2646
F0.5
sS'X.XX.OXOO'
p2647
I1
sS'.OO.X.X..'
p2648
F0.5
sS'.XO.OXXXO'
p2649
F0.5
sS'X...O.OX.'
p2650
F0.5
sS'O..XO.X.X'
p2651
F0.5
sS'XXO.O.XO.'
p2652
F1.0
sS'XX.OO.X.O'
p2653
F0.9999999999999998
sS'OOXOXX.X.'
p2654
F0.5
sS'XOXOXX..O'
p2655
F0.5
sS'O.XO.X.X.'
p2656
F0.5
sS'X.XOX.XOO'
p2657
I1
sS'..O.X.XOX'
p2658
F0.5
sS'OOOXX.XXO'
p2659
F0.0
sS'OX.OOXOXX'
p2660
F0.0
sS'OXOXOX..X'
p2661
F0.5
sS'OXOXOX...'
p2662
F0.5
sS'X....OO.X'
p2663
F0.9999999999999998
sS'OOXOXX.XO'
p2664
F0.9999999473438541
sS'XOXOXOX..'
p2665
I1
sS'XXO.O.XOX'
p2666
F0.5
sS'OXXXOOO.X'
p2667
F0.5
sS'O..XO.X..'
p2668
F0.5
sS'OXO.XOX..'
p2669
F0.9999999999999998
sS'X...O.OXX'
p2670
F0.5
sS'XX.OO.X..'
p2671
F0.5
sS'..X.OOXOX'
p2672
F0.5
sS'OX..XX.O.'
p2673
F0.5
sS'.X.O..OXX'
p2674
F0.5
sS'XOO...OXX'
p2675
F0.9942353924769658
sS'....XXO..'
p2676
F0.5
sS'OO.O.X.XX'
p2677
F0.83616
sS'..X..X..O'
p2678
F0.5
sS'....XXO.O'
p2679
F0.9999999999999998
sS'OXOOXX.OX'
p2680
F0.5
sS'XX.XOX.OO'
p2681
F0.5
sS'.X.O..OX.'
p2682
F1.0
sS'..O.OX..X'
p2683
F0.5
sS'OX..XX.OO'
p2684
F1.0
sS'XO.XXOXO.'
p2685
I1
sS'XOX.X...O'
p2686
F0.5
sS'XOXOOOX.X'
p2687
F0.0
sS'..XO.X..O'
p2688
F0.5
sS'.X.O.....'
p2689
F0.5
sS'OXOX.XO.X'
p2690
F0.5
sS'OX.X....O'
p2691
F0.5
sS'XXOX.XOO.'
p2692
F0.5
sS'X...XOX.O'
p2693
F0.5
sS'OX..O.X..'
p2694
F0.5
sS'OX..O.X.X'
p2695
F0.5
sS'.XXO.O.OX'
p2696
F0.9999999999988257
sS'OXOX.XO..'
p2697
F1.0
sS'X.O.OXOX.'
p2698
F0.0
sS'..XO.X...'
p2699
F0.5
sS'O.OX.OX.X'
p2700
F0.9999963462459067
sS'OX.X.....'
p2701
F0.5
sS'XXOX.XOOO'
p2702
F0.0
sS'XXOXOOOX.'
p2703
F0.0
sS'.O.....X.'
p2704
F0.5
sS'XOOXXOXOX'
p2705
I1
sS'XXX.O...O'
p2706
I1
sS'.O.XOX.X.'
p2707
F0.5
sS'XX.XO.OOX'
p2708
F0.5
sS'OXX.XO..O'
p2709
F0.9999998714449565
sS'XO..X.O.X'
p2710
I1
sS'..OX...OX'
p2711
F0.5
sS'XXOXXOOO.'
p2712
F0.5
sS'O.OX.XXOX'
p2713
F0.5
sS'XXOXXOOOX'
p2714
I1
sS'.O.XOX.XO'
p2715
F0.5
sS'.OOOX.XX.'
p2716
F0.9990328593443083
sS'O.OX.XXO.'
p2717
F0.9999999999999997
sS'OXX.XO...'
p2718
F0.5
sS'.XXXO.OXO'
p2719
F0.5
sS'X.OO.OX.X'
p2720
F0.9993810299803573
sS'XO..X.O..'
p2721
F1.0
sS'XX.XO.OO.'
p2722
F0.744
sS'OO...XOXX'
p2723
F0.6799999999999999
sS'.XOX.O.OX'
p2724
F0.5
sS'.O.....XX'
p2725
F0.5
sS'.OXXX.OOX'
p2726
F0.5
sS'OOXXX..XO'
p2727
F0.5
sS'X..X.XOOO'
p2728
F0.0
sS'O.XO.XXOX'
p2729
I1
sS'.O.OX..XX'
p2730
F0.5
sS'....OX.OX'
p2731
F1.0
sS'OXX..OO.X'
p2732
F0.5
sS'O.XX...OX'
p2733
F0.5
sS'X.X.O.XO.'
p2734
F0.5
sS'.X.OXXXOO'
p2735
F0.5
sS'OOXX..X..'
p2736
F0.5
sS'..XOOX...'
p2737
F0.9999999997513384
sS'O.OXX.XOX'
p2738
F0.5
sS'X.O.O.OXX'
p2739
F0.0
sS'X.X.O.XOO'
p2740
F0.9999999999666251
sS'O.OXX.XO.'
p2741
F0.9999999999999998
sS'X.O..XO.X'
p2742
F0.5
sS'O.XOXXX.O'
p2743
I1
sS'..XOOX..X'
p2744
I1
sS'O.XO.XXO.'
p2745
F0.9970485209482065
sS'..XXXO..O'
p2746
F0.5
sS'O.XX...O.'
p2747
F0.5
sS'X..X.XOO.'
p2748
F0.5
sS'.OXXX.OO.'
p2749
F1.0
sS'O.XX...XO'
p2750
F0.5
sS'OO..XXXO.'
p2751
F1.0
sS'X...XOOXO'
p2752
F1.0
sS'OXXX...OO'
p2753
F0.5
sS'..OOXXX..'
p2754
F0.5
sS'.OXX.O.XO'
p2755
F0.5
sS'.O....XOX'
p2756
F0.5
sS'..OX.OX.X'
p2757
F0.5
sS'X.....XOO'
p2758
F0.9999999999999998
sS'..X.X.O.O'
p2759
F0.5
sS'.OXX..X.O'
p2760
F0.5
sS'X.....XO.'
p2761
F0.5
sS'X.XOXOOX.'
p2762
F0.5
sS'..X.X.O..'
p2763
F0.5
sS'.O...O.XX'
p2764
F0.9463129088000001
sS'..OX.OX..'
p2765
F1.0
sS'X...XOOX.'
p2766
F0.5
sS'XXX.O.OXO'
p2767
I1
sS'XXO.XX.OO'
p2768
F0.5
sS'XXX...O.O'
p2769
I1
sS'OO..XXXOX'
p2770
F0.5
sS'OXXX...O.'
p2771
F0.5
sS'..OOXXX.O'
p2772
F0.5
sS'.OXX.O.X.'
p2773
F0.5
sS'X.X....OO'
p2774
F0.9999999999999998
sS'XXOOOXXOX'
p2775
F0.5
sS'X...XO...'
p2776
F0.5
sS'XOXX.X.OO'
p2777
F0.5
sS'XX.XO.XOO'
p2778
I1
sS'.XXOX.XOO'
p2779
I1
sS'XXXXO.O.O'
p2780
I1
sS'.OO..XXOX'
p2781
F0.5
sS'XXOOOXXO.'
p2782
F0.5
sS'OXO.X..X.'
p2783
I1
sS'X.X....O.'
p2784
F0.5
sS'X...XO..O'
p2785
F0.5
sS'...XO.OXX'
p2786
F0.5
sS'OOXXOX.X.'
p2787
F0.4
sS'.O.OX.X..'
p2788
F1.0
sS'.XX..O.O.'
p2789
F1.0
sS'XX.OOXX.O'
p2790
F0.5
sS'O.X...XXO'
p2791
F0.5
sS'...X.XO..'
p2792
F0.5
sS'.XO..OXX.'
p2793
F0.5
sS'OXOXOXXO.'
p2794
F0.5
sS'X.OXX...O'
p2795
F0.5
sS'....X.X.O'
p2796
F0.5
sS'.OXXOXOX.'
p2797
F0.5
sS'.OXX.XOOX'
p2798
I1
sS'OX.X.XOXO'
p2799
F0.5
sS'.X.X.OOX.'
p2800
F0.5
sS'.OXX.XOO.'
p2801
F0.91611392
sS'.X.O..XXO'
p2802
F0.5
sS'OXOXOXXOX'
p2803
F0.5
sS'.X.X.OOXO'
p2804
F0.9983222784
sS'OOXXOX.XO'
p2805
F0.0
sS'...X.XO.O'
p2806
F0.9999997489159306
sS'.O.OX.X.X'
p2807
F0.5
sS'OXXO.O.XX'
p2808
F0.5
sS'....XO..X'
p2809
F0.5
sS'.OXXX..O.'
p2810
F0.5
sS'XOOX.O.XX'
p2811
F0.5
sS'O.....XOX'
p2812
F0.5
sS'XO.XX.O.O'
p2813
F0.9999999999999998
sS'O.XXX.OO.'
p2814
F0.9996038591874287
sS'OXXOOXX..'
p2815
F0.5
sS'OX..XXOO.'
p2816
F1.0
sS'XO.XX.O..'
p2817
F0.5
sS'OX..XXOOX'
p2818
F0.5
sS'XX.XOOXO.'
p2819
I1
sS'OXXOOXX.O'
p2820
F0.0
sS'O.XXX.OOX'
p2821
F0.5
sS'.OXXX..OO'
p2822
F1.0
sS'...XOXOOX'
p2823
F1.0
sS'OXXO.O.X.'
p2824
F0.9927942405962072
sS'X.OOOX.XX'
p2825
F0.5
sS'X...O.XOX'
p2826
F0.5
sS'..OXOXX.O'
p2827
F0.744
sS'X..OXO.XO'
p2828
F0.9987910741803854
sS'.OOOXXOXX'
p2829
F0.5
sS'.XOX.XO.O'
p2830
F0.5
sS'OX..OX...'
p2831
F0.5
sS'.OXOXX...'
p2832
F0.5
sS'...OXO..X'
p2833
F1.0
sS'O.OXXO.X.'
p2834
F0.868928
sS'XO.XOOOXX'
p2835
F0.5
sS'X.XO..X.O'
p2836
F0.5
sS'..O..XO.X'
p2837
F0.5
sS'O.OXXO.XX'
p2838
F0.5
sS'O...OX..X'
p2839
F1.0
sS'..XX.XO.O'
p2840
F0.5
sS'XX...OOOX'
p2841
F0.9999996076811415
sS'O.O.X..XX'
p2842
F0.5
sS'X..OXO.X.'
p2843
F0.5
sS'X...O.XO.'
p2844
F0.9999999999999998
sS'.XOX.XO..'
p2845
F0.5
sS'.O.XXX.O.'
p2846
I1
sS'.OXOXX..O'
p2847
F0.9999999963814973
sS'X...OOXOX'
p2848
F0.9999999999992484
sS'.X.XO.OX.'
p2849
F0.5
sS'XXO..X.O.'
p2850
F0.5
sS'.XO.XO.OX'
p2851
F0.9999999996114662
sS'.X.XOXO..'
p2852
F0.5
sS'XX..OO.X.'
p2853
F0.5
sS'..XOXXXOO'
p2854
I1
sS'.O..XX...'
p2855
F0.5
sS'..XOOXX.O'
p2856
F0.5
sS'.OOXXOXXO'
p2857
F0.0
sS'.XX.X.O.O'
p2858
F0.5
sS'.....OOXX'
p2859
F0.5
sS'.OXOXXX.O'
p2860
I1
sS'XOX..OXOX'
p2861
F0.5
sS'OO..XX...'
p2862
F0.9999999999478518
sS'XX.X..OOO'
p2863
F0.0
sS'.O..XX..O'
p2864
F0.9999999999999998
sS'XOX..OXO.'
p2865
F0.9998377407231708
sS'..XOOXX..'
p2866
F0.5
sS'OO..XX..X'
p2867
F0.5
sS'.OXXXXOO.'
p2868
I1
sS'XX.X..OO.'
p2869
F0.5
sS'.X..OO..X'
p2870
F0.5
sS'.X.XO.OXO'
p2871
F0.5
sS'XXO..X.OO'
p2872
F0.5
sS'.X.XOXO.O'
p2873
F0.5
sS'O.XO..OXX'
p2874
F0.0
sS'XX..OO.XO'
p2875
F0.7952
sS'..OXXO.X.'
p2876
F0.5
sS'...OXOX.X'
p2877
F0.5
sS'O.XOXX..O'
p2878
F0.9999999999999998
sS'..XO..X..'
p2879
F0.5
sS'OX.XXO.OX'
p2880
F0.5
sS'O.X.XXO.O'
p2881
F0.9999999999999998
sS'X.X.X.OO.'
p2882
F0.5
sS'XXOO.XOOX'
p2883
F0.999999999999999
sS'OXXOO.XX.'
p2884
F0.5
sS'OXOX.OXOX'
p2885
F0.5
sS'X.XX.OOXO'
p2886
F0.5
sS'OXXOO.XXO'
p2887
F0.0
sS'.XO..OXXO'
p2888
F0.0
sS'O..XXOO.X'
p2889
F0.5
sS'O.XOXX...'
p2890
F0.5
sS'X.XOOO..X'
p2891
F0.0
sS'..XXOOOXX'
p2892
F0.5
sS'.OXXX.O..'
p2893
F0.5
sS'...OXOX..'
p2894
F1.0
sS'O...O..XX'
p2895
F0.9999999999999996
sS'OX.XXO.O.'
p2896
F0.5
sS'O.X.XXO..'
p2897
F0.5
sS'X.X.X.OOO'
p2898
F0.0
sS'XXO.OXO..'
p2899
F0.0
sS'.OXOX.O.X'
p2900
F0.9999999999999998
sS'X...OXO..'
p2901
F0.5
sS'X.XXO.O.O'
p2902
F0.9999999999944007
sS'XX...O.OX'
p2903
F0.5
sS'..O.X.XO.'
p2904
F0.5
sS'X.XXO.O..'
p2905
F0.5
sS'OXO.XOXOX'
p2906
F0.5
sS'OOXXO...X'
p2907
F0.9999999999046325
sS'XX...O.O.'
p2908
F1.0
sS'OX.XXOOOX'
p2909
F0.5
sS'X...OXO.X'
p2910
F0.5
sS'.OX..OXOX'
p2911
F0.9996038591874287
sS'.O.OOXX.X'
p2912
F0.6799999999999999
sS'XXXXOOO..'
p2913
I1
sS'O.XXOOOXX'
p2914
F0.5
sS'X.XOX.OOX'
p2915
I1
sS'...X...O.'
p2916
F0.5
sS'..X.O...X'
p2917
F0.5
sS'...X..OX.'
p2918
F0.5
sS'X..X..O.O'
p2919
F0.5
sS'..X.OOX.X'
p2920
F0.5
sS'XOOX.X.OX'
p2921
F0.5
sS'XO.XXOX.O'
p2922
I1
sS'.O..X.XXO'
p2923
F0.5
sS'.XOXO..OX'
p2924
F0.5
sS'XOOX.X.O.'
p2925
F0.9927942405962072
sS'XOXX.XOO.'
p2926
F0.5
sS'.X..XO.XO'
p2927
I1
sS'..X.OOX..'
p2928
F0.5
sS'OO..XX.X.'
p2929
F0.5
sS'..X.O....'
p2930
F0.5
sS'...X...OX'
p2931
F0.5
sS'X..X..O..'
p2932
F0.5
sS'...X..OXO'
p2933
F0.5
sS'OXOXX.OX.'
p2934
I1
sS'OXXXXO.O.'
p2935
F0.5
sS'X.XX.OO.O'
p2936
F0.9984888427254818
sS'OXXOOX..X'
p2937
I1
sS'OOXO..XXX'
p2938
I1
sS'X...XOXOO'
p2939
F0.9999999911657647
sS'.X.OX.X.O'
p2940
F0.5
sS'OXOX.XOOX'
p2941
F0.9942353924769658
sS'X...XOXO.'
p2942
F0.5
sS'OOXO..XX.'
p2943
F0.9999996076811415
sS'X.X..XO.O'
p2944
F0.5
sS'OXXOOX...'
p2945
F0.6
sS'.XO..O..X'
p2946
F0.5
sS'.O.X...XO'
p2947
F0.5
sS'OXXXXO.OO'
p2948
F0.9942353924769658
sS'O...X.OXX'
p2949
F0.5
sS'X.XX.OO..'
p2950
F0.5
sS'.XXX.OXOO'
p2951
F0.5
sS'OXXXXOOXO'
p2952
I1
sS'OXXXO.XOO'
p2953
F0.0
sS'XO.O..XX.'
p2954
F0.5
sS'X.X.OO.XO'
p2955
F0.999994502441861
sS'XOXO.XO..'
p2956
F0.9999999999999998
sS'OO.XOX..X'
p2957
F0.9999999999999998
sS'OO.X..XOX'
p2958
F0.5
sS'.XX.O..OX'
p2959
F0.5
sS'.OX.XX.O.'
p2960
F0.5
sS'XOXO.XO.X'
p2961
I1
sS'XXX.O..O.'
p2962
I1
sS'.OX.XX.OO'
p2963
F0.9328911360000001
sS'.XX.O..O.'
p2964
F1.0
sS'OXXXO.XO.'
p2965
F0.5
sS'XO.O..XXO'
p2966
F0.5
sS'X.X.OO.X.'
p2967
F0.5
sS'XO.O.XOXX'
p2968
F0.5
sS'..X..XXOO'
p2969
F0.5
sS'O.XXO.XOX'
p2970
F0.5
sS'X.OO...XX'
p2971
F0.5
sS'XX..XO..O'
p2972
F0.5
sS'..OXOOXXX'
p2973
I1
sS'.O..XXX.O'
p2974
F0.5
sS'XXX....OO'
p2975
I1
sS'XX.XO.O..'
p2976
F0.5
sS'.X.X..O..'
p2977
F0.5
sS'XX.XO.O.O'
p2978
F0.7952
sS'X.OO...X.'
p2979
F0.5
sS'..OXOOXX.'
p2980
F0.9992262874754466
sS'XO.O.XOX.'
p2981
F0.5
sS'OX..O.OXX'
p2982
F0.5
sS'O.XXO.XO.'
p2983
F0.5
sS'OXOX..XOX'
p2984
F0.5
sS'OO..XXX.O'
p2985
F0.9999999999999998
sS'.XXOO.XO.'
p2986
F0.97800976744448
sS'..OXX....'
p2987
F0.5
sS'X.XOOX.O.'
p2988
F0.9999999999999998
sS'.O..XXOXO'
p2989
F0.9999999997513384
sS'OXX.XOOX.'
p2990
I1
sS'X.OXOX.O.'
p2991
F0.9927942405962072
sS'XX.X...OO'
p2992
F0.5
sS'O.X..OX.X'
p2993
F0.5
sS'OOOX.XOXX'
p2994
F0.0
sS'OXOXXO...'
p2995
F0.9999999911657647
sS'OXOXXO..X'
p2996
F0.5
sS'X.XOOX.OX'
p2997
I1
sS'OO..XXX..'
p2998
F0.5
sS'X.OXOX.OX'
p2999
F0.5
sS'..OXX...O'
p3000
F1.0
sS'.XXOO.XOX'
p3001
F0.5
sS'O.XX.O.X.'
p3002
F0.5
sS'X.O.XOOXX'
p3003
I1
sS'XX.O.OXXO'
p3004
F0.5
sS'XOOXOX..X'
p3005
F0.5
sS'OOOXOXXX.'
p3006
F0.0
sS'XO.OXXXO.'
p3007
F0.5
sS'X.OXO....'
p3008
F0.9999999999999998
sS'.X.XXO..O'
p3009
F0.5
sS'XOOOXXX.O'
p3010
F0.5
sS'..XOO..X.'
p3011
F0.5
sS'..XOO..XX'
p3012
F0.5
sS'X.XOX..O.'
p3013
F0.5
sS'..OX.XOOX'
p3014
F1.0
sS'X.....X.O'
p3015
F0.5
sS'X..O...OX'
p3016
F0.9999999999999998
sS'XOOOXXX..'
p3017
F0.5
sS'X.OXO...X'
p3018
F0.5
sS'XOOXOX...'
p3019
F0.965640261632
sS'O.XX.O.XO'
p3020
F0.5
sS'XO.OOXXOX'
p3021
F0.0
sS'OXXOXO.X.'
p3022
I1
sS'X.O.XOOX.'
p3023
F1.0
sS'XO.OXXXOO'
p3024
F0.9999999999999998
sS'...X.XOOX'
p3025
F0.5
sS'XO.XXO...'
p3026
F0.5
sS'XO..OXXO.'
p3027
F0.0
sS'.XX.XOOOX'
p3028
F0.5
sS'OX.X..OXO'
p3029
F0.9725122093056
sS'O..O.XOXX'
p3030
F0.0
sS'.X.X..OXO'
p3031
F0.5
sS'X.OOXX.XO'
p3032
F0.5
sS'O.X..XOX.'
p3033
F0.5
sS'XOXXXOO.O'
p3034
F0.5
sS'X.OX.XOO.'
p3035
F0.9927942405962072
sS'X.OX.XOOX'
p3036
F0.5
sS'O.X..XOXO'
p3037
F0.5
sS'.XO.XX..O'
p3038
F0.5
sS'XOXXXOO..'
p3039
F0.5
sS'X..XOOX..'
p3040
I1
sS'.XX.XOOO.'
p3041
F0.9999999971051978
sS'XO.XXO..O'
p3042
F0.9999999999999998
sS'.OOXO.X.X'
p3043
F0.5
sS'...X.XOO.'
p3044
F0.9981110534068522
sS'OX.X..OX.'
p3045
F0.5
sS'....XOOXX'
p3046
F0.5
sS'XO....X.O'
p3047
F0.9999999999999998
sS'X.O...O.X'
p3048
F0.9999999999999998
sS'...XOXO.X'
p3049
F0.5
sS'X..XO...O'
p3050
F0.9999999999999998
sS'XOOX.XO..'
p3051
F0.9997971759039634
sS'XOXOXXXOO'
p3052
I1
sS'..XX.X.OO'
p3053
F0.5
sS'XOXOX...O'
p3054
F0.9999999999999998
sS'.....XXOO'
p3055
F0.5
sS'X.OX.O.XO'
p3056
F0.0
sS'X..X.O.XO'
p3057
F0.5
sS'X.OXX..O.'
p3058
F0.5
sS'O...OX.XX'
p3059
F0.5
sS'...XXXO.O'
p3060
I1
sS'.O...XOX.'
p3061
F0.5
sS'OO.XX..OX'
p3062
F1.0
sS'XOXOX....'
p3063
F0.5
sS'X.OXX.OXO'
p3064
F0.5
sS'X.OX.O.X.'
p3065
F0.5
sS'O...OX.X.'
p3066
F0.5
sS'X.OXX..OO'
p3067
F0.5
sS'.O...XOXX'
p3068
F0.5
sS'O.X....OX'
p3069
F1.0
sS'XOOO.XOXX'
p3070
F0.9725122093056
sS'...XOXO..'
p3071
F0.5
sS'XOOX.XO.X'
p3072
F0.5
sS'X..XO....'
p3073
F0.5
sS'XOOXXXOXO'
p3074
I1
sS'....XOOX.'
p3075
F1.0
sS'X.X.O...O'
p3076
F1.0
sS'O..XXXOXO'
p3077
I1
sS'..O.XXO..'
p3078
F1.0
sS'XX.XOXOO.'
p3079
F0.5
sS'.XX.OOX..'
p3080
F0.5
sS'XOXOX.OXO'
p3081
F0.5
sS'XO.O.O.XX'
p3082
F0.9887410009315738
sS'....O.X..'
p3083
F0.5
sS'X....OOXX'
p3084
F0.5
sS'..X.XOOXO'
p3085
F0.9999976615973802
sS'X.OXOOOXX'
p3086
F0.0
sS'XOX.OXXOO'
p3087
F0.0
sS'XOXOX.OX.'
p3088
F0.5
sS'.XXO...XO'
p3089
F0.5
sS'..OX.X.O.'
p3090
F0.9999999999999944
sS'XXOX....O'
p3091
F0.5
sS'X....OOX.'
p3092
F0.5
sS'....O.X.X'
p3093
F0.5
sS'X.X.O....'
p3094
F0.5
sS'.XX.OOX.O'
p3095
F0.6
sS'..O.XXO.X'
p3096
F0.5
sS'XX..OXXOO'
p3097
F0.5
sS'.OX....X.'
p3098
F0.5
sS'.X..XOX.O'
p3099
F0.5
sS'OXOOXX...'
p3100
F0.9999999929326118
sS'...XXO.O.'
p3101
F0.5
sS'OX..XX..O'
p3102
F0.5
sS'OOX..X..X'
p3103
I1
sS'OXX.OXO..'
p3104
F0.6
sS'.OX.X.OOX'
p3105
F0.9999999999999998
sS'.O.OXXXOX'
p3106
F0.5
sS'XXOOXXOO.'
p3107
F1.0
sS'OXX.OO.XX'
p3108
F0.5
sS'XOXOOXOX.'
p3109
F0.9999999911657647
sS'OXXOXO...'
p3110
F0.9999995096014269
sS'OXXX.OX.O'
p3111
F0.5
sS'XOXOOXOXX'
p3112
I1
sS'OXX.OO.X.'
p3113
F0.5
sS'O..O...XX'
p3114
F0.83616
sS'OXXOXO..X'
p3115
F0.5
sS'.O.OXXXO.'
p3116
F1.0
sS'XXOOXXOOX'
p3117
I1
sS'..XOXXOXO'
p3118
F0.5
sS'OOX..X...'
p3119
F0.9999999999999998
sS'OXX.OXO.X'
p3120
I1
sS'OXOOXX..X'
p3121
F0.5
sS'O.XX..O.X'
p3122
F0.5
sS'OXX...X.O'
p3123
F0.5
sS'O.XO.X.XO'
p3124
F0.5
sS'OO.X.X.X.'
p3125
F0.5
sS'..XO..XOX'
p3126
F0.5
sS'O.OXXO..X'
p3127
F0.5
sS'XOX..OX..'
p3128
F0.5
sS'OOXX.X.XO'
p3129
F0.5
sS'OXOX...XO'
p3130
F0.9887410009315738
sS'.X.OXO.OX'
p3131
F0.9999970769967254
sS'XOO.OXX.X'
p3132
F0.5
sS'XOX..OX.O'
p3133
F0.9999999999999998
sS'XXOOOOXX.'
p3134
F0.0
sS'.OOOXX..X'
p3135
F0.9999999999863297
sS'.XXOO..OX'
p3136
F0.9990328593443083
sS'OXOX...X.'
p3137
F0.5
sS'.OXXXXO.O'
p3138
I1
sS'OX..O.XOX'
p3139
F0.5
sS'.OXO....X'
p3140
F1.0
sS'O.OOXXOXX'
p3141
F0.0
sS'..XO..XO.'
p3142
F1.0
sS'O.XX..O..'
p3143
F0.5
sS'OO.X.X.XO'
p3144
F0.6
sS'X..O..XOX'
p3145
F0.5
sS'OXOXXOXOX'
p3146
F0.5
sS'.XO.....X'
p3147
F0.5
sS'..OXO.XOX'
p3148
F0.5
sS'.OXOX.OX.'
p3149
F0.5
sS'OXO..OXXX'
p3150
I1
sS'XXXXOOOOX'
p3151
I1
sS'.O.XOX..X'
p3152
F0.5
sS'XOOXXO.X.'
p3153
F0.5
sS'..X.X..OO'
p3154
F0.9999999954768716
sS'OOO.X..XX'
p3155
F0.0
sS'.O.XOX...'
p3156
F0.5
sS'OXO..OXX.'
p3157
F1.0
sS'XOOXXO.XO'
p3158
F0.0
sS'..X.X..O.'
p3159
F0.5
sS'.OXOX.OXX'
p3160
F0.5
sS'X.O.OXO.X'
p3161
F0.0
sS'.XO......'
p3162
F0.5
sS'..X....XO'
p3163
F0.5
sS'..O...XXO'
p3164
F0.5
sS'O..OXOX.X'
p3165
F0.9963106511852582
sS'.OXXXOOX.'
p3166
F0.5
sS'...X....O'
p3167
F0.5
sS'X..O.XOOX'
p3168
F1.0
sS'OOXX..XXO'
p3169
F0.5
sS'X..X..OOX'
p3170
F0.5
sS'.X...O.XO'
p3171
F1.0
sS'OX.O.O.XX'
p3172
F0.9976388167585652
sS'..X.O..OX'
p3173
F1.0
sS'OXXO.XXO.'
p3174
F0.5
sS'XOXOXXOXO'
p3175
F0.5
sS'...XXO.OX'
p3176
F0.5
sS'.X...O.X.'
p3177
F0.5
sS'X..X..OO.'
p3178
F0.5
sS'..OX....X'
p3179
F0.5
sS'OXXO.XXOO'
p3180
F0.9999954328073833
sS'OOXX.O..X'
p3181
F0.5
sS'X.X.O.X.O'
p3182
F0.5
sS'..O...XX.'
p3183
F0.5
sS'.OXXOXOXO'
p3184
F0.5
sS'.OXXXOOXO'
p3185
F0.5
sS'...X.....'
p3186
F0.5
sS'OX.XXXO.O'
p3187
I1
sS'...XO..X.'
p3188
F0.5
sS'OXXXXO..O'
p3189
F0.5
sS'X...X..OO'
p3190
F0.5
sS'.XXO.OXO.'
p3191
F0.8951424
sS'....O..X.'
p3192
F0.5
sS'.XXXO.OOX'
p3193
F0.5
sS'OO.X...X.'
p3194
F0.5
sS'.XXO.OXOX'
p3195
F0.5
sS'.XXXO.OO.'
p3196
F0.9463129088000001
sS'OO.X...XX'
p3197
F0.5
sS'....O..XX'
p3198
F0.5
sS'.XOX...OX'
p3199
F0.5
sS'X...X..O.'
p3200
F0.5
sS'XXXOXOXOO'
p3201
I1
sS'OXX.OO..X'
p3202
F0.5
sS'...OX..X.'
p3203
F0.5
sS'...XO..XO'
p3204
F0.5
sS'.XXXO..OO'
p3205
F0.6
sS'XX...XO.O'
p3206
F0.5
sS'.X.X.O.XO'
p3207
F0.5
sS'.OXOO..XX'
p3208
F0.982407813955584
sS'X.O.X...O'
p3209
F0.5
sS'.O.X.XOXO'
p3210
F0.8951424
sS'XX..OX..O'
p3211
F0.5
sS'.XOX.O.X.'
p3212
F0.5
sS'OXX.OOX.X'
p3213
F0.5
sS'XXOXOX.O.'
p3214
F0.5
sS'.X.O...X.'
p3215
F0.5
sS'.OX..X...'
p3216
F0.5
sS'O.XXXOOXO'
p3217
F0.9999999999999992
sS'X...OX.XO'
p3218
F0.5
sS'.XXO..OOX'
p3219
F0.8951424
sS'XX.XO.OXO'
p3220
F0.5
sS'X.XO.OO.X'
p3221
F0.982407813955584
sS'.X.O...XO'
p3222
F1.0
sS'OOOX.XXOX'
p3223
F0.0
sS'X...X.OXO'
p3224
F0.5
sS'.OX..X..O'
p3225
F0.5
sS'O.XXXOOX.'
p3226
F0.5
sS'OXX.OOX..'
p3227
F0.5
sS'.XXXO..O.'
p3228
F0.5
sS'X.O.X....'
p3229
F0.5
sS'.O.X.XOX.'
p3230
F0.5
sS'.XOX.O.XO'
p3231
F0.0
sS'XX.XOO..O'
p3232
F0.7952
sS'.O.XO.OXX'
p3233
F0.5
sS'O.XXOO..X'
p3234
F0.5
sS'..X...OOX'
p3235
F1.0
sS'.X.X.OO.X'
p3236
F0.5
sS'.XXOXOO..'
p3237
F0.9999999971051978
sS'..O.X....'
p3238
F0.5
sS'.O..OXX..'
p3239
F0.5
sS'..O.X...X'
p3240
F0.5
sS'.O..OXX.X'
p3241
F0.5
sS'.XXOXOO.X'
p3242
F0.5
sS'XXOXOXOO.'
p3243
F0.0
sS'...OXXX.O'
p3244
F0.5
sS'XXOXOX.OO'
p3245
F0.5
sS'OXO.O.X.X'
p3246
F1.0
sS'.X.X.OO..'
p3247
F0.5
sS'OXXOXOX..'
p3248
I1
sS'O.XXO.X..'
p3249
F0.5
sS'XX.XOO...'
p3250
F0.5
sS'OXXO.XOXO'
p3251
F0.0
sS'..OXX..OX'
p3252
F0.5
sS'XOX.O..X.'
p3253
F0.5
sS'.XO.O.X.X'
p3254
F0.5
sS'.O..OX..X'
p3255
F1.0
sS'......X.O'
p3256
F0.5
sS'XXXX.OOO.'
p3257
I1
sS'.OXO.XX..'
p3258
F0.5
sS'X..OO.XXO'
p3259
F0.5
sS'O..XX.X.O'
p3260
F0.5
sS'......X..'
p3261
F0.5
sS'.OXO.XX.O'
p3262
F0.9999774820018632
sS'O.X.XO.OX'
p3263
F1.0
sS'X.O.OXXXO'
p3264
F0.5
sS'X..OO.XX.'
p3265
F0.5
sS'.O..XXOOX'
p3266
F0.5
sS'OOX.XXX.O'
p3267
I1
sS'O.XX.XXOO'
p3268
F0.5
sS'.XO.O.X..'
p3269
F0.5
sS'..OXX..O.'
p3270
F1.0
sS'XOX.O..XO'
p3271
F0.5
sS'XXXOXOOXO'
p3272
I1
sS'OX.O..XOX'
p3273
F0.5
sS'.OXOXX.OX'
p3274
I1
sS'.X.X..XOO'
p3275
F0.5
sS'..O....XX'
p3276
F0.5
sS'XO.OXXX.O'
p3277
F0.5
sS'XXXO.OOX.'
p3278
I1
sS'OOXXX.OX.'
p3279
F0.5
sS'XOOX..XOX'
p3280
I1
sS'OX.XOOXX.'
p3281
F0.5
sS'.O.XOXOXX'
p3282
F0.5
sS'X.XXOXO.O'
p3283
F0.5
sS'OOX.X.XXO'
p3284
I1
sS'.X.OOXXXO'
p3285
F0.5
sS'OOXXX.OXO'
p3286
F1.0
sS'.O.XOXOX.'
p3287
F0.5
sS'OX.XOOXXO'
p3288
F0.0
sS'XOOOX.X.X'
p3289
I1
sS'..OXO...X'
p3290
F0.5
sS'..O....X.'
p3291
F0.5
sS'XOOXOX.XO'
p3292
F0.9999999999999355
sS'O.OX..XOX'
p3293
F0.5
sS'.OXOXX.O.'
p3294
F0.9999995096014269
sS'O..X.OX..'
p3295
F0.5
sS'XOXXXO.O.'
p3296
F0.5
sS'X.O.OX.X.'
p3297
F0.5
sS'..O..XX.O'
p3298
F0.5
sS'.XOOOXXOX'
p3299
F0.5
sS'.XX.XOO.O'
p3300
F0.9999999954768716
sS'.X.O..XO.'
p3301
F0.5
sS'.XX..OX.O'
p3302
F0.5
sS'.OO.XOX.X'
p3303
F0.9859262511644672
sS'OOXX..OX.'
p3304
F0.5
sS'.XX.XOO..'
p3305
F0.5
sS'OOXOXXOX.'
p3306
F0.0
sS'XO.X.OO.X'
p3307
F0.9999999999999998
sS'OOXX..OXX'
p3308
F0.5
sS'.X.O..XOX'
p3309
F0.5
sS'OX.XOX...'
p3310
F0.5
sS'XX.OXXO.O'
p3311
F0.5
sS'XOXXXO.OO'
p3312
F0.5
sS'...O.X.OX'
p3313
F0.9999999985178614
sS'..O..XX..'
p3314
F0.5
sS'O..X.OX.X'
p3315
F0.5
sS'..XX.O.OX'
p3316
F0.5
sS'.OXXX...O'
p3317
F0.5
sS'O...XO.XX'
p3318
F0.5
sS'X..XO.OXO'
p3319
F0.5
sS'..O..OXX.'
p3320
F1.0
sS'X.OOX..XO'
p3321
F0.9999727774106463
sS'OXXO..XXO'
p3322
F0.5
sS'.XOXOO.X.'
p3323
F0.5
sS'OOXX.XXO.'
p3324
F0.5
sS'XO..XOX.O'
p3325
F0.9999999999999998
sS'OXXOOO.XX'
p3326
F0.0
sS'OXOX..O.X'
p3327
F0.5
sS'X.OOX..X.'
p3328
F0.5
sS'OOXX.XXOO'
p3329
F0.5
sS'XO..XOX..'
p3330
F0.5
sS'.XOXOO.XX'
p3331
F0.5
sS'XOX.OX.XO'
p3332
F0.5
sS'XX.X..O.O'
p3333
F0.5
sS'OX..XXOXO'
p3334
I1
sS'.O.OX.OXX'
p3335
F1.0
sS'..O..OXXX'
p3336
I1
sS'O...XO.X.'
p3337
F0.9999999929326118
sS'.X.OXX.OO'
p3338
F0.5
sS'...O.OX.X'
p3339
F0.83616
sS'..XX.O.O.'
p3340
F0.5
sS'X..XO.OX.'
p3341
F0.5
sS'XOX.XO.XO'
p3342
F0.5
sS'OO.....XX'
p3343
F0.9981110534068522
sS'XXOX.OOXO'
p3344
F0.0
sS'X.X.O..OX'
p3345
F0.5
sS'XX..XOOXO'
p3346
I1
sS'XXO.X..O.'
p3347
F0.5
sS'XOXOO.OXX'
p3348
F0.9999999730400534
sS'OOO.XX..X'
p3349
F0.0
sS'OXXO.OXOX'
p3350
F0.9999999999999998
sS'OX.OXX.XO'
p3351
I1
sS'X.X..X.OO'
p3352
F0.5
sS'XXOX.OOX.'
p3353
F0.5
sS'X.X.O..O.'
p3354
F1.0
sS'XXO.X..OO'
p3355
F0.5
sS'OOX.X.X..'
p3356
I1
sS'X.OOXX...'
p3357
F0.5
sS'X.XO.X..O'
p3358
F0.5
sS'OX..X.OX.'
p3359
I1
sS'X.OXXO...'
p3360
F0.5
sS'.OO.XX...'
p3361
F1.0
sS'O.XXXXO.O'
p3362
I1
sS'XX...O...'
p3363
F0.5
sS'XOX..OXXO'
p3364
F0.5
sS'XOXO.X.O.'
p3365
F0.9999999999999998
sS'OXOOX.X.X'
p3366
F0.5
sS'X.XXO.OO.'
p3367
F0.9998377407231708
sS'.OX.OOX.X'
p3368
F0.9990328593443083
sS'.OOXXOXOX'
p3369
F0.5
sS'.OX.X.O.X'
p3370
F0.5
sS'XO...X..O'
p3371
F0.5
sS'XX...O..O'
p3372
F1.0
sS'.OX.X.O..'
p3373
F0.5
sS'.OO.XX..X'
p3374
F0.5
sS'X.XXO.OOX'
p3375
F0.5
sS'XO.OXO.XX'
p3376
I1
sS'OXOOX.X..'
p3377
F0.9999999999999998
sS'XO...X...'
p3378
F0.5
sS'X.OOXX..O'
p3379
F0.5
sS'XXX.OO...'
p3380
I1
sS'X.X.XOXOO'
p3381
I1
sS'XXXOOXOOX'
p3382
I1
sS'X.OXXO..O'
p3383
F0.0
sS'.XO.XO.X.'
p3384
I1
sS'..X.XO.O.'
p3385
F1.0
sS'.XX.O.O..'
p3386
F0.9999999999998425
sS'O..XOX.X.'
p3387
F0.5
sS'OOXXXXXOO'
p3388
I1
sS'.O.X..X..'
p3389
F0.5
sS'X....O..X'
p3390
F0.5
sS'O..XX...O'
p3391
F1.0
sS'.O.OXXX..'
p3392
F0.5
sS'.OXO.X..X'
p3393
I1
sS'O..XXO.XO'
p3394
F0.9998377407231708
sS'X.O.OX.OX'
p3395
F0.5
sS'.O.X..X.O'
p3396
F1.0
sS'.OXO.X...'
p3397
F0.9999999997513384
sS'O..XX....'
p3398
F0.5
sS'.O.OXXX.O'
p3399
F0.9999999999999998
sS'O.XO..X.X'
p3400
F0.5
sS'..X.OX.XO'
p3401
F0.5
sS'X....O...'
p3402
F0.5
sS'O..XXO.X.'
p3403
F0.5
sS'XXO.O.O.X'
p3404
F0.0
sS'O..XOX.XO'
p3405
F0.0
sS'.XX.O.O.X'
p3406
F0.5
sS'..X.XO.OX'
p3407
F0.5
sS'OXXOX..OX'
p3408
F0.5
sS'OOXXXO.OX'
p3409
F0.9999999999999931
sS'XX....OO.'
p3410
F0.9999999999999998
sS'XO.XO.XXO'
p3411
I1
sS'X.OO.XXXO'
p3412
F0.5
sS'OO.X.O.XX'
p3413
F0.8951424
sS'OOX.XOX.X'
p3414
I1
sS'.XO....OX'
p3415
F0.5
sS'..OXO.X.X'
p3416
F0.5
sS'OOOXX...X'
p3417
F0.0
sS'..OXO.X..'
p3418
F0.9999999999999998
sS'...X.O..X'
p3419
F0.5
sS'XXOXOO.OX'
p3420
F1.0
sS'OXX.XO.XO'
p3421
I1
sS'OXX.XXO.O'
p3422
F0.5
sS'X...XO.XO'
p3423
F0.5
sS'OXXOX..O.'
p3424
F0.9999992337522295
sS'O.XOX.XXO'
p3425
I1
sS'..XXOOO.X'
p3426
F0.5
sS'.O.XXOX..'
p3427
F0.5
sS'..O...X..'
p3428
F0.5
sS'O.X...X.O'
p3429
F1.0
sS'X.X.OOXO.'
p3430
F0.5
sS'...OX..OX'
p3431
F1.0
sS'XO.OX.X.O'
p3432
F1.0
sS'OOX.X...X'
p3433
F0.5
sS'OXOXX..OX'
p3434
F0.5
sS'XOOXOX.X.'
p3435
F0.5
sS'.OO.XX.XO'
p3436
F0.9999985034223233
sS'...O.XX.O'
p3437
F0.5
sS'..X..XO.O'
p3438
F0.5
sS'.OXOXXO..'
p3439
F1.0
sS'X.XXO..OO'
p3440
F0.5
sS'OO.X....X'
p3441
F0.5
sS'.....X.XO'
p3442
F0.5
sS'XXOOO.XXO'
p3443
F0.5
sS'.XOXO.XO.'
p3444
F0.9909928007452591
sS'X..O.XO.X'
p3445
F0.5
sS'..X..OX.O'
p3446
F0.91611392
sS'.XOXO.XOX'
p3447
F0.5
sS'X.XXO..O.'
p3448
F0.5
sS'X..O.XO..'
p3449
F0.5
sS'XXOOO.XX.'
p3450
F0.5
sS'..X..OX..'
p3451
F0.5
sS'.O.XXOX.O'
p3452
F0.9963106511852582
sS'..X.OOOXX'
p3453
F0.5
sS'OOX.X....'
p3454
F1.0
sS'O.X...X..'
p3455
F0.5
sS'XXXOO.O.X'
p3456
I1
sS'XO.OX.X..'
p3457
F0.5
sS'OXOXX..O.'
p3458
F0.9999999861965073
sS'..O...X.X'
p3459
F0.5
sS'.OO.XX.X.'
p3460
F0.5
sS'...O.XX..'
p3461
F0.5
sS'..X..XO..'
p3462
F0.5
sS'.OXX.O.OX'
p3463
F0.5
sS'.OX.OOXX.'
p3464
F1.0
sS'.X.OX...O'
p3465
F0.9999999999999998
sS'XOO..X.XO'
p3466
F0.5
sS'X.O.XXO..'
p3467
F0.5
sS'.OO.X..X.'
p3468
F0.5
sS'.XOO...XX'
p3469
F0.5
sS'O...X..X.'
p3470
F0.5
sS'OO.XXX.OX'
p3471
I1
sS'OOXXOXOXX'
p3472
I1
sS'.O..XOXX.'
p3473
F0.5
sS'OX.OXO..X'
p3474
F0.9999995096014269
sS'.O..XOXXO'
p3475
F0.9999999999999998
sS'...XOOXOX'
p3476
F0.9999999999999998
sS'XOOOX.X..'
p3477
F0.9999999999971332
sS'X.OXXX.OO'
p3478
I1
sS'..XOO.XOX'
p3479
F0.6799999999999999
sS'.OXX.XXOO'
p3480
F0.5
sS'.OX.OOXXX'
p3481
I1
sS'.XOO...X.'
p3482
F1.0
sS'XXX.OOX.O'
p3483
I1
sS'.OO.X..XX'
p3484
F0.5
sS'OXOXX.OOX'
p3485
F0.9999999999999998
sS'.X.OX....'
p3486
F0.5
sS'XOO..X.X.'
p3487
F0.5
sS'X..XOX..O'
p3488
F0.5
sS'OX.X..XO.'
p3489
F0.5
sS'O.OO.XX.X'
p3490
F0.95705032704
sS'XOO.X...X'
p3491
I1
sS'XO.X..OOX'
p3492
F0.9999999999999998
sS'O....XXXO'
p3493
F0.5
sS'X.O.X..OX'
p3494
I1
sS'X.XXOOX.O'
p3495
I1
sS'OX...O..X'
p3496
F0.5
sS'X.O.X..O.'
p3497
F0.9999999999999998
sS'XXOOOX.OX'
p3498
F0.5
sS'.X..OO.XX'
p3499
F0.5
sS'.OXOXO..X'
p3500
F0.9984888427254818
sS'O..OXXXXO'
p3501
F0.5
sS'XOO.X....'
p3502
F1.0
sS'XX.O.X..O'
p3503
F0.5
sS'O..XX..XO'
p3504
F0.5
sS'OX.X..XOO'
p3505
F0.5
sS'X.OXO..OX'
p3506
F0.91611392
sS'XO.XXO.OX'
p3507
I1
sS'.X.OX.OX.'
p3508
I1
sS'.XX.OX.O.'
p3509
F0.5
sS'.X.OO.XXO'
p3510
F0.5
sS'.OXOXOX.X'
p3511
I1
sS'.O.XXO.OX'
p3512
F1.0
sS'.XX....OO'
p3513
F1.0
sS'X..XOXXOO'
p3514
I1
sS'.X.OXOXXO'
p3515
I1
sS'.XX....O.'
p3516
F0.5
sS'..OXXXO..'
p3517
I1
sS'OX...OXOX'
p3518
F0.5
sS'OXX.OOXOX'
p3519
F0.5
sS'XO.XX.OOX'
p3520
I1
sS'.XX.OX.OO'
p3521
F0.744
sS'XO.XXO.O.'
p3522
F0.9999999999999998
sS'.X.OO.XX.'
p3523
F0.5
sS'.O.XXOO.X'
p3524
F1.0
sS'O.X......'
p3525
F0.5
sS'.O.OXXXXO'
p3526
F0.5
sS'X..OX..OX'
p3527
I1
sS'.OXO.XOXX'
p3528
I1
sS'XOO.X.X.O'
p3529
F0.9999999999999998
sS'XOX.O..OX'
p3530
F0.0
sS'XO.XX..O.'
p3531
F0.5
sS'.....OX..'
p3532
F0.5
sS'.O.X.O.XX'
p3533
F0.5
sS'.XXO..O..'
p3534
F0.9999999999999994
sS'.X.OOXX.O'
p3535
F0.5
sS'.O.X....X'
p3536
F0.5
sS'.XXOOOX..'
p3537
F0.0
sS'.O.X.....'
p3538
F0.5
sS'.X.OOXX..'
p3539
F0.5
sS'.XO..X.XO'
p3540
F0.5
sS'.XXO..O.X'
p3541
F0.5
sS'.O.X.O.X.'
p3542
F0.5
sS'O..O..X.X'
p3543
F0.9998377407231708
sS'XOO.OX.X.'
p3544
F0.5
sS'O.X.XOXXO'
p3545
I1
sS'OOXXXX..O'
p3546
I1
sS'.....OX.X'
p3547
F0.5
sS'X.OXO.XXO'
p3548
I1
sS'.OXO.XOX.'
p3549
F1.0
sS'X..OX..O.'
p3550
F0.9999999999999998
sS'XXO..XOXO'
p3551
F0.5
sS'XOO.X.X..'
p3552
F0.5
sS'O.XXX.XOO'
p3553
I1
sS'XO.XX..OO'
p3554
F0.9999999999999998
sS'O.XOXOXX.'
p3555
I1
sS'OOXXO.X.X'
p3556
F0.5
sS'XOOOXX..X'
p3557
I1
sS'O.OX..X.X'
p3558
F0.5
sS'OX.OOXX..'
p3559
F0.5
sS'XX.O..O..'
p3560
F0.9999999999999998
sS'..O.XXOOX'
p3561
F0.9976388167585652
sS'.XO.XOXOX'
p3562
F0.5
sS'XOXOX..O.'
p3563
F0.9999999999999998
sS'..OXXOO.X'
p3564
F0.999999999689173
sS'.XXOXXO.O'
p3565
F0.5
sS'OXX.O.XOX'
p3566
F0.5
sS'OXX.O.XO.'
p3567
F0.5
sS'XOXOX..OX'
p3568
I1
sS'XX.O..O.X'
p3569
F0.5
sS'OX.OOXX.X'
p3570
F0.5
sS'XOOOXX...'
p3571
F0.9999999963814973
sS'XXOXOOX..'
p3572
I1
sS'O.OX..X..'
p3573
F0.5
sS'XOXXXO..O'
p3574
F0.5
sS'XXO...OXO'
p3575
F1.0
sS'..XOXX.O.'
p3576
F0.5
sS'XO.X.XXOO'
p3577
I1
sS'O.O.OX.XX'
p3578
F0.9999992337522295
sS'..OX.X...'
p3579
F0.5
sS'XOOX..X..'
p3580
I1
sS'.XO.XXOXO'
p3581
I1
sS'XOX.OX..O'
p3582
F0.5
sS'XOX...O.X'
p3583
F0.5
sS'XOX...O..'
p3584
F0.5
sS'..OX.X..O'
p3585
F0.9999999999999998
sS'OOOXX.XOX'
p3586
F0.0
sS'O.XO.XOX.'
p3587
F0.0
sS'XOX.OX...'
p3588
F0.5
sS'..XOXX.OO'
p3589
F0.9999999999998992
sS'XXO...OX.'
p3590
F0.5
sS'..X.OXXOO'
p3591
F0.5
sS'XOOOXXOX.'
p3592
F1.0
sS'OOX.XX...'
p3593
F0.5
sS'XXXOX.O.O'
p3594
I1
sS'OXOX..XXO'
p3595
F0.5
sS'OX.OXX..O'
p3596
F0.9999999999999998
sS'...OXOXX.'
p3597
F0.5
sS'OX.....X.'
p3598
F0.5
sS'.OXOXOXX.'
p3599
I1
sS'.X..XOOOX'
p3600
F1.0
sS'.XOXOXO..'
p3601
F0.0
sS'OX.OXX...'
p3602
F0.5
sS'OOX..XXXO'
p3603
F0.5
sS'.OO...X.X'
p3604
F0.9970485209482065
sS'..OXOX.XO'
p3605
F0.5
sS'.X..OO.X.'
p3606
F0.5
sS'......XXO'
p3607
F0.5
sS'..X.OXXO.'
p3608
F0.5
sS'XXX.OX.OO'
p3609
I1
sS'XOOXXXOOX'
p3610
I1
sS'XXX..OXOO'
p3611
I1
sS'OOX.XX..O'
p3612
F0.9999999999999998
sS'OXXX.XO.O'
p3613
F0.5
sS'XOOOXXOXX'
p3614
I1
sS'XX.O.O...'
p3615
F1.0
sS'.O.OXOX.X'
p3616
F0.5
sS'.O.X...X.'
p3617
F0.5
sS'XOO...X..'
p3618
F0.9999999999999587
sS'XO.X.OOXX'
p3619
F0.5
sS'OO.XO.XX.'
p3620
F0.6
sS'OX.O.OXXX'
p3621
I1
sS'XOX...XO.'
p3622
F0.5
sS'XO..XO.XO'
p3623
F0.5
sS'OX.XOX..O'
p3624
F0.0
sS'XOX...XOO'
p3625
F0.9999999999999998
sS'OO.XO.XXX'
p3626
I1
sS'XO..XO.X.'
p3627
F0.5
sS'XOOXX.XO.'
p3628
I1
sS'OX.O.OXX.'
p3629
F1.0
sS'XOO...X.X'
p3630
F0.5
sS'XO.X.OOX.'
p3631
F0.5
sS'.XOX.X..O'
p3632
F0.5
sS'XX.O.O..X'
p3633
F0.5
sS'XXOO..O.X'
p3634
F0.9997464698799543
sS'XOXOXOXOX'
p3635
I1
sS'.OOXOX.XX'
p3636
F0.5
sS'OOOXXOX.X'
p3637
F0.0
sS'XO...XOOX'
p3638
F0.9999999999999998
sS'.OXXX.OXO'
p3639
F0.5
sS'X.XO.XOXO'
p3640
F0.5
sS'OXOOXXX..'
p3641
F0.5
sS'.X.OO...X'
p3642
F0.5
sS'....XX.O.'
p3643
F0.5
sS'X.OX.OOXX'
p3644
F0.5
sS'....XXOOX'
p3645
F0.5
sS'.X.XOX..O'
p3646
F0.5
sS'....XXOO.'
p3647
F0.9999999999999998
sS'OX..OO.XX'
p3648
F0.9976388167585652
sS'OXOOXXX.O'
p3649
F1.0
sS'....XX.OO'
p3650
F0.9999999999999998
sS'.XOO.X.X.'
p3651
F0.5
sS'...OX.O.X'
p3652
F1.0
sS'O..X.O..X'
p3653
F0.5
sS'...XX.XOO'
p3654
F0.5
sS'X.XO..OX.'
p3655
F0.5
sS'XO.O.XXOX'
p3656
F0.5
sS'OXXXOO.XO'
p3657
F0.0
sS'OXX....XO'
p3658
F0.5
sS'..XXXOOXO'
p3659
F0.5
sS'XO..XX..O'
p3660
F0.5
sS'OXXXOO.X.'
p3661
F0.5
sS'XO.O.XXO.'
p3662
F0.5
sS'X.XO..OXO'
p3663
F0.9999999999999999
sS'..XXOXO.O'
p3664
F0.5
sS'..XO.X.O.'
p3665
F0.9999999999666251
sS'OOOX.XX..'
p3666
F0.0
sS'.O...X.X.'
p3667
F0.5
sS'..O.XO.X.'
p3668
F0.9999910797019206
sS'X.O.OX...'
p3669
F0.5
sS'X.X.OO...'
p3670
F1.0
sS'OXXOX...O'
p3671
F0.9999998714449565
sS'OOX.O..XX'
p3672
F0.9999999999999998
sS'.XX.O..XO'
p3673
F0.5
sS'.O...X.XO'
p3674
F0.5
sS'X.X.OO..X'
p3675
F0.5
sS'.X...OOX.'
p3676
F1.0
sS'O..OXX.XO'
p3677
F0.9999999999999998
sS'OXXOX....'
p3678
F0.5
sS'X.O.OX..X'
p3679
F0.5
sS'..O.XO.XX'
p3680
F0.5
sS'..XXOXO..'
p3681
F0.5
sS'XX..O.X.O'
p3682
F0.5
sS'..XO.X.OX'
p3683
I1
sS'..O.O..XX'
p3684
F1.0
sS'X.X.OOX.O'
p3685
F0.9999999999733001
sS'O.OX.XX.O'
p3686
F0.6799999999999999
sS'.OOXO.XX.'
p3687
F0.9992262874754466
sS'O.X...XOX'
p3688
F0.5
sS'..O...XOX'
p3689
F0.5
sS'XO.XOOXX.'
p3690
I1
sS'X.OOO.XXX'
p3691
I1
sS'X...OO.XX'
p3692
F0.5
sS'..X..XOOX'
p3693
I1
sS'OOX.O.XX.'
p3694
F0.999999999984
sS'.X.O.OXX.'
p3695
F0.5
sS'OXO...XX.'
p3696
F0.5
sS'.XX..XOO.'
p3697
F0.5
sS'XOOXOXO.X'
p3698
F0.0
sS'O..XOOX.X'
p3699
F0.9999996861449132
sS'XOO...XX.'
p3700
F0.5
sS'O...X.XXO'
p3701
F0.5
sS'OXO...XXO'
p3702
F0.9999999999999998
sS'..X..XOO.'
p3703
F0.9999993870017836
sS'X...OO.X.'
p3704
F0.5
sS'.XX..XOOO'
p3705
F0.0
sS'OOX.O.XXX'
p3706
I1
sS'X.X.OOX..'
p3707
F0.5
sS'O.OX.XX..'
p3708
F0.5
sS'X.OOO.XX.'
p3709
F0.965640261632
sS'.OOXO.XXX'
p3710
I1
sS'O.X...XO.'
p3711
F1.0
sS'...XOO.X.'
p3712
F0.5
sS'O.XO.XX..'
p3713
F0.5
sS'.OXO.XXO.'
p3714
F0.6799999999999999
sS'X......O.'
p3715
F0.5
sS'O.X.O.X..'
p3716
F0.5
sS'O.OXX.X..'
p3717
F0.5
sS'.X.OX..OX'
p3718
F0.5
sS'XX.OOXO..'
p3719
F0.8951424
sS'OXOX.OX.X'
p3720
F0.5
sS'.OO.OXXXX'
p3721
I1
sS'.XX.XOXOO'
p3722
I1
sS'.OO.OXXX.'
p3723
F0.744
sS'OXXO.OOXX'
p3724
F0.0
sS'XX.OOXO.X'
p3725
F0.5
sS'.X.OX..O.'
p3726
F0.5
sS'O..OX.OXX'
p3727
F0.0
sS'XXOXX..OO'
p3728
F0.5
sS'O.X.O.X.X'
p3729
F0.5
sS'O.XO..XOX'
p3730
F0.9999574647041348
sS'O.XO.XX.O'
p3731
F0.991203906977792
sS'X..O.OOXX'
p3732
F1.0
sS'...XOO.XX'
p3733
F0.5
sS'O.OXX.X.O'
p3734
F0.83616
sS'.OXO.XXOX'
p3735
I1
sS'XX.O.X.OO'
p3736
F1.0
sS'X..XX.OO.'
p3737
F0.5
sS'OXXXOXO..'
p3738
F0.5
sS'.XXOOX..O'
p3739
F0.6
sS'O.OXOX.X.'
p3740
F0.5
sS'..O.X.O.X'
p3741
F1.0
sS'XO.XO.X..'
p3742
I1
sS'XXX.OXOO.'
p3743
I1
sS'OX.OX.XO.'
p3744
F0.9999999999999998
sS'O..X.XXO.'
p3745
F0.5
sS'O.O.OXXX.'
p3746
F0.6
sS'X...OXX.O'
p3747
F0.5
sS'O.O.OXXXX'
p3748
I1
sS'XO...O.XX'
p3749
F0.5
sS'OX.OX.XOX'
p3750
F0.5
sS'O..X.XXOO'
p3751
F1.0
sS'XX.O.X.O.'
p3752
F0.5
sS'X..XX.OOO'
p3753
F0.0
sS'O.OXOX.XX'
p3754
F0.5
sS'OXXXOXO.O'
p3755
F0.0
sS'.XXOOX...'
p3756
F0.5
sS'.....XOOX'
p3757
F0.9999997991327445
sS'OXOXOXOX.'
p3758
I0
sS'XX.OXXOOO'
p3759
F0.0
sS'XXO.X.O.O'
p3760
F0.9999999999999971
sS'.OXX.OXXO'
p3761
F0.5
sS'...O.X..X'
p3762
F0.5
sS'OXX.OXOX.'
p3763
F0.5
sS'.O.XXO...'
p3764
F0.5
sS'OO..X..X.'
p3765
F0.5
sS'O.XXO.OX.'
p3766
F0.5
sS'OO.X.XXOX'
p3767
F0.5
sS'XXOOXO...'
p3768
F0.9999999784320427
sS'..OOOXXXX'
p3769
I1
sS'.XXO..OXO'
p3770
F0.9999999999999878
sS'OXOX.OXXO'
p3771
F0.0
sS'.XOX..XOO'
p3772
F0.9963106511852582
sS'O...O.XXX'
p3773
I1
sS'OXO.OXOXX'
p3774
F0.0
sS'X.XXOXOO.'
p3775
F0.5
sS'.XX.O.XOO'
p3776
F0.9999999889572059
sS'...OX.OX.'
p3777
F1.0
sS'.XXO..OX.'
p3778
F0.5
sS'OXOX.OXX.'
p3779
F0.5
sS'.XOX..XO.'
p3780
F0.5
sS'..OOOXXX.'
p3781
F0.7952
sS'XXOOXO..X'
p3782
I1
sS'.XOXXXO.O'
p3783
I1
sS'O...O.XX.'
p3784
F1.0
sS'X.XXOXOOO'
p3785
F0.0
sS'XO.X..O.X'
p3786
F0.5
sS'O.XXO.OXX'
p3787
F0.5
sS'XXO.X.O..'
p3788
F0.5
sS'OO..X..XX'
p3789
F0.5
sS'OO.X.XXO.'
p3790
F1.0
sS'X..XOOXXO'
p3791
I1
sS'OXX.OXOXO'
p3792
F0.0
sS'..O.....X'
p3793
F0.5
sS'.O.XXO..X'
p3794
F0.5
sS'...O.X...'
p3795
F0.5
sS'......O.X'
p3796
F0.5
sS'...OXXOXO'
p3797
F0.9999999999999998
sS'XO..O...X'
p3798
F0.5
sS'.O.O.X.X.'
p3799
F0.5
sS'.X...OX.O'
p3800
F0.5
sS'OOXX.OXOX'
p3801
F1.0
sS'O.X.XO.X.'
p3802
F0.5
sS'OXX.X.XOO'
p3803
I1
sS'..OOXXOX.'
p3804
F0.9953883139815727
sS'.OX...OXX'
p3805
F0.5
sS'OX.XOX.O.'
p3806
F0.5
sS'.OOXXX.OX'
p3807
I1
sS'OX..XXO.O'
p3808
F0.9999999999999998
sS'XOOOXOXX.'
p3809
F0.5
sS'..OOX.OXX'
p3810
F0.91611392
sS'XXO...OOX'
p3811
F0.8951424
sS'OOXXX.X.O'
p3812
I1
sS'OX.XOX.OX'
p3813
F0.5
sS'O.X.XO.XO'
p3814
F0.9942353924769658
sS'XOOOXOXXX'
p3815
I1
sS'X.OOO.X.X'
p3816
F0.9992262874754466
sS'.OX...OX.'
p3817
F0.5
sS'..OOXXOXX'
p3818
F0.5
sS'OX..XXO..'
p3819
F0.5
sS'.OXX.XO..'
p3820
F0.5
sS'X.XO.....'
p3821
F0.5
sS'O.O..X..X'
p3822
F0.5
sS'XX..XOXOO'
p3823
F0.5
sS'.OX..OXXO'
p3824
F0.9987910741803854
sS'OX.OOXXOX'
p3825
F0.999999999999874
sS'..X.XOO..'
p3826
F0.5
sS'OXXO.OX..'
p3827
F0.9999999999999998
sS'...O.O.XX'
p3828
F0.7952
sS'.OXOXX.XO'
p3829
F0.5
sS'X.XO..XOO'
p3830
F0.9999999999999998
sS'..OXXX.O.'
p3831
I1
sS'XO..XOXO.'
p3832
F0.5
sS'OXXXO.OXO'
p3833
F0.0
sS'..OO.X..X'
p3834
F0.5
sS'XO..XOXOX'
p3835
I1
sS'X.XO..XO.'
p3836
F0.5
sS'XO..XOOXX'
p3837
I1
sS'OXXXO.OX.'
p3838
F0.5
sS'.OX..OXX.'
p3839
F0.5
sS'OXXO.OX.X'
p3840
F0.5
sS'....XO.OX'
p3841
F1.0
sS'OXXOX.X.O'
p3842
I1
sS'.OO.X.XOX'
p3843
F0.9953883139815727
sS'..X.XOO.X'
p3844
F0.5
sS'OOXXOXOX.'
p3845
F1.0
sS'O..XOXOXX'
p3846
F0.5
sS'XXO..OX..'
p3847
F0.4
sS'.XX..O..O'
p3848
F1.0
sS'XO.O...X.'
p3849
F0.5
sS'..OXX.OX.'
p3850
F0.5
sS'O.XXOXXOO'
p3851
F0.0
sS'X.XXOX.OO'
p3852
F0.5
sS'.O..X.O.X'
p3853
F0.9999999999998992
sS'.O.XO.XX.'
p3854
F0.5
sS'.XX..X.OO'
p3855
F0.5
sS'O.XXOXXO.'
p3856
F0.5
sS'.X..O.O.X'
p3857
F0.5
sS'XOOXO.XX.'
p3858
I1
sS'.OX.X.XO.'
p3859
I1
sS'.O.XO.XXO'
p3860
F0.6799999999999999
sS'XO.O...XX'
p3861
F0.5
sS'XXXOOXO..'
p3862
I1
sS'XXO..OX.O'
p3863
F0.0
sS'.XX..O...'
p3864
F0.5
sS'.O.X.X.XO'
p3865
F0.5
sS'O..XOXOX.'
p3866
F0.5
sS'..OXX.OXO'
p3867
F0.95705032704
sS'.O..XO..X'
p3868
F1.0
sS'...OXX.OX'
p3869
F0.5
sS'OOO..XXX.'
p3870
F0.0
sS'.X..X.XOO'
p3871
F0.5
sS'.OOXXOX..'
p3872
F0.9963106511852582
sS'X.OOOXXX.'
p3873
F0.5
sS'XOOXO..X.'
p3874
F0.9859262511644672
sS'.X.XXOOXO'
p3875
I1
sS'XOOXO..XX'
p3876
F0.5
sS'X.OOOXXXO'
p3877
F0.5
sS'.OX.OXXXO'
p3878
F0.5
sS'.OOXXOX.X'
p3879
F0.5
sS'.XOOXOXX.'
p3880
I1
sS'XX.OXX.OO'
p3881
F0.5
sS'O.O.XOX.X'
p3882
F0.9927942405962072
sS'OX.XXOO.X'
p3883
F0.5
sS'...OXX.O.'
p3884
F0.5
sS'.XOX.X.OO'
p3885
F0.9992262874754466
sS'.XX..OOX.'
p3886
F0.5
sS'OXOOXOX.X'
p3887
F0.5
sS'OX.XXO...'
p3888
F0.5
sS'O.OOXX..X'
p3889
F0.5
sS'O.X.OOXXX'
p3890
I1
sS'...O..XXO'
p3891
F0.5
sS'O.XX.XOXO'
p3892
F0.5
sS'...O..XX.'
p3893
F0.5
sS'O.X.X.X.O'
p3894
I1
sS'.O.XXXXOO'
p3895
I1
sS'.OO.XO.XX'
p3896
F0.91611392
sS'O.X.OOXX.'
p3897
F0.744
sS'.XX..OOXO'
p3898
F0.99999999999998
sS'.XOX.X.O.'
p3899
F0.5
sS'OX.XXO..O'
p3900
F0.8951424
sS'XOX...OX.'
p3901
F0.5
sS'.OOX.XOX.'
p3902
F0.5
sS'OX.XX.OXO'
p3903
I1
sS'XO...XO.X'
p3904
F0.5
sS'OO.OX..XX'
p3905
F0.9990328593443083
sS'.O.OXXOXX'
p3906
F0.5
sS'.OOO.XXXX'
p3907
I1
sS'X..OXOX..'
p3908
F0.5
sS'XXOOXOX.O'
p3909
F0.0
sS'...O...X.'
p3910
F0.5
sS'XXO...O..'
p3911
F0.5
sS'XX.X.O.O.'
p3912
F0.5
sS'OOXX..XOX'
p3913
F0.5
sS'X..O.XXOO'
p3914
F0.5
sS'OOXOXO.XX'
p3915
F0.5
sS'OXO.OXXX.'
p3916
F0.5
sS'XO.O.X.X.'
p3917
F0.5
sS'X..OXOX.O'
p3918
F1.0
sS'OOXX..XO.'
p3919
F0.9981110534068522
sS'XXOOXOX..'
p3920
F0.5
sS'XX.X.O.OO'
p3921
F0.6
sS'OX.XXX.OO'
p3922
I1
sS'O...XOOXX'
p3923
F0.9996038591874287
sS'X..O.XXO.'
p3924
F0.5
sS'.OO.OX.XX'
p3925
F0.5
sS'...OX.XXO'
p3926
F0.5
sS'...O...XX'
p3927
F0.5
sS'XXO...O.X'
p3928
F0.5
sS'XOX...OXO'
p3929
F0.5
sS'XOX.O.XO.'
p3930
F0.0
sS'OOOXOX.XX'
p3931
F0.0
sS'.O.OXXOX.'
p3932
F0.5
sS'.OOX.XOXX'
p3933
F0.5
sS'X..XXOOO.'
p3934
F0.9999999999999998
sS'XO...XO..'
p3935
F0.5
sS'.X..OX.O.'
p3936
F0.5
sS'O.OO.XXXX'
p3937
I1
sS'X.XOOO.X.'
p3938
F0.0
sS'XOXX..OXO'
p3939
F0.5
sS'X....OX.O'
p3940
F0.9999999999999998
sS'O.XX.....'
p3941
F0.5
sS'OXO..XOXX'
p3942
F0.5
sS'O.XOXXXO.'
p3943
I1
sS'OX..XOXOX'
p3944
F0.5
sS'X..OO.X.X'
p3945
F0.5
sS'X.O.X.O.X'
p3946
I1
sS'X.XXO...O'
p3947
F0.5
sS'XOO.OX.XX'
p3948
F0.5
sS'OXO..XOX.'
p3949
F0.9990328593443083
sS'OX..XOXO.'
p3950
F0.9999999999999998
sS'X.....OOX'
p3951
F0.9999999999999998
sS'X..X.XO.O'
p3952
F0.5
sS'XOX.OO..X'
p3953
F0.5
sS'X....OX..'
p3954
F0.5
sS'O.XX....O'
p3955
F0.5
sS'O..OXO.XX'
p3956
F0.9997464698799543
sS'...O.XXXO'
p3957
F0.5
sS'XXO.O.XXO'
p3958
F0.5
sS'XOO..XXO.'
p3959
F1.0
sS'OX.X..X.O'
p3960
F0.5
sS'..O.X..XO'
p3961
F0.9999999999999998
sS'.O....X..'
p3962
F0.5
sS'..X.XXOO.'
p3963
F0.5
sS'..OOXXXO.'
p3964
F0.5
sS'.X.O.X.O.'
p3965
F0.5
sS'O....XO.X'
p3966
F0.9999999993929161
sS'OXXOX.O..'
p3967
F0.0
sS'X.XX.O..O'
p3968
F0.5
sS'.X.O.X.OX'
p3969
F0.5
sS'..OOXXXOX'
p3970
F0.5
sS'..X.XXOOO'
p3971
F0.0
sS'.XXXO.XOO'
p3972
F0.5
sS'OX...O.X.'
p3973
F1.0
sS'.O....X.X'
p3974
F0.5
sS'OXXX....O'
p3975
F0.5
sS'..O.X..X.'
p3976
F0.5
sS'XOO..XXOX'
p3977
F0.5
sS'OO.X..X.X'
p3978
F0.5
sS'...X..O..'
p3979
F0.5
sS'.XX.OX..O'
p3980
F0.5
sS'XX..OO.OX'
p3981
F0.9999997489159306
sS'.O..X..XO'
p3982
F0.5
sS'X.O.XXOXO'
p3983
F0.5
sS'..XXX..OO'
p3984
F0.5
sS'X..OXOXXO'
p3985
F0.5
sS'.OXXO.OXX'
p3986
F0.5
sS'.XOX.OO.X'
p3987
F0.5
sS'OXX.OOOXX'
p3988
F0.5
sS'..X.OOXXO'
p3989
F0.5
sS'OXOXOXX.O'
p3990
F0.0
sS'X.O..O.X.'
p3991
F0.49180788243509477
sS'..OXXO.OX'
p3992
F1.0
sS'.XO..OOXX'
p3993
F1.0
sS'.....XOX.'
p3994
F0.5
sS'X.O..O.XX'
p3995
F0.5
sS'..X.OOXX.'
p3996
F0.5
sS'O.O.XO.XX'
p3997
F0.9995048239842859
sS'X.OXX.O..'
p3998
F0.5
sS'.OXXO.OX.'
p3999
F0.5
sS'.O..X..X.'
p4000
F0.5
sS'OO.X..X..'
p4001
F0.5
sS'...X..O.X'
p4002
F0.5
sS'X.......O'
p4003
F0.5
sS'X..O.O..X'
p4004
F0.9999999963814973
sS'OXXXXOO..'
p4005
F0.5
sS'O.XO.O.XX'
p4006
F0.9999999999478518
sS'.X..O..X.'
p4007
F0.5
sS'.O..XXXO.'
p4008
F0.5
sS'XO.XX...O'
p4009
F0.5
sS'OOXOXXX..'
p4010
I1
sS'...XOOXX.'
p4011
F0.5
sS'.XXO..XO.'
p4012
F0.5
sS'...XOOXXO'
p4013
F0.965640261632
sS'O.....XXO'
p4014
F0.5
sS'.XXO..XOO'
p4015
F0.9999999911657647
sS'.O.OX.XOX'
p4016
F0.9987910741803854
sS'X........'
p4017
F0.5
sS'OOXXXX.O.'
p4018
I1
sS'OXXXXOO.O'
p4019
F1.0
sS'OXX.O....'
p4020
F0.4999989106029747
sS'O.XO..X..'
p4021
F1.0
sS'.O..XXXOO'
p4022
F1.0
sS'XOOXX.X.O'
p4023
I1
sS'.O.O...XX'
p4024
F0.982407813955584
sS'OO.OX.XXX'
p4025
I1
sS'XOOXXOOX.'
p4026
F0.9999999999999998
sS'OXXXOXOOX'
p4027
I1
sS'XXO..XXOO'
p4028
F0.5
sS'O..XXX..O'
p4029
I1
sS'.X.OOXXO.'
p4030
F0.5
sS'.XOXOOOXX'
p4031
F0.0
sS'.XOX..OOX'
p4032
F0.5
sS'XO.XOOX.X'
p4033
I1
sS'XXOXO..XO'
p4034
F0.5
sS'X.OO.X.OX'
p4035
F0.9999999999999998
sS'.X.OOXXOX'
p4036
F0.5
sS'OXXXOXOO.'
p4037
F0.5
sS'OO.OX.XX.'
p4038
F0.9463129088000001
sS'.X.OXOOXX'
p4039
I1
sS'X.O..X.XO'
p4040
F0.5
sS'X.OXOXXO.'
p4041
I1
sS'O...X..OX'
p4042
F0.5
sS'.X.XXO.OO'
p4043
F0.5
sS'..OXOXXO.'
p4044
F0.868928
sS'...O.X.X.'
p4045
F0.5
sS'OO.OXX.XX'
p4046
F0.5
sS'X.OX.XO.O'
p4047
F0.9999999999999998
sS'.XXOXXOO.'
p4048
F0.5
sS'OOO.XXXXO'
p4049
F0.0
sS'X.OX.XO..'
p4050
F0.5
sS'OXX..XOXO'
p4051
F0.5
sS'.XXOX.OXO'
p4052
I1
sS'.OXXOOOXX'
p4053
F0.5
sS'OO.OXX.X.'
p4054
F0.5
sS'..OXOXXOX'
p4055
F0.5
sS'.X.XXO.O.'
p4056
F0.5
sS'...O.X.XO'
p4057
F0.5
sS'X..XO.OOX'
p4058
F0.5
sS'OXXX.XOOO'
p4059
F0.0
sS'OOX.XX.OX'
p4060
I1
sS'.X.X.XOO.'
p4061
F0.5
sS'XOXO.X.OX'
p4062
I1
sS'.X.XOXOO.'
p4063
F0.5
sS'OO.OXXXX.'
p4064
F0.5
sS'XOX.OX.O.'
p4065
F0.0
sS'OO.XX...X'
p4066
F0.5
sS'OO.XX....'
p4067
F0.9999999999999998
sS'OO..XX.OX'
p4068
F0.9999999827456342
sS'OO.OXXXXO'
p4069
F0.9999999999999994
sS'XX.OOOOXX'
p4070
I0
sS'.X.XOXOOX'
p4071
F0.5
sS'XOX..OO.X'
p4072
F1.0
sS'OOX.XX.O.'
p4073
F0.5
sS'OXXX.XOO.'
p4074
F0.5
sS'XX.X.OOXO'
p4075
F0.5
sS'.X.X.XOOO'
p4076
F0.0
sS'.....XX.O'
p4077
F0.5
sS'X..XO..O.'
p4078
F0.9999998714449565
sS'O.XX..OX.'
p4079
F0.5
sS'O.X.XXOO.'
p4080
F0.5
sS'.OX.O.OXX'
p4081
F0.97800976744448
sS'OX.OXX.O.'
p4082
F0.5
sS'.X.O.XOOX'
p4083
F0.9999995904
sS'XX.OX.OOX'
p4084
I1
sS'X.OX.XXOO'
p4085
I1
sS'OOXXXXOOX'
p4086
I1
sS'OX.OXX.OX'
p4087
F0.5
sS'XX.OX.OO.'
p4088
F0.9976388167585652
sS'.OOXOX..X'
p4089
F0.5
sS'.XO.XXXOO'
p4090
F0.5
sS'X..XO..OX'
p4091
F0.5
sS'XOX...X.O'
p4092
F0.5
sS'O.X.XXOOX'
p4093
I1
sS'XOO.XXOX.'
p4094
F0.5
sS'.OXXX.XOO'
p4095
I1
sS'...XXXOO.'
p4096
I1
sS'.XX.XO..O'
p4097
F0.5
sS'..XXOXOXO'
p4098
F0.5
sS'XOX.OXX.O'
p4099
F0.5
sS'.XXOX..O.'
p4100
F0.5
sS'O.X..XO..'
p4101
F0.9999999999999998
sS'XOXOX.O..'
p4102
F0.9999999999999998
sS'.XXOX..OO'
p4103
F0.8951424
sS'X...OXOOX'
p4104
F0.9999999999999998
sS'XOXOX.O.X'
p4105
I1
sS'O.X..XO.X'
p4106
I1
sS'X.O..XO..'
p4107
F0.5
sS'X.X..OXO.'
p4108
F0.5
sS'X.OO..XXO'
p4109
F0.5
sS'.OOXX..OX'
p4110
F0.9999976615973802
sS'.XOXXOXOO'
p4111
F0.0
sS'.OXXOX...'
p4112
F0.5
sS'X.O.XXXOO'
p4113
F0.5
sS'XOO.OXXOX'
p4114
F0.0
sS'O.X..OOXX'
p4115
F0.5
sS'..XXOOOX.'
p4116
F0.5
sS'.XOXXOXO.'
p4117
F0.5
sS'X..OXOOX.'
p4118
F1.0
sS'.OXXOX..O'
p4119
F0.5
sS'X.X..OXOO'
p4120
F0.5
sS'X.OO..XX.'
p4121
F0.5
sS'.OXXO.XO.'
p4122
F0.0
sS'XOXX.OXO.'
p4123
I1
sS'.X.OXO..X'
p4124
F0.5
sS'OOX.X.OXX'
p4125
F0.5
sS'.O.X.X..O'
p4126
F1.0
sS'XXXOX..OO'
p4127
I1
sS'XO.O.X..X'
p4128
F0.5
sS'.XX.OOOX.'
p4129
F0.982407813955584
sS'XX.O.OXOX'
p4130
F0.5
sS'.OO.XXO.X'
p4131
F0.95705032704
sS'.O.X.X...'
p4132
F0.5
sS'XX.O.OXO.'
p4133
F1.0
sS'.XX.OOOXX'
p4134
F0.5
sS'XO.O.X...'
p4135
F0.5
sS'.X.OXO...'
p4136
F0.9999999999997538
sS'O.OXXXOX.'
p4137
I1
sS'OXXX.X.OO'
p4138
F0.5
sS'OOX.X.OX.'
p4139
F0.5
sS'XOXOOXXXO'
p4140
F0.5
sS'OXO.OX.XX'
p4141
F0.5
sS'.....X...'
p4142
F0.5
sS'OOXX...X.'
p4143
F0.5
sS'XOXO.....'
p4144
F0.5
sS'...OX..XO'
p4145
F0.9999999999998992
sS'X...OOXXO'
p4146
F0.9999888496274008
sS'.OOXOXX..'
p4147
F0.8951424
sS'X..XXOO.O'
p4148
F0.5
sS'OXXO.XX.O'
p4149
F0.5
sS'.X.XOOO.X'
p4150
F0.5
sS'X...OOXX.'
p4151
F0.5
sS'.OX.XX..O'
p4152
F0.5
sS'X..XXOO..'
p4153
F0.5
sS'XOXO....X'
p4154
F0.5
sS'.....X..O'
p4155
F0.5
sS'X..OXOOXX'
p4156
I1
sS'OOXX...XO'
p4157
F0.5
sS'.XX..XO.O'
p4158
F0.5
sS'OXXXO.OOX'
p4159
F0.9970485209482065
sS'OXO.OX.X.'
p4160
F0.5
sS'XX.OO..OX'
p4161
F0.9859262511644672
sS'.OXX.OO.X'
p4162
F0.5
sS'..XOX..O.'
p4163
F0.9909928007452591
sS'.X.XX.O.O'
p4164
F0.5
sS'X..X.OO.X'
p4165
F0.5
sS'X....OXOX'
p4166
F0.5
sS'XOXXOOX..'
p4167
I1
sS'.XXO.OX.O'
p4168
F0.9981110534068522
sS'OOXX.X..O'
p4169
F1.0
sS'OXXX..OOX'
p4170
F0.5
sS'.XXXOOOX.'
p4171
F0.5
sS'XOO..X...'
p4172
F0.5
sS'XOO..X..X'
p4173
F0.5
sS'.XXO.OX..'
p4174
F0.5
sS'OOXX.X...'
p4175
F0.5
sS'.XXXOOOXO'
p4176
F0.6799999999999999
sS'X....OXO.'
p4177
F0.9999999999999964
sS'OXXX..OO.'
p4178
F0.5
sS'X..X.OO..'
p4179
F0.5
sS'..XOX..OX'
p4180
F0.5
sS'O.XXXOX.O'
p4181
I1
sS'.X.XOO.XO'
p4182
F0.5
sS'OXO..O.XX'
p4183
F1.0
sS'XOO..XX.O'
p4184
F1.0
sS'.XXXO.O.O'
p4185
F0.9999335386002107
sS'OO..X.OXX'
p4186
F0.5
sS'XX...X.OO'
p4187
F0.5
sS'OX.OO.X.X'
p4188
F1.0
sS'X...X...O'
p4189
F0.5
sS'XXX..OOXO'
p4190
I1
sS'OO..OXXX.'
p4191
F0.7952
sS'.OX..X.OX'
p4192
I1
sS'XOOX..XXO'
p4193
I1
sS'X.XO.O.OX'
p4194
F0.9999999999999998
sS'OX.XOOXOX'
p4195
F0.5
sS'.OX..X.O.'
p4196
F0.9997971759039634
sS'OO..OXXXX'
p4197
I1
sS'XOOX.O..X'
p4198
F0.9998377407231708
sS'XOO..XX..'
p4199
F0.5
sS'.XXXO.O..'
p4200
F0.5
sS'XX...XOO.'
p4201
F0.5
sS'.X.OXOX..'
p4202
F0.5
sS'XX..OO..X'
p4203
F0.5
sS'.XXOOOXXO'
p4204
I0
sS'.XOXXXOO.'
p4205
I1
sS'XXOX...OO'
p4206
F0.9999860620342509
sS'OXOX.X.OX'
p4207
F0.5
sS'...X..OOX'
p4208
F0.5
sS'XX..OX.O.'
p4209
F0.5
sS'.XOXOXXOO'
p4210
F0.9463129088000001
sS'XXOX..OO.'
p4211
F0.5
sS'.XXOXOOOX'
p4212
F0.5
sS'X..O.....'
p4213
F0.5
sS'.XO.X.XO.'
p4214
F0.5
sS'X.OXX.XOO'
p4215
I1
sS'OOX.OXXXO'
p4216
F0.0
sS'XXOXOX..O'
p4217
F0.5
sS'.X.OO.X..'
p4218
F0.5
sS'OOXXO.X..'
p4219
F0.5
sS'.XOXOXXO.'
p4220
F0.5
sS'.X.OO.X.X'
p4221
F0.5
sS'.XOXOOXOX'
p4222
F1.0
sS'.XO.X.XOO'
p4223
F0.5
sS'OOX.X.O.X'
p4224
F0.9999999999999998
sS'X..O....X'
p4225
F0.5
sS'XXOX..OOX'
p4226
F0.5
sS'XX...XOOO'
p4227
F0.0
sS'OXOX.X.O.'
p4228
F0.9909928007452591
sS'.X.OXOX.O'
p4229
F0.965640261632
sS'.XX.XOOXO'
p4230
I1
sS'XX..OO...'
p4231
F1.0
sS'XXOX...O.'
p4232
F0.5
sS'XX..OX.OO'
p4233
F0.9984888427254818
sS'OXXOXOXOX'
p4234
I1
sS'OOX.OX.XX'
p4235
I1
sS'OXXXXOOOX'
p4236
F0.5
sS'.O....XXO'
p4237
F0.5
sS'.O..X.XO.'
p4238
F0.9999999999999998
sS'.X.OO..XX'
p4239
F0.5
sS'O..OOXX.X'
p4240
F0.9859262511644672
sS'O.X.XO..X'
p4241
F0.5
sS'XOXX.O...'
p4242
F0.5
sS'.O....XX.'
p4243
F0.5
sS'O.X.XO...'
p4244
F1.0
sS'OXXX..XOO'
p4245
F0.5
sS'.XOX..X.O'
p4246
F0.5
sS'.X.XOOXXO'
p4247
F0.5
sS'XOO.X.XXO'
p4248
F0.5
sS'.O..X.XOX'
p4249
F0.5
sS'XOXX.O..O'
p4250
F1.0
sS'.O.XO...X'
p4251
F0.5
sS'.XX.O.X.O'
p4252
F0.5
sS'XX.O...XO'
p4253
F0.5
sS'..OXOX.X.'
p4254
F0.5
sS'...X.O...'
p4255
F0.5
sS'OXXXXOOO.'
p4256
F0.5
sS'OO.XX.XXO'
p4257
F0.5
sS'OOX.OX.X.'
p4258
F1.0
sS'XO..XXXOO'
p4259
F0.5
sS'.XOX....O'
p4260
F0.5
sS'X..OOOXX.'
p4261
F0.0
sS'..XXOOXOX'
p4262
F0.5
sS'XO.OO..XX'
p4263
F0.9942353924769658
sS'OOX...XOX'
p4264
F0.9999468308801686
sS'X.XXXO.OO'
p4265
F0.5
sS'..X.O.XXO'
p4266
F0.5
sS'OXO.X..OX'
p4267
F0.5
sS'..XXOOXO.'
p4268
F0.9328911360000001
sS'OXXOXXXOO'
p4269
I1
sS'X.XO...XO'
p4270
F0.5
sS'.XOX.....'
p4271
F0.5
sS'..O.X.XXO'
p4272
F0.5
sS'OXXOX.XO.'
p4273
I1
sS'XXO..OXOX'
p4274
F0.5
sS'OX.O..X..'
p4275
F0.5
sS'XXXO.O.XO'
p4276
I1
sS'O.XOX..X.'
p4277
F0.5
sS'OXOXXX.O.'
p4278
I1
sS'XXOOXXO.O'
p4279
F0.9999999999999998
sS'OO.X..XX.'
p4280
F0.5
sS'OXXX.OXOO'
p4281
F0.9999976615973802
sS'.XX.OOXO.'
p4282
F0.7952
sS'.XX.OOXOX'
p4283
F0.5
sS'XXOOXXO..'
p4284
F0.5
sS'OO.X..XXO'
p4285
F0.5
sS'..XXOOX..'
p4286
F0.5
sS'OXXX.OXO.'
p4287
F0.5
sS'XXXXOOOXO'
p4288
I1
sS'OX.O..X.X'
p4289
F0.5
sS'XOOX.XXO.'
p4290
I1
sS'.OOO.XXX.'
p4291
F0.9328911360000001
sS'XXO..OXO.'
p4292
F0.9953883139815727
sS'O.XOX..XO'
p4293
F0.9887410009315738
sS'X.OO.XO.X'
p4294
F1.0
sS'.O.O..XX.'
p4295
F0.9990328593443083
sS'..O..OX.X'
p4296
F0.9953883139815727
sS'X.OXOX.XO'
p4297
F0.5
sS'..O..XXO.'
p4298
F0.5
sS'OXXO...X.'
p4299
F0.5
sS'.OO.XOXX.'
p4300
F0.744
sS'X.OO.XXOX'
p4301
F0.5
sS'O.X.OO.XX'
p4302
F0.9999999999999998
sS'XOXX.O.XO'
p4303
F0.5
sS'..X.OX.O.'
p4304
F0.9999335386002107
sS'XXOO..OXX'
p4305
F0.5
sS'.XOOX.O.X'
p4306
F1.0
sS'.OXO..X..'
p4307
F1.0
sS'.OXO..X.X'
p4308
F0.5
sS'XXOO..OX.'
p4309
F0.9999999943460894
sS'..X.OX.OX'
p4310
I1
sS'.OO.XOXXX'
p4311
I1
sS'..O..XXOX'
p4312
F0.5
sS'.OX.X.X.O'
p4313
I1
sS'OX.OXXOOX'
p4314
F0.0
sS'.O.O..XXX'
p4315
I1
sS'OXXO...XO'
p4316
F0.5
sS'..OX..XO.'
p4317
F0.9999999999999998
sS'...X.X.O.'
p4318
F0.5
sS'.OO.X.XX.'
p4319
F0.5
sS'X.O.OOXX.'
p4320
F0.95705032704
sS'X...O.XXO'
p4321
F0.5
sS'XO.XOXX.O'
p4322
I1
sS'X.O.OOXXX'
p4323
I1
sS'OXO..X...'
p4324
F0.5
sS'O..OXXOX.'
p4325
F0.0
sS'O.XX..OOX'
p4326
F0.982407813955584
sS'.XXX.OOOX'
p4327
F0.5
sS'..OX..XOX'
p4328
F0.5
sS'...X.X.OO'
p4329
F0.868928
sS'.OO.X.XXO'
p4330
F0.5
sS'.X.OXX.O.'
p4331
F0.5
sS'OO.XOX.X.'
p4332
F0.5
sS'X.XO.XOOX'
p4333
I1
sS'.OOX.XX.O'
p4334
F1.0
sS'XOOOOX.XX'
p4335
F0.9725122093056
sS'.X.XO.OOX'
p4336
F0.5
sS'..XO.XOX.'
p4337
F0.5
sS'.XX.XO.OO'
p4338
F0.9328911360000001
sS'.OX.XO.X.'
p4339
F0.5
sS'XXOOO.XOX'
p4340
F0.5
sS'X.XXOOOX.'
p4341
F0.5
sS'.XOX...XO'
p4342
F0.5
sS'.OOXX.XXO'
p4343
F0.5
sS'X.XXOOXO.'
p4344
I1
sS'X.OX.XOXO'
p4345
F0.5
sS'OX.O.XXXO'
p4346
F0.5
sS'XX.X.O..O'
p4347
F0.5
sS'OO.XOX.XX'
p4348
F0.5
sS'.OOX.XX..'
p4349
F0.5
sS'..XO.XOXO'
p4350
F0.5
sS'.XX.XO.O.'
p4351
F0.5
sS'X.XO.XOO.'
p4352
F0.9999999999999998
sS'OO.XX..X.'
p4353
F0.5
sS'.X.OOXO.X'
p4354
F0.6
sS'XX.O..OX.'
p4355
F0.5
sS'X.O.OXXO.'
p4356
F0.9999999999357225
sS'...OO.XX.'
p4357
F0.83616
sS'X..OXXO..'
p4358
F0.5
sS'X.XO.X.O.'
p4359
F0.5
sS'O.OXXOXXO'
p4360
F0.0
sS'O..XOO.XX'
p4361
F0.868928
sS'XO...O..X'
p4362
F0.9999981292779042
sS'XXX.OOO.X'
p4363
I1
sS'.OXXO.X.O'
p4364
F0.9999999999999998
sS'O.X.XOOXX'
p4365
F0.5
sS'OXOOX.XX.'
p4366
I1
sS'O.X.XOOX.'
p4367
F0.9942353924769658
sS'.OXXO.X..'
p4368
F0.5
sS'...XX.OO.'
p4369
F1.0
sS'OO.XX..XO'
p4370
F0.9999999911657647
sS'X..O.XX.O'
p4371
F0.5
sS'.OX.XO.XO'
p4372
F1.0
sS'X..OXXO.O'
p4373
F0.5
sS'.XXO.O.XO'
p4374
F0.5
sS'O.OXXOXX.'
p4375
F0.5
sS'OOO.XXX..'
p4376
F0.0
sS'...OOXOXX'
p4377
F0.5
sS'XOXX.OX.O'
p4378
I1
sS'..XO..OXX'
p4379
F0.5
sS'..OXXOX.O'
p4380
F0.0
sS'.X.O.X...'
p4381
F0.5
sS'OXX..O.X.'
p4382
F0.5
sS'O..XX..O.'
p4383
F1.0
sS'OO.XOXXOX'
p4384
F0.0
sS'O...XOX..'
p4385
F0.9999999999999998
sS'XXOO.XOX.'
p4386
F0.5
sS'O....XXOX'
p4387
F0.5
sS'....X..XO'
p4388
F0.5
sS'.OOOXXXXO'
p4389
F0.5
sS'OO.XXX.XO'
p4390
I1
sS'XXOO.XOXO'
p4391
F1.0
sS'.XOOX.XXO'
p4392
I1
sS'XOXO.O..X'
p4393
F0.9999999999999998
sS'O...XOX.X'
p4394
F0.5
sS'X..OO.XOX'
p4395
F0.5
sS'O....XXO.'
p4396
F0.5
sS'.OOOXXXX.'
p4397
F0.5
sS'XXOXOOO.X'
p4398
F0.0
sS'O..XX..OX'
p4399
F0.5
sS'..XO..OX.'
p4400
F0.5
sS'.X.O.X..O'
p4401
F0.5
sS'OXX..O.XO'
p4402
F0.9997464698799543
sS'O.OXOX..X'
p4403
F0.5
sS'.XXO.O.X.'
p4404
F0.5
sS'XOOXOXOX.'
p4405
F0.0
sS'O.XXXX.OO'
p4406
I1
sS'.O..OXXOX'
p4407
F0.0
sS'.XOXO.X.O'
p4408
F0.5
sS'O...O.X.X'
p4409
F0.9999981292779042
sS'...OX.XO.'
p4410
F1.0
sS'...OX.XOX'
p4411
F0.5
sS'..XX....O'
p4412
F0.5
sS'OXOXX....'
p4413
F0.5
sS'O.O.OXX.X'
p4414
F0.9997971759039634
sS'XX.XOO.O.'
p4415
F0.7952
sS'OOO.XXOXX'
p4416
F0.0
sS'OXXO..O.X'
p4417
F0.0
sS'.X..OX.XO'
p4418
F0.5
sS'...XX.OOX'
p4419
F0.5
sS'...O.XXO.'
p4420
F0.5
sS'XX.OO...X'
p4421
F0.5
sS'...XOOX.X'
p4422
F0.5
sS'OX.XO.OX.'
p4423
F0.5
sS'OXOOOXXXX'
p4424
I1
sS'OX.XO.OXX'
p4425
F0.5
sS'...XOOX..'
p4426
F1.0
sS'OXOOOXXX.'
p4427
F0.9999999999999998
sS'XX.OO....'
p4428
F0.9999999999999998
sS'OXOXX...O'
p4429
F0.9999999929326118
sS'.OOXX.O.X'
p4430
F1.0
sS'...O.XXOX'
p4431
F0.5
sS'..XXOXXOO'
p4432
F0.5
sS'XXXO....O'
p4433
I1
sS'XX.XOO.OX'
p4434
F0.5
sS'.XXO..X.O'
p4435
F0.5
sS'OO.X.OXXX'
p4436
I1
sS'.XXX..OO.'
p4437
F0.5
sS'XXX.OOOX.'
p4438
I1
sS'X..XOXOOX'
p4439
F0.5
sS'O...XOXXO'
p4440
F0.9927942405962072
sS'XO.O..XOX'
p4441
F0.9999999999999996
sS'.OXX.O...'
p4442
F0.5
sS'XXOO..XOX'
p4443
F0.5
sS'OXXX..O..'
p4444
F0.5
sS'..OOXX.OX'
p4445
F0.9999999999999998
sS'OXO.XXOOX'
p4446
F1.0
sS'OXOXOXO.X'
p4447
F0.0
sS'.X.O.OOXX'
p4448
F0.83616
sS'XXOO..XO.'
p4449
F0.5
sS'OXXX..O.O'
p4450
F0.5
sS'.OXX.O..X'
p4451
F0.5
sS'X..XOXOO.'
p4452
F0.5
sS'OO.X.OXX.'
p4453
F0.9999999999786401
sS'X.X.OOXOX'
p4454
F0.5
sS'.XO.O.XOX'
p4455
F0.5
sS'O...XOXX.'
p4456
F0.5
sS'.O..XO.XX'
p4457
F0.5
sS'X..XOX.O.'
p4458
F0.5
sS'XXXOO.OX.'
p4459
I1
sS'.OXX..OXO'
p4460
F0.5
sS'.X.O..X.O'
p4461
F0.5
sS'OXOX.X..O'
p4462
F0.83616
sS'OXXXO..OX'
p4463
F0.5
sS'XOO.XXO.X'
p4464
I1
sS'.X.O..X..'
p4465
F0.5
sS'OXXXO..O.'
p4466
F0.5
sS'OXOX.X...'
p4467
F0.5
sS'X..XOX.OO'
p4468
F0.9996038591874287
sS'...OO.XXX'
p4469
I1
sS'.OXX..OX.'
p4470
F0.5
sS'OO.OX.X.X'
p4471
F0.9963106511852582
sS'.O..XO.X.'
p4472
F0.5
sS'.......X.'
p4473
F0.5
sS'.XX.....O'
p4474
F0.5
sS'.OXXO....'
p4475
F0.5
sS'XO....XXO'
p4476
F0.5
sS'.X.OXXOO.'
p4477
F0.5
sS'X.XO.X.OO'
p4478
F0.9999999999999998
sS'X.O.OXXOX'
p4479
F0.5
sS'.X.OXXOOX'
p4480
F0.5
sS'.XXO.OXXO'
p4481
F0.5
sS'.OXXO...X'
p4482
F0.5
sS'OOOXX.OXX'
p4483
F0.0
sS'XX...OXO.'
p4484
F0.5
sS'O.XX.X.O.'
p4485
F0.5
sS'.XXOOXO..'
p4486
F0.6
sS'OOXXXXO..'
p4487
I1
sS'XX..O.OOX'
p4488
F0.91611392
sS'O.OOX.XX.'
p4489
F0.9987910741803854
sS'O..X.XX.O'
p4490
F0.5
sS'XO.X....O'
p4491
F0.9999999999999998
sS'XO.XO..X.'
p4492
F0.5
sS'X.OO.X.X.'
p4493
F0.5
sS'OOXXXO.X.'
p4494
F0.5
sS'.XOOOXXX.'
p4495
F0.5
sS'XO.X.....'
p4496
F0.5
sS'O.OOX.XXX'
p4497
I1
sS'XO.XO..XO'
p4498
F0.9463129088000001
sS'X.OO.X.XO'
p4499
F0.5
sS'.XXOOXO.X'
p4500
I1
sS'XX...OXOO'
p4501
F0.9999976615973802
sS'.O.X...OX'
p4502
F0.5
sS'O.XX.X.OO'
p4503
F1.0
sS'OO.XXXX.O'
p4504
I1
sS'XX.O....O'
p4505
F0.9999999999999998
sS'.XXOOO.X.'
p4506
F0.0
sS'XOOX.XX.O'
p4507
I1
sS'X.XOO.XXO'
p4508
F0.5
sS'.X..O.OXX'
p4509
F0.5
sS'.XO....X.'
p4510
F0.5
sS'.OO.XX.OX'
p4511
F0.9981110534068522
sS'XOO.XOXX.'
p4512
F0.5
sS'OOX...X..'
p4513
F1.0
sS'OOX...X.X'
p4514
F0.5
sS'XX..O..XO'
p4515
F0.5
sS'.XO....XO'
p4516
F0.9999988027378587
sS'.OX..XX.O'
p4517
F0.5
sS'XXO.X...O'
p4518
F0.5
sS'XOO.XOXXO'
p4519
F0.0
sS'XX.O.....'
p4520
F0.5
sS'..OXX.OOX'
p4521
F0.9999970769967254
sS'X.XOX..OO'
p4522
F0.9999999999999998
sS'X.OXXXOO.'
p4523
I1
sS'O.OOX..XX'
p4524
F0.5
sS'.....OXX.'
p4525
F0.5
sS'X.X..OX.O'
p4526
F0.5
sS'.OXXOX.O.'
p4527
F0.0
sS'X.OOXX.O.'
p4528
F0.9999999999999998
sS'X.XX..OO.'
p4529
F0.5
sS'OX.O.XX.O'
p4530
F0.5
sS'OXX....OX'
p4531
F0.5
sS'XOXXO.O..'
p4532
F0.5
sS'X.OXXO.O.'
p4533
F0.9999999999999998
sS'.X..XOO.X'
p4534
F0.5
sS'XOXXO.O.X'
p4535
F0.5
sS'X.XX..OOO'
p4536
F0.0
sS'.X..XOO..'
p4537
F0.9999999177247721
sS'X.OXXO.OX'
p4538
I1
sS'X.OOXX.OX'
p4539
I1
sS'OXX....O.'
p4540
F0.5
sS'X..XXOXOO'
p4541
I1
sS'.....OXXO'
p4542
F0.5
sS'OXO.XO..X'
p4543
F0.9999998971559652
sS'..XOX.O.X'
p4544
F0.5
sS'..O..XOXX'
p4545
F0.5
sS'...X.X..O'
p4546
F0.5
sS'..X.XO...'
p4547
F0.5
sS'XO..X.X.O'
p4548
F0.5
sS'OXO.XX.OX'
p4549
F0.5
sS'XOX......'
p4550
F0.5
sS'.XOXOX.XO'
p4551
F0.5
sS'O.XXOOXXO'
p4552
F0.0
sS'XOX.OXO..'
p4553
F0.9999999999999998
sS'XO.OXXO..'
p4554
F0.9999999999999991
sS'OX....OXX'
p4555
F0.5
sS'.OOXX.X.O'
p4556
F0.5
sS'..X.XO..O'
p4557
F1.0
sS'XO.OXXO.X'
p4558
I1
sS'XOX.OXO.X'
p4559
I1
sS'.X..X.OOX'
p4560
F0.5
sS'XOX.....O'
p4561
F0.5
sS'OX....OX.'
p4562
F0.9999999995143328
sS'O.XXOOXX.'
p4563
F0.5
sS'XXOOX.OX.'
p4564
I1
sS'OXO.XX.O.'
p4565
F1.0
sS'.OOXX.X..'
p4566
F0.5
sS'.XXXOOX.O'
p4567
F0.5
sS'..XOX.O..'
p4568
F0.5
sS'..O..XOX.'
p4569
F0.5
sS'O.X.XXOXO'
p4570
F0.5
sS'XOX.XOO..'
p4571
F0.9999999999999998
sS'.O..X...X'
p4572
F0.5
sS'.XOXO..X.'
p4573
F0.5
sS'O.OXOXXX.'
p4574
F0.5
sS'X.X...O..'
p4575
F0.5
sS'.O..O.X.X'
p4576
F0.9463129088000001
sS'.X..XOXO.'
p4577
F0.5
sS'....XX..O'
p4578
F0.5
sS'.X.XO.O.X'
p4579
F0.5
sS'.XO.X..XO'
p4580
I1
sS'X.X...O.O'
p4581
F1.0
sS'XO.O.X.OX'
p4582
F0.9999999999999998
sS'.X..XOXOO'
p4583
F0.9999999999999994
sS'OXOOXXXO.'
p4584
F0.5
sS'.XOOXXOX.'
p4585
I1
sS'XXO.OO.X.'
p4586
F0.5
sS'.O..X....'
p4587
F0.5
sS'.X.X....O'
p4588
F0.5
sS'.XOXO..XO'
p4589
F0.5
sS'XOX.XOO.X'
p4590
I1
sS'O.OXOXXXO'
p4591
F0.0
sS'X.O.OXX.O'
p4592
F1.0
sS'XX.OO.OXX'
p4593
F0.5
sS'.XOOOXXXO'
p4594
F0.5
sS'OO..X.XX.'
p4595
F0.5
sS'...OX....'
p4596
F0.5
sS'..OXXOX..'
p4597
F0.5
sS'X..OX..XO'
p4598
F0.5
sS'OXO.X.XXO'
p4599
I1
sS'O.OX.XO.X'
p4600
F1.0
sS'OO..OX.XX'
p4601
F0.9999992337522295
sS'OOXXXOX..'
p4602
I1
sS'X.O.OXX..'
p4603
F0.5
sS'OXO.OX..X'
p4604
F0.5
sS'XX.OO.OX.'
p4605
F0.9999992337522295
sS'OOX.X..OX'
p4606
F0.9999996861449132
sS'OO..X.XXO'
p4607
F0.999999999999803
sS'XO.OO.X.X'
p4608
F0.9999999999999997
sS'OXXOXXO.O'
p4609
F0.0
sS'....OOX.X'
p4610
F0.9963106511852582
sS'XO.O.XX.O'
p4611
F0.5
sS'..XO.OX..'
p4612
F1.0
sS'XXOXOXXOO'
p4613
I1
sS'O..OX.X.X'
p4614
F0.5
sS'XXOXO...O'
p4615
F0.7952
sS'OOXX.X.O.'
p4616
F1.0
sS'X.O......'
p4617
F0.5
sS'XXX.OOXO.'
p4618
I1
sS'OX.XO.X..'
p4619
F0.5
sS'X..XOO.XO'
p4620
F0.8951424
sS'XO..XO..X'
p4621
I1
sS'.XO..OXOX'
p4622
F0.5
sS'XXOXO....'
p4623
F0.5
sS'XO..XO...'
p4624
F1.0
sS'OX.XO.X.O'
p4625
F0.0
sS'OX.OX.XXO'
p4626
I1
sS'XOO.XXX.O'
p4627
F0.5
sS'X..XOO.X.'
p4628
F0.5
sS'OOXX.X.OX'
p4629
I1
sS'..XO.OX.X'
p4630
F0.5
sS'O..OX.X..'
p4631
F1.0
sS'XO.O.XX..'
p4632
F0.5
sS'XO.XX.XOO'
p4633
I1
sS'OX.OO.XX.'
p4634
F1.0
sS'..XX.XOO.'
p4635
F0.5
sS'O..XO.OXX'
p4636
F0.5
sS'.XOXOOX..'
p4637
F0.6
sS'OX..OXXO.'
p4638
F0.5
sS'XXOXO.OXO'
p4639
F0.0
sS'XXOOOX...'
p4640
F0.5
sS'O.XX.XOO.'
p4641
F1.0
sS'O.XX.XOOX'
p4642
I1
sS'XXOOOX..X'
p4643
F0.5
sS'OX..OXXOX'
p4644
F0.5
sS'.OX..OOXX'
p4645
F0.5
sS'.XOXOOX.X'
p4646
F0.5
sS'OX.OO.XXX'
p4647
I1
sS'O.XXOXOXO'
p4648
F0.0
sS'.XXO.OO.X'
p4649
F0.744
sS'.O..X.X..'
p4650
F0.5
sS'O..OX...X'
p4651
F0.5
sS'.XXOO.XXO'
p4652
F0.5
sS'X.XOOX.XO'
p4653
F0.5
sS'OX.OX....'
p4654
F1.0
sS'..XXXOO..'
p4655
F0.5
sS'X.O..X..O'
p4656
F0.5
sS'.XOOO.XXX'
p4657
I1
sS'OXXX..OXO'
p4658
F0.5
sS'..XXXOO.O'
p4659
F0.5
sS'.XO.XOO.X'
p4660
F1.0
sS'X..X..OXO'
p4661
F0.5
sS'X.O..X...'
p4662
F0.5
sS'.XOOO.XX.'
p4663
F0.9463129088000001
sS'XXX.XO.OO'
p4664
I1
sS'.O..X.X.O'
p4665
F0.9999999999999998
sS'XX.XOXOOO'
p4666
F0.0
sS'OX.OX...X'
p4667
F0.5
sS'X.OO....X'
p4668
F0.9999999999999998
sS'XXXO...O.'
p4669
I1
sS'X.OXOOXX.'
p4670
I1
sS'OXO....XX'
p4671
F0.5
sS'OXXX.O..O'
p4672
F0.5
sS'X..OX....'
p4673
F0.5
sS'..X.XOX.O'
p4674
I1
sS'XXX.OXO.O'
p4675
I1
sS'XX.XXO.OO'
p4676
F0.5
sS'XOXXXOXOO'
p4677
I1
sS'OXO.OXXOX'
p4678
F0.5
sS'..X.O.O.X'
p4679
F1.0
sS'XXXXOO..O'
p4680
I1
sS'XXXOOX.O.'
p4681
I1
sS'X..XOXOXO'
p4682
F0.5
sS'XX.OXO.XO'
p4683
I1
sS'O.......X'
p4684
F0.5
sS'OX.OX.X..'
p4685
F0.5
sS'..O.XO..X'
p4686
F1.0
sS'XOOO...XX'
p4687
F0.9999999999999998
sS'..XO..O.X'
p4688
F0.7952
sS'OOOX.XXXO'
p4689
F0.0
sS'OXXX.O...'
p4690
F0.5
sS'X..OX...O'
p4691
F0.5
sS'OXO....X.'
p4692
F0.9999999999999998
sS'.OX.XXO..'
p4693
F0.5
sS'XO..OXXXO'
p4694
F0.5
sS'.X.XO..XO'
p4695
F0.5
sS'X.O.XOXO.'
p4696
F0.9970485209482065
sS'X...OXXOO'
p4697
F1.0
sS'OXX.X.O..'
p4698
F0.5
sS'...O.OXXX'
p4699
I1
sS'.XOO.X..X'
p4700
F0.5
sS'OO...XXX.'
p4701
F0.5
sS'X..OX.X.O'
p4702
F0.5
sS'XXX..O.O.'
p4703
I1
sS'XXOX..OXO'
p4704
F0.5
sS'OOOXX.X..'
p4705
F0.0
sS'OO...XXXO'
p4706
F0.5
sS'.OOXO..XX'
p4707
F0.5
sS'.XOXO.XXO'
p4708
F0.5
sS'XX.OX.XOO'
p4709
F0.5
sS'X...OXXO.'
p4710
F0.5
sS'OXX.X.O.O'
p4711
F0.9999998714449565
sS'..XOO.XXO'
p4712
F0.5
sS'OO.X.XX..'
p4713
F0.5
sS'X.XO..OOX'
p4714
F0.5
sS'.XOO.OX.X'
p4715
F1.0
sS'...O.OXX.'
p4716
F0.9995048239842859
sS'.XOXX...O'
p4717
F0.5
sS'.OXO..XXO'
p4718
F0.9463129088000001
sS'O.X.OXOXX'
p4719
I1
sS'..XX.XOOO'
p4720
F0.0
sS'O.X.OXOX.'
p4721
F0.7952
sS'O.X.O.OXX'
p4722
F0.9999999999999998
sS'.OXO..XX.'
p4723
F0.5
sS'..XOXX..O'
p4724
F0.5
sS'..XOO.XX.'
p4725
F0.5
sS'OO.X.XX.O'
p4726
F1.0
sS'OXOXX.X.O'
p4727
F0.5
sS'.X.XOXXOO'
p4728
F0.5
sS'OX.OXXO..'
p4729
F0.0
sS'..OX..X.O'
p4730
F0.9999999999999998
sS'X.XO...O.'
p4731
F0.9999999999999998
sS'XOXOOXX..'
p4732
F0.5
sS'XOXOOOXX.'
p4733
F0.0
sS'XXOX.OO.X'
p4734
F0.5
sS'.OXX.X..O'
p4735
F0.5
sS'.X..OXOXO'
p4736
F0.5
sS'XO.XXXOO.'
p4737
I1
sS'..O.X.OXX'
p4738
F0.5
sS'OOX...XXO'
p4739
F0.982407813955584
sS'XOO.....X'
p4740
F0.9999999999999587
sS'..O.X.OX.'
p4741
F1.0
sS'..OXOXO.X'
p4742
F0.0
sS'XOXXX..OO'
p4743
F0.5
sS'OOX...XX.'
p4744
F0.5
sS'..OX..X..'
p4745
F0.5
sS'.OOXXX...'
p4746
I1
sS'....XOO.X'
p4747
F1.0
sS'XXOX.OO..'
p4748
F0.5
sS'XOXOOXX.O'
p4749
F0.5
sS'X.XO...OX'
p4750
F0.5
sS'.X.OXX..O'
p4751
F0.5
sS'OOX.XOXX.'
p4752
I1
sS'..OXX.O.X'
p4753
F0.5
sS'XOO.XO.XX'
p4754
I1
sS'OX...OXX.'
p4755
F0.5
sS'X.XOO..XO'
p4756
F0.9999963106511853
sS'X..XXOOXO'
p4757
F0.5
sS'OX.XX...O'
p4758
F0.5
sS'XO.XXO.XO'
p4759
F0.5
sS'XO.X..OX.'
p4760
F0.5
sS'XO.X...O.'
p4761
F0.9999999999999998
sS'XO.XOO.X.'
p4762
F0.91611392
sS'..O.O.XX.'
p4763
F1.0
sS'OXXXO.O..'
p4764
F0.5
sS'.XX.OO.OX'
p4765
F0.9999999999999998
sS'..O.O.XXX'
p4766
I1
sS'XO.X..OXO'
p4767
F0.5
sS'XO.XOO.XX'
p4768
F0.5
sS'XOO...XOX'
p4769
F0.9993810299803573
sS'OXXXO.O.X'
p4770
F0.5
sS'.X..OOXOX'
p4771
F0.5
sS'XO.X...OX'
p4772
F0.5
sS'.XOO.X...'
p4773
F0.5
sS'O.OXXOOXX'
p4774
F1.0
sS'OX...OXXO'
p4775
F1.0
sS'X.XOO..X.'
p4776
F0.5
sS'OXOXXX..O'
p4777
I1
sS'.XXO.XOO.'
p4778
F0.5
sS'XOO.XO.X.'
p4779
F0.9328911360000001
sS'..OXX.O..'
p4780
F0.9999999999999998
sS'X.OXXXO.O'
p4781
I1
sS'O.O....XX'
p4782
F0.9999954328073833
sS'XO.OXX.OX'
p4783
I1
sS'XO.....X.'
p4784
F0.5
sS'OX..O.XXO'
p4785
F0.0
sS'XX.O.XOO.'
p4786
F1.0
sS'..XO.XXOO'
p4787
F0.9999999999944248
sS'.XXOOXOXO'
p4788
F0.5
sS'.XXOO.OX.'
p4789
F0.6799999999999999
sS'O..XXO..X'
p4790
F0.5
sS'O.OO.X.XX'
p4791
F0.6799999999999999
sS'.OOOXX.XX'
p4792
F0.5
sS'XOXO.OXX.'
p4793
F0.5
sS'.XXOOXOX.'
p4794
F0.5
sS'..XO.XXO.'
p4795
F0.5
sS'.XXOO.OXX'
p4796
F0.5
sS'O..XXO...'
p4797
F0.5
sS'.OOOXX.X.'
p4798
F0.5
sS'XO.....XO'
p4799
F0.5
sS'XXOOO.X.X'
p4800
F0.5
sS'OX..O.XX.'
p4801
F0.4
sS'OOXXOO.XX'
p4802
F0.9995048239842859
sS'XO.OXX.O.'
p4803
F1.0
sS'XXO.XO.OX'
p4804
I1
sS'...XX.O..'
p4805
F0.5
sS'XXXXOO.O.'
p4806
I1
sS'XO.XOXOX.'
p4807
F0.5
sS'.X.OOXOX.'
p4808
F0.5
sS'.XXXOOXO.'
p4809
F0.5
sS'X.X.OO.OX'
p4810
F0.9999999999999998
sS'O.XO...X.'
p4811
F0.5
sS'XOOXXO..X'
p4812
I1
sS'.OXOOXXXO'
p4813
F0.5
sS'OX..XOXXO'
p4814
I1
sS'O.X.X.XO.'
p4815
I1
sS'XOOXXO...'
p4816
F0.9999999999999998
sS'.OXOOXXX.'
p4817
F0.5
sS'XOX.OOOXX'
p4818
F0.5
sS'...XX.O.O'
p4819
F1.0
sS'.X.OOXOXX'
p4820
F0.5
sS'XXO.XO.O.'
p4821
F0.9999999999999998
sS'XO.XOXOXO'
p4822
F0.5
sS'.XXXOOXOO'
p4823
F0.5
sS'X.XOO.X..'
p4824
F0.5
sS'.XXXOOO.X'
p4825
F0.5
sS'O....XX..'
p4826
F0.5
sS'XOX.XXO.O'
p4827
F0.5
sS'OOOOXXX.X'
p4828
F0.0
sS'.O..X..OX'
p4829
F0.9999999999999993
sS'OXO..XX..'
p4830
F0.5
sS'O...XXO..'
p4831
F0.9999999999981652
sS'..XXOXOO.'
p4832
F0.6799999999999999
sS'XO..X.XO.'
p4833
F0.5
sS'OOO..X.XX'
p4834
F0.0
sS'XO..OXOX.'
p4835
F0.5
sS'X..XO.X.O'
p4836
I1
sS'XO..O.OXX'
p4837
F0.5
sS'O.X.OOX.X'
p4838
F1.0
sS'XO..OXOXX'
p4839
F0.5
sS'..XXOXOOX'
p4840
I1
sS'X.XOO.X.O'
p4841
F0.9999999999999998
sS'O...XXO.X'
p4842
F0.5
sS'O....XX.O'
p4843
F0.5
sS'XXOOOO.XX'
p4844
I0
sS'.OOXXXX.O'
p4845
I1
sS'OXO..XX.O'
p4846
F0.5
sS'.XXXOOO..'
p4847
F0.9981110534068522
sS'O.XOX..OX'
p4848
F0.9999970769967254
sS'.OX.OX.X.'
p4849
F0.5
sS'XO..X.XOO'
p4850
F0.9999999999999998
sS'.X..XOOX.'
p4851
I1
sS'.XOOXO.XX'
p4852
I1
sS'XOX.O.X..'
p4853
F0.5
sS'.X..OOOXX'
p4854
F0.5
sS'XXOOXOXO.'
p4855
F0.9999727774106463
sS'X.OX.OO.X'
p4856
F0.9999999976841583
sS'O..XOX.OX'
p4857
F0.9999999999999998
sS'XOXOO.XXO'
p4858
F0.5
sS'...X.OOXX'
p4859
F0.5
sS'XOO..O.XX'
p4860
F0.999978221928517
sS'...X.OOX.'
p4861
F0.5
sS'.X.....XO'
p4862
F0.5
sS'..X...O.X'
p4863
F0.5
sS'O..X.X.O.'
p4864
F1.0
sS'XOX.O.X.O'
p4865
F0.9999999999999998
sS'.XOXXOOX.'
p4866
I1
sS'XXOOXOXOX'
p4867
I1
sS'OX.....OX'
p4868
F0.5
sS'OOO..XX.X'
p4869
F0.0
sS'OXXO..OX.'
p4870
F0.0
sS'X.OOXOXXO'
p4871
F0.0
sS'X.XOXX.OO'
p4872
F0.5
sS'X..OXX.O.'
p4873
F0.5
sS'.XXX..O.O'
p4874
F0.5
sS'OXO.XXO..'
p4875
F0.9999999911657647
sS'..OXX.XO.'
p4876
F0.5
sS'OX..XOX.O'
p4877
F0.9999999999999998
sS'.X...OXO.'
p4878
F0.5
sS'XO....O.X'
p4879
F0.9999999999999998
sS'X.X.OOOXX'
p4880
F0.5
sS'.OOOXXXOX'
p4881
F0.9999976615973802
sS'.X...X.OO'
p4882
F0.5
sS'X....XO.O'
p4883
F0.5
sS'XO.X.X..O'
p4884
F0.5
sS'X.O.XX.OO'
p4885
F0.9999999999995189
sS'OXOOXOXXX'
p4886
I1
sS'O.X.O.XOX'
p4887
F1.0
sS'OXXOXXOO.'
p4888
F0.0
sS'.X...X.O.'
p4889
F0.5
sS'X....XO..'
p4890
F0.5
sS'X.X.OOOX.'
p4891
F1.0
sS'X.O.XX.O.'
p4892
F0.5
sS'X.OOXOXX.'
p4893
F0.5
sS'X..OXX.OO'
p4894
F0.5
sS'.X...OXOX'
p4895
F0.5
sS'..OXX.XOO'
p4896
F0.9999999999999998
sS'XOXO.OXXO'
p4897
F0.9999999999999998
sS'X...X.OOX'
p4898
I1
sS'.XOXO.O.X'
p4899
F0.0
sS'O.X..XX.O'
p4900
F0.5
sS'.OOX...X.'
p4901
F0.5
sS'X..X.OXO.'
p4902
I1
sS'X.XX.O.OO'
p4903
F0.7952
sS'X..XXO..O'
p4904
F0.5
sS'.....XO..'
p4905
F0.5
sS'OOXOXXXOX'
p4906
I1
sS'OX.OO..XX'
p4907
F0.965640261632
sS'X..XX.O.O'
p4908
F0.5
sS'O.XXXOOOX'
p4909
F0.5
sS'.X.OOO.XX'
p4910
F0.0
sS'.X...XOXO'
p4911
F0.5
sS'.....XO.X'
p4912
F0.5
sS'OX..OX.XO'
p4913
F0.0
sS'.XXOOX.OX'
p4914
I1
sS'XOOX.XOX.'
p4915
F0.5
sS'XXOX..XOO'
p4916
I1
sS'X.XX.O.O.'
p4917
F0.5
sS'.OOX...XX'
p4918
F0.5
sS'OXO..OX.X'
p4919
F1.0
sS'.O.XO.XOX'
p4920
F0.0
sS'XO..XXOO.'
p4921
F1.0
sS'.OXXO..OX'
p4922
F0.0
sS'XXO.X.OO.'
p4923
F0.9999999999999998
sS'X.OO.XOXX'
p4924
F0.5
sS'.O.O.XX..'
p4925
F0.5
sS'OXX.XOX.O'
p4926
I1
sS'.O.X.O..X'
p4927
F0.5
sS'O..OXOXX.'
p4928
F0.5
sS'O..O..XX.'
p4929
F1.0
sS'OOXXX.XO.'
p4930
I1
sS'.OX.XOO.X'
p4931
F0.9999999999999998
sS'O..O..XXX'
p4932
I1
sS'O..OXOXXX'
p4933
I1
sS'.O.O.XX.X'
p4934
F0.5
sS'X.OO.XOX.'
p4935
F0.5
sS'O.O.X.OXX'
p4936
F0.9328911360000001
sS'XXO.X.OOX'
p4937
I1
sS'.O..XOXOX'
p4938
F0.9999999963814973
sS'XX...OX.O'
p4939
F0.5
sS'..O.OXXXO'
p4940
F0.5
sS'OOXX.OX..'
p4941
F0.9999574647041348
sS'.OO.XXX.O'
p4942
F0.9999999999999984
sS'.X..XXOO.'
p4943
F0.5
sS'O.XX.X..O'
p4944
F0.5
sS'X.O..OXXO'
p4945
F0.0
sS'OXX..OXXO'
p4946
F0.5
sS'..OXXX..O'
p4947
I1
sS'X.OO..OXX'
p4948
F1.0
sS'X.OO.X..X'
p4949
F0.5
sS'OX..X.X.O'
p4950
F0.5
sS'XXXO.OO.X'
p4951
I1
sS'.X..OXXO.'
p4952
F0.5
sS'O..XXXOOX'
p4953
I1
sS'.XO.OOX.X'
p4954
F0.7952
sS'OXXO.O..X'
p4955
F0.5
sS'O.X.....X'
p4956
F0.5
sS'XO.O.XXXO'
p4957
F0.5
sS'.XO...O.X'
p4958
F0.5
sS'.X..OXXOO'
p4959
F0.5
sS'X.OO.X...'
p4960
F0.5
sS'O..OXXXO.'
p4961
F0.9999981292779042
sS'..O.OXXX.'
p4962
F0.5
sS'.X..XXOOO'
p4963
F0.0
sS'.OO.XXX..'
p4964
F0.5
sS'X.O..OXX.'
p4965
F0.4
sS'OOXX.OX.X'
p4966
F0.5
sS'XXOO.OX.X'
p4967
F0.5
sS'OXX.OOXX.'
p4968
F0.5
sS'X...OXOX.'
p4969
F0.5
sS'XX.O.XXOO'
p4970
F0.5
sS'OX..XO..X'
p4971
F0.5
sS'XOXXOOOX.'
p4972
F0.5
sS'.XXOOXX.O'
p4973
F0.5
sS'XO..X...O'
p4974
F0.5
sS'XOXOOX.X.'
p4975
F0.5
sS'OOXXO..X.'
p4976
F0.5
sS'OOXX..O.X'
p4977
F1.0
sS'.O.OXOXX.'
p4978
F0.9328911360000001
sS'.XO.XXO.O'
p4979
F0.744
sS'XX.OX.OXO'
p4980
I1
sS'OOXXO..XX'
p4981
F0.5
sS'..OXXXOOX'
p4982
I1
sS'.XO.XXO..'
p4983
F0.5
sS'.O.OXOXXX'
p4984
I1
sS'..X.XOOOX'
p4985
F1.0
sS'OX.X..O.X'
p4986
F0.5
sS'X...OXOXO'
p4987
F0.5
sS'OXX.OOXXO'
p4988
F0.0
sS'O..XXX.O.'
p4989
I1
sS'OX..XO...'
p4990
F1.0
sS'XOXXOOOXX'
p4991
F0.5
sS'XO..X....'
p4992
F0.5
sS'X.OXOXX.O'
p4993
I1
sS'XOXOOX.XO'
p4994
F0.5
sS'OO.X.X.OX'
p4995
F0.9999997991327445
sS'XXO.XOOX.'
p4996
I1
sS'.OX.O.X..'
p4997
F0.5
sS'X.OOXO.XX'
p4998
I1
sS'.XXX..OOO'
p4999
F0.0
sS'.OXOO.X.X'
p5000
F0.5
sS'OXX..OXOX'
p5001
F0.5
sS'OXXX.OOXO'
p5002
F0.7952
sS'.X.XO.XO.'
p5003
F0.5
sS'O.XOOX.XX'
p5004
I1
sS'O.XOX.O.X'
p5005
F0.0
sS'X..OX.XO.'
p5006
F0.5
sS'X.OOXXOX.'
p5007
F0.5
sS'.OOOXXX.X'
p5008
F0.5
sS'.X.XO.XOO'
p5009
F0.97800976744448
sS'X..OX.XOO'
p5010
F1.0
sS'X.OOXXOXO'
p5011
F0.9999999999999998
sS'O.XOOX.X.'
p5012
F0.6
sS'X.XX..O.O'
p5013
F0.5
sS'OO.XXX...'
p5014
I1
sS'X.OOXO.X.'
p5015
F0.9997464698799543
sS'.OX.O.X.X'
p5016
F0.5
sS'OXX..OXO.'
p5017
F0.9999999999999998
sS'OOXOXXXXO'
p5018
I1
sS'OXX......'
p5019
F0.5
sS'XO..O.X.X'
p5020
F0.5
sS'OO..XXOXX'
p5021
F0.5
sS'....XXXOO'
p5022
F0.5
sS'..OOXO.XX'
p5023
F0.5
sS'.X..X.O..'
p5024
F0.5
sS'X..XO.O..'
p5025
F0.5
sS'....X...O'
p5026
F0.5
sS'OOXO..X.X'
p5027
F0.5
sS'XXOX.OOOX'
p5028
F0.9999999990514313
sS'....X....'
p5029
F0.5
sS'X.OX.X..O'
p5030
F0.5
sS'XOXOOXXO.'
p5031
F0.0
sS'..OX..XXO'
p5032
F0.5
sS'OXX.....O'
p5033
F0.5
sS'X..XO.O.X'
p5034
F0.5
sS'...OXX..O'
p5035
F0.5
sS'.OOXOXOXX'
p5036
F0.0
sS'OO..XXOX.'
p5037
F0.9999999999999998
sS'XO..O.X..'
p5038
F0.9999997991327445
sS'.X..X.O.O'
p5039
F0.9999999999999998
sS'OX.O.XXO.'
p5040
F0.5
sS'.X.O.XO.X'
p5041
F0.5
sS'.X.X...OO'
p5042
F0.5
sS'OOX..O.XX'
p5043
F0.9999992337522295
sS'XX.OX.O.O'
p5044
F0.9999999730400534
sS'....X.OXO'
p5045
F1.0
sS'...OOXXOX'
p5046
F0.744
sS'X.O.XXOOX'
p5047
I1
sS'X..OXOXOX'
p5048
I1
sS'.XXO.XO.O'
p5049
F0.5
sS'.OOXX.XO.'
p5050
F0.9999999999999998
sS'OXO.XXX.O'
p5051
F0.5
sS'....X.OX.'
p5052
F0.5
sS'X.O.XXOO.'
p5053
F0.9999999999988257
sS'.OOXX.XOX'
p5054
F0.5
sS'X..OXOXO.'
p5055
F0.9999999999971332
sS'OO.XX.O.X'
p5056
F1.0
sS'.XXO.XO..'
p5057
F0.5
sS'OXXOOOXX.'
p5058
I0
sS'X.XXO.XOO'
p5059
I1
sS'.OX.XO.OX'
p5060
F1.0
sS'X...XX.OO'
p5061
F0.5
sS'.X.X...O.'
p5062
F0.5
sS'.X.O.XO..'
p5063
F0.5
sS'OX.O.XXOX'
p5064
F0.5
sS'XXOO.XO..'
p5065
F0.5
sS'XX.OX.O..'
p5066
F0.5
sS'X.OOX.XXO'
p5067
F0.5
sS'OO.O.XXX.'
p5068
F0.9927942405962072
sS'XOX..OOX.'
p5069
F0.5
sS'XO.OXX..O'
p5070
F0.5
sS'.X.O.XXOO'
p5071
F0.5
sS'....OXOX.'
p5072
F0.5
sS'....OXOXX'
p5073
F0.5
sS'XO.OXX...'
p5074
F0.5
sS'.X.O.XXO.'
p5075
F0.5
sS'OO.O.XXXX'
p5076
I1
sS'.OXX...XO'
p5077
F0.5
sS'.XOXXOO..'
p5078
F0.97800976744448
sS'XOX..OOXX'
p5079
F0.5
sS'..XO.OXOX'
p5080
F0.9999574647041348
sS'.OOXX...X'
p5081
F0.5
sS'.OXXOOX.X'
p5082
F0.5
sS'OOO.XX.X.'
p5083
F0.0
sS'OO.X.OX.X'
p5084
F0.9999999784320427
sS'XO.X.O...'
p5085
F0.9999999999999998
sS'OX.XO.XO.'
p5086
F0.5
sS'..O..X..X'
p5087
F0.5
sS'OX.XOXXO.'
p5088
F0.5
sS'..X.XXO.O'
p5089
F0.5
sS'O..OXX...'
p5090
F0.5
sS'O..XXOXXO'
p5091
F0.5
sS'OXXOX..XO'
p5092
I1
sS'XXO.XO..O'
p5093
F0.0
sS'.OXOO.XX.'
p5094
F1.0
sS'X.XO.O.X.'
p5095
F0.5
sS'XOOXOO.XX'
p5096
F0.5
sS'.O.X.XOOX'
p5097
F1.0
sS'OX.XOXXOO'
p5098
F0.0
sS'X.O.OX.XO'
p5099
F0.5
sS'.OXOO.XXX'
p5100
I1
sS'.OX..O..X'
p5101
F0.5
sS'..O..X...'
p5102
F0.5
sS'XXO.XO...'
p5103
F0.4
sS'X.XO.O.XO'
p5104
F0.9999999995886238
sS'O..OXX..X'
p5105
F0.5
sS'OX.XO.XOX'
p5106
F0.5
sS'XO.X.O..X'
p5107
F0.5
sS'.OOXX....'
p5108
F0.9999999999999998
sS'O.OXXXX.O'
p5109
I1
sS'.OXXOOX..'
p5110
F0.744
sS'OX.XO.O.X'
p5111
F0.5
sS'XOXXOO..X'
p5112
F0.5
sS'.O.X.X.OX'
p5113
F0.5
sS'XX.O.OX..'
p5114
F0.5
sS'.XXXOO.XO'
p5115
F0.5
sS'OX.XOXOXO'
p5116
F0.0
sS'O...X..XO'
p5117
F0.9999999999999998
sS'.XOOO..XX'
p5118
F0.744
sS'..X...OXO'
p5119
F0.5
sS'XXOXO..O.'
p5120
F0.9998701925785366
sS'.X.OXOO.X'
p5121
F1.0
sS'X....XXOO'
p5122
F0.5
sS'OXOXO.XX.'
p5123
F0.5
sS'..X.X.OXO'
p5124
F0.5
sS'.OXOXXO.X'
p5125
I1
sS'..X...OX.'
p5126
F0.5
sS'OOXXXOO.X'
p5127
F0.5
sS'XXO......'
p5128
F0.5
sS'XXOXO..OX'
p5129
F0.5
sS'OXOXO.XXO'
p5130
F0.0
sS'.O.X.X.O.'
p5131
F1.0
sS'XOXXOO...'
p5132
F0.9999999999999998
sS'XX.O.OX.O'
p5133
F0.9999999999999998
sS'OX.XOXOX.'
p5134
F0.5
sS'..XXXOOO.'
p5135
F0.5
sS'X.XX...OO'
p5136
F0.5
sS'XOOOX..X.'
p5137
F0.9997464698799543
sS'OOX.X..X.'
p5138
F0.5
sS'OX.OX..OX'
p5139
F0.5
sS'X.XO.OX..'
p5140
F0.5
sS'X...XXOO.'
p5141
F0.5
sS'....XXOXO'
p5142
F0.5
sS'X...XXOOO'
p5143
F0.0
sS'XO.O.XO.X'
p5144
F1.0
sS'O.OXO..XX'
p5145
F0.6
sS'OO..XOX.X'
p5146
F0.9942353924769658
sS'OOX.X..XO'
p5147
F1.0
sS'XOOOX..XX'
p5148
I1
sS'..XXXOOOX'
p5149
F0.5
sS'X.XO.OX.O'
p5150
F0.9999999999999998
sS'X.OOXOX..'
p5151
F0.9999999999971332
sS'OOX..OXXX'
p5152
I1
sS'.X.XX.OO.'
p5153
F0.5
sS'.XXXOXOOO'
p5154
F0.0
sS'X.XO.O..X'
p5155
F0.5
sS'..X.O.XOX'
p5156
F0.5
sS'OX.O.X...'
p5157
F0.5
sS'XOXO..OXX'
p5158
F0.5
sS'.XXXOXOO.'
p5159
F0.5
sS'XOXO..OX.'
p5160
F0.5
sS'OX.O.X..X'
p5161
F0.5
sS'X.XO.O...'
p5162
F0.9999999999999998
sS'.XOOXOXOX'
p5163
F1.0
sS'.X...OOXX'
p5164
F0.5
sS'..X.O.XO.'
p5165
F0.5
sS'OOX..OXX.'
p5166
F0.965640261632
sS'OOOX..X.X'
p5167
F0.0
sS'OOXXXXOXO'
p5168
I1
sS'.OO..XOXX'
p5169
F0.5
sS'OXX.O..OX'
p5170
F0.9999999999999998
sS'.X.XX.OOO'
p5171
F0.0
sS'.XO.OX..X'
p5172
F0.5
sS'OXX.X.OOX'
p5173
F0.5
sS'XOO.XX.OX'
p5174
I1
sS'.O.XO.X.X'
p5175
F0.5
sS'O.X..XXOO'
p5176
F0.9970485209482065
sS'XXOX..O.O'
p5177
F0.5
sS'XX.OOX.XO'
p5178
F0.5
sS'X....XOO.'
p5179
F0.5
sS'X.OOXXXOO'
p5180
F0.5
sS'X..XXO.OO'
p5181
F0.9999999999999998
sS'XXOXO.OOX'
p5182
F0.0
sS'O.XOOXXX.'
p5183
F0.5
sS'O.X.X....'
p5184
F0.5
sS'X.XOOXXOO'
p5185
F1.0
sS'XO.X.X.O.'
p5186
F0.5
sS'OOXXO.XOX'
p5187
F0.0
sS'O.X..XXO.'
p5188
F0.5
sS'XXOX..O..'
p5189
F0.5
sS'X.OOXXXO.'
p5190
F0.5
sS'X..XXO.O.'
p5191
F0.5
sS'.OXOX.XXO'
p5192
I1
sS'O.XOOXXXO'
p5193
F0.0
sS'X.XOOXXO.'
p5194
F0.5
sS'O.X.X...O'
p5195
F0.9999999999999998
sS'XO.X.X.OO'
p5196
F1.0
sS'OX.OXOXX.'
p5197
I1
sS'X....XOOX'
p5198
F0.5
sS'.O.XO.X..'
p5199
F1.0
sS'O.XXO.O.X'
p5200
F0.8951424
sS'.XO.OX...'
p5201
F0.5
sS'XOO.XX.O.'
p5202
F1.0
sS'OXX.X.OO.'
p5203
F0.5
sS'.X.OOOXX.'
p5204
F0.0
sS'OXO...XOX'
p5205
F0.5
sS'XXOXOOXOX'
p5206
I1
sS'.XOXOXX.O'
p5207
F0.5
sS'OXOXX.XOO'
p5208
F0.9993810299803573
sS'..O.XOXX.'
p5209
F0.5
sS'O...X....'
p5210
F0.5
sS'.O..XOX.X'
p5211
F0.5
sS'..XXOO..X'
p5212
F0.5
sS'X.OXXOXO.'
p5213
I1
sS'.X..O..XO'
p5214
F0.5
sS'X.OO..XOX'
p5215
F0.9999999730400534
sS'.XO...OXX'
p5216
F0.5
sS'..XX.O.XO'
p5217
F0.5
sS'X..OOXX..'
p5218
F0.5
sS'XXOOO.X..'
p5219
F0.5
sS'.XO...OX.'
p5220
F0.9999999999999865
sS'..X..XOXO'
p5221
F0.5
sS'XXX..O..O'
p5222
I1
sS'X.OXO.OX.'
p5223
F0.0
sS'O..XOXO.X'
p5224
F1.0
sS'X..OOXX.O'
p5225
F0.5
sS'O...X...X'
p5226
F0.5
sS'..XXOO...'
p5227
F0.5
sS'.O..XOX..'
p5228
F0.9999995096014269
sS'OXOXX.XO.'
p5229
F0.5
sS'..O.XOXXO'
p5230
F0.0
sS'...X.OO.X'
p5231
F0.5
sS'.X...OO.X'
p5232
F0.5
sS'OXXO.OXX.'
p5233
F0.5
sS'O.XO.X...'
p5234
F0.9999999999999998
sS'O..OXXX.O'
p5235
F0.9999999999999998
sS'XOO....XX'
p5236
F0.5
sS'..O.XXOXO'
p5237
F0.965640261632
sS'.O.X.OXXO'
p5238
F0.83616
sS'OX.O.X.XO'
p5239
F0.6799999999999999
sS'O...X.X.O'
p5240
F0.9999999999999998
sS'X..OX.O..'
p5241
F0.9999999999999998
sS'O..OXXX..'
p5242
F0.5
sS'XXXO.X.OO'
p5243
I1
sS'X..OX.O.X'
p5244
I1
sS'..O.XXOX.'
p5245
F0.5
sS'.O.X.OXX.'
p5246
F0.5
sS'OX.O.X.X.'
p5247
F0.5
sS'O...X.X..'
p5248
F0.5
sS'.X.X.XO.O'
p5249
F0.5
sS'XOO....X.'
p5250
F0.5
sS'...OO..XX'
p5251
F1.0
sS'OXXXX.O.O'
p5252
F0.5
sS'O.XO.X..X'
p5253
I1
sS'OXXO.OXXO'
p5254
F0.5
sS'O.XX..OXO'
p5255
F0.5
sS'.XOX...O.'
p5256
F0.5
sS'O.OOXX.X.'
p5257
F0.91611392
sS'XXXOOXOXO'
p5258
I1
sS'OOXX...OX'
p5259
F1.0
sS'OXO.X...X'
p5260
F0.5
sS'..XXOOX.O'
p5261
F0.9995048239842859
sS'.XXOX...O'
p5262
F0.5
sS'OX..X.XO.'
p5263
F0.5
sS'OOXOX.OXX'
p5264
F0.0
sS'...XX..OO'
p5265
F1.0
sS'.OOX..OXX'
p5266
F0.5
sS'OX..X.XOO'
p5267
F0.9999999999999998
sS'O.OX.XXXO'
p5268
F0.5
sS'OXO.X....'
p5269
F1.0
sS'..O.XOX..'
p5270
F0.5
sS'O.OOXX.XX'
p5271
F0.5
sS'.X.XOO.X.'
p5272
F0.5
sS'XXXO..OXO'
p5273
I1
sS'..XOX..XO'
p5274
F0.5
sS'XO.OXXOXO'
p5275
F0.5
sS'OXXOX.OOX'
p5276
F0.0
sS'XOX..O.OX'
p5277
F0.9999999999999998
sS'.XOO.X.OX'
p5278
F0.5
sS'OXXOOX.X.'
p5279
F0.5
sS'..X...XOO'
p5280
F0.9997971759039634
sS'O.OXXOXOX'
p5281
F0.5
sS'...OX.OXX'
p5282
F0.5
sS'..X...XO.'
p5283
F0.5
sS'OOOOXXXX.'
p5284
F0.0
sS'XO.OXXOX.'
p5285
F0.5
sS'O..X.XO.X'
p5286
F0.5
sS'OX...XOX.'
p5287
F0.5
sS'.XOXOX...'
p5288
F0.5
sS'O.OOXXXOX'
p5289
F0.5
sS'XOX.XOOXO'
p5290
F0.5
sS'X..XOO..X'
p5291
F0.5
sS'...OOX.X.'
p5292
F0.5
sS'.XOOOXOXX'
p5293
F0.0
sS'X..XOO...'
p5294
F0.9999999999999998
sS'O..XXO.OX'
p5295
F0.5
sS'XOX.XOOX.'
p5296
F0.5
sS'...OOX.XX'
p5297
F0.5
sS'..XO.XX.O'
p5298
F0.5
sS'O.XOXOX.X'
p5299
I1
sS'OX...XOXO'
p5300
F0.868928
sS'OO..XXO.X'
p5301
F0.5
sS'.XOXOX..O'
p5302
F0.5
sS'O..X.XO..'
p5303
F1.0
sS'OX....O.X'
p5304
F0.5
sS'..OXOXXXO'
p5305
F0.5
sS'XO..XXO.O'
p5306
F0.9999999999999944
sS'O...XXOOX'
p5307
F0.9999999827456342
sS'.OX.XO..X'
p5308
F0.5
sS'O.XXOX.O.'
p5309
F1.0
sS'...OXO.XX'
p5310
F0.5
sS'O.XOXO..X'
p5311
F0.9999468308801686
sS'.X.O..O.X'
p5312
F0.5
sS'X.O.O.X..'
p5313
F0.9999999827456342
sS'.O.OXXO.X'
p5314
F0.9999999999829121
sS'O.XXOXOX.'
p5315
F0.5
sS'....O.OXX'
p5316
F0.5
sS'O.O.XXO.X'
p5317
F0.9328911360000001
sS'.XOO..XXO'
p5318
F0.9328911360000001
sS'O.X.XX..O'
p5319
F0.5
sS'X..XOOOXX'
p5320
F0.5
sS'.X..OOXX.'
p5321
F0.5
sS'X..XOOOX.'
p5322
F0.5
sS'.OX..X.XO'
p5323
F0.5
sS'X.OO.O.XX'
p5324
F0.9999999999999998
sS'.XOO..XX.'
p5325
F0.5
sS'OO.XO..XX'
p5326
F0.5
sS'.X..OOXXO'
p5327
F0.5
sS'...OXO.X.'
p5328
F0.9996038591874287
sS'O.XXOX.OX'
p5329
I1
sS'OX.O.XX..'
p5330
F0.5
sS'OOXXXO.XO'
p5331
F0.9999976615973802
sS'X.O.O.X.X'
p5332
F0.5
sS'...OXOXXO'
p5333
F0.7952
sS'.OX.XO...'
p5334
F1.0
sS'.XOX.OOX.'
p5335
F1.0
sS'.OX.OXXO.'
p5336
F0.0
sS'.XOXOXOXO'
p5337
F0.0
sS'OXO.X.X..'
p5338
F0.5
sS'X.XO.XO..'
p5339
F0.5
sS'XOO..X.OX'
p5340
F0.97800976744448
sS'.XXOXOOX.'
p5341
I1
sS'O.OX....X'
p5342
F0.5
sS'.....X.O.'
p5343
F0.5
sS'.OX..O.XX'
p5344
F0.5
sS'...XXO...'
p5345
F0.5
sS'..OXXXOXO'
p5346
I1
sS'.X..OXOX.'
p5347
F0.5
sS'O.XXXO...'
p5348
F0.5
sS'XOXO...OX'
p5349
F0.9999999999999998
sS'.OX..O.X.'
p5350
F0.5
sS'X..XX..OO'
p5351
F0.5
sS'XXOX.X.OO'
p5352
F0.5
sS'...XXO..O'
p5353
F0.5
sS'.....X.OX'
p5354
F0.5
sS'O.XXXO..O'
p5355
F0.9999999999999998
sS'OXO.X.X.O'
p5356
F0.9999999999999998
sS'.XOX.OOXX'
p5357
F0.5
sS'OOXXOXXO.'
p5358
I0
sS'X...X.XOO'
p5359
F0.5
sS'X.XO.XO.O'
p5360
F0.9999999999999998
sS'OXOXXXOOX'
p5361
I1
sS'..OOXOXX.'
p5362
F0.9987910741803854
sS'X.X..O.O.'
p5363
F0.9999999999999998
sS'X..OXX..O'
p5364
F0.5
sS'OOXXXOOXX'
p5365
F0.5
sS'OO...XX.X'
p5366
F0.5
sS'XOO.O.XXX'
p5367
I1
sS'..XOX....'
p5368
F0.5
sS'O.XXXOXO.'
p5369
I1
sS'XOO.O.XX.'
p5370
F0.965640261632
sS'XX.OXOOX.'
p5371
I1
sS'..XOX...O'
p5372
F0.9999999999998425
sS'OXXXOO.OX'
p5373
F0.5
sS'OOXXXOOX.'
p5374
F0.5
sS'X..X.OOOX'
p5375
F0.9999999999999977
sS'..OX.O..X'
p5376
F0.5
sS'..OOXOXXX'
p5377
I1
sS'...XOXX.O'
p5378
F0.5
sS'X.OXX.OO.'
p5379
F0.9999999999999998
sS'.X.XO...O'
p5380
F0.5
sS'OOXOX...X'
p5381
F0.9999996861449132
sS'OOXXX...O'
p5382
F0.9999999999666251
sS'OX.XO..XO'
p5383
F0.0
sS'.OXX....O'
p5384
F0.5
sS'..O.XX...'
p5385
F0.5
sS'.X.OO.XOX'
p5386
F0.5
sS'OX.XOOX..'
p5387
F0.5
sS'.XO.X.X.O'
p5388
F0.5
sS'.X.O.XOX.'
p5389
F0.5
sS'XOXOX.XO.'
p5390
I1
sS'X.X.OXOXO'
p5391
F0.5
sS'XXXO.O.OX'
p5392
I1
sS'XOOXX.OXO'
p5393
F1.0
sS'.OOOXXX..'
p5394
F0.5
sS'.OXX.....'
p5395
F0.5
sS'..O.XX..O'
p5396
F1.0
sS'.X.O.XOXO'
p5397
F0.6799999999999999
sS'OX.XOOX.X'
p5398
F0.5
sS'XOOXX.OX.'
p5399
F0.5
sS'X.O.XX..O'
p5400
F0.5
sS'.X.XO....'
p5401
F0.5
sS'.X.O.O..X'
p5402
F0.5
sS'OOXXX....'
p5403
F0.5
sS'OX.XO..X.'
p5404
F0.5
sS'X.X.XOOOX'
p5405
I1
sS'XXO..XOOX'
p5406
F0.5
sS'O.O.X.X.X'
p5407
F0.5
sS'O...XX.O.'
p5408
F0.9999999999999998
sS'XXXOOXXOO'
p5409
I1
sS'X.XOO.OX.'
p5410
F1.0
sS'OXXO...OX'
p5411
F0.9999574647041348
sS'.XOOOX..X'
p5412
F0.5
sS'X.OXO.XOX'
p5413
I1
sS'XXOO....X'
p5414
F0.5
sS'XOO..XOXX'
p5415
F0.5
sS'.X.OXOXO.'
p5416
F0.9887410009315738
sS'.O...XO.X'
p5417
F0.9999999997513384
sS'.O...XX..'
p5418
F0.5
sS'O..OX..X.'
p5419
F0.9999659717633078
sS'O.XOXO.X.'
p5420
F0.9953883139815727
sS'XXXOO....'
p5421
I1
sS'O..OX..XX'
p5422
F0.5
sS'O.XOXO.XX'
p5423
F0.5
sS'.O...XX.O'
p5424
F0.5
sS'.X.OXOXOX'
p5425
F0.5
sS'XOO..XOX.'
p5426
F0.5
sS'X.OX..OX.'
p5427
F0.5
sS'X.XOO.OXX'
p5428
F0.5
sS'XXOO.....'
p5429
F0.5
sS'OXOO.XXOX'
p5430
F0.5
sS'OXOOOX.XX'
p5431
F0.5
sS'XXO..XOO.'
p5432
F0.5
sS'O.O.X.X..'
p5433
F0.5
sS'X.X.XOOO.'
p5434
F0.9999992337522295
sS'.XOOX..X.'
p5435
I1
sS'O...XX.OX'
p5436
F0.5
sS'.X....O..'
p5437
F0.5
sS'O..X..XO.'
p5438
F0.5
sS'.OXXOO..X'
p5439
F0.5
sS'.X..XXO.O'
p5440
F0.5
sS'OXOXO.X.X'
p5441
F0.5
sS'XOXX.O.O.'
p5442
F0.9999999999667692
sS'OXXOOX.XO'
p5443
F0.0
sS'.OOXX..X.'
p5444
F0.5
sS'OXX.XOXO.'
p5445
I1
sS'.XO...XO.'
p5446
F0.5
sS'..OOXX..X'
p5447
F0.5
sS'OXO.....X'
p5448
F0.5
sS'.XO...XOX'
p5449
F0.5
sS'OXX.XX.OO'
p5450
F0.5
sS'..OOXX...'
p5451
F0.5
sS'.OOXX..XO'
p5452
F0.9987910741803854
sS'XOXX.O.OX'
p5453
F0.5
sS'OXOXO.X..'
p5454
F0.5
sS'..OXOX.OX'
p5455
F0.5
sS'.O.XXXO..'
p5456
I1
sS'.X..OXX.O'
p5457
F0.5
sS'O..X..XOX'
p5458
F0.5
sS'X..XOXO..'
p5459
F0.5
sS'O..XX.OXO'
p5460
F0.9996830873499429
sS'XO.O..X..'
p5461
F0.5
sS'X...OX.O.'
p5462
F0.5
sS'.OOXXO..X'
p5463
F0.9999995096014269
sS'XXOO..X.O'
p5464
F0.5
sS'OXO...X.X'
p5465
F0.5
sS'OO.XXXO.X'
p5466
I1
sS'OXX..XO..'
p5467
F0.5
sS'XOO.XX..O'
p5468
F0.9999999999999998
sS'OXX..XO.O'
p5469
F0.5
sS'XOX.XOXO.'
p5470
I1
sS'XOO.XX...'
p5471
F0.5
sS'X..XOXO.O'
p5472
F0.5
sS'XOO.O.X.X'
p5473
F0.9990328593443083
sS'X...OX.OX'
p5474
F0.5
sS'O..XX.OX.'
p5475
F0.5
sS'OXO...X..'
p5476
F0.5
sS'XXOO..X..'
p5477
F0.5
sS'XO.O..X.X'
p5478
F0.5
s.