(dp0
S'.OXXOX.XO'
p1
F0.5
sS'XOOOOXXXX'
p2
I1
sS'OXXXO....'
p3
F0.5
sS'XX.OO..XO'
p4
F0.9887410009315738
sS'.X.OXXO.O'
p5
F0.9999999999999998
sS'.XO.X.OX.'
p6
I1
sS'.XO.XXOO.'
p7
F0.9984888427254818
sS'XXOX.O...'
p8
F0.5
sS'X..OX.OXO'
p9
F0.9999999999999998
sS'.XO.XXOOX'
p10
F0.5
sS'X.XOOXX.O'
p11
F0.5
sS'XX.OO..X.'
p12
F0.5
sS'.X.OXXO..'
p13
F0.5
sS'XXOX.O..O'
p14
F0.0
sS'.XXO.XXOO'
p15
F0.5
sS'X..OX.OX.'
p16
F0.5
sS'.X.XO.X.O'
p17
F0.5
sS'XXO.X.OXO'
p18
I1
sS'OOXOX.X.X'
p19
I1
sS'XOOOOXXX.'
p20
F0.9999999999977699
sS'OXXXO...O'
p21
F0.0
sS'XO..X..XO'
p22
F0.5
sS'XXOOOXX..'
p23
F0.5
sS'OO.XXOOXX'
p24
F0.5
sS'X..OXO..X'
p25
I1
sS'..X.OX...'
p26
F0.5
sS'.XX...O.O'
p27
F1.0
sS'O.XXOOXOX'
p28
F0.5
sS'..XOX.X.O'
p29
I1
sS'.XX...O..'
p30
F0.5
sS'..X.OX..O'
p31
F0.5
sS'X..OXO...'
p32
F0.9999999999999998
sS'.OXO..XOX'
p33
F0.6
sS'XX..O.O.X'
p34
F0.5
sS'XX.OOX...'
p35
F0.5
sS'XXO.OOX.X'
p36
F0.32
sS'OOXX....X'
p37
F0.5
sS'OXXXOOOX.'
p38
F0.5
sS'.X..O.OX.'
p39
F0.5
sS'.OX..XXOO'
p40
F0.9997464698799543
sS'O...X.XO.'
p41
F0.9999999999999998
sS'....X..O.'
p42
F0.5
sS'XOXOXOXXO'
p43
I1
sS'X.O..XOXO'
p44
F0.5
sS'XO......X'
p45
F0.5
sS'XOOO..XXX'
p46
I1
sS'.OX..XXO.'
p47
F0.5
sS'XO.......'
p48
F0.5
sS'X.X..OOOX'
p49
F0.9999999999999998
sS'X.O..XOX.'
p50
F0.5
sS'....X..OX'
p51
F0.5
sS'.XOO.XXXO'
p52
F0.5
sS'O...X.XOX'
p53
F0.5
sS'XX.OOX..O'
p54
F0.9999999999999998
sS'OXXXOOOXX'
p55
F0.5
sS'XX..O.O..'
p56
F0.9999999999999998
sS'OOXX.....'
p57
F0.5
sS'XXO.OOX..'
p58
F1.0
sS'O.OX..OXX'
p59
F0.5
sS'OXOO.X..X'
p60
F0.5
sS'XX.O...O.'
p61
F0.9999999999999998
sS'.OOX.XXO.'
p62
F0.868928
sS'.XO.X..O.'
p63
F0.5
sS'...OOX..X'
p64
F1.0
sS'XOXXO..O.'
p65
F0.0
sS'.X....OXO'
p66
F0.7952
sS'OXO.XXXO.'
p67
F0.5
sS'XOXXO.OOX'
p68
F0.0
sS'.X....OX.'
p69
F0.5
sS'.XO.X..OX'
p70
F0.5
sS'OXO.XXXOO'
p71
F1.0
sS'.OOX.XXOX'
p72
F0.5
sS'XXOOX.X.O'
p73
F0.5
sS'XX.O...OX'
p74
F0.5
sS'.O.XX.XO.'
p75
F0.5
sS'O...XOXOX'
p76
F0.9999999971051978
sS'XOX....OX'
p77
F0.5
sS'OXOOXXO.X'
p78
F0.0
sS'XOX....O.'
p79
F0.5
sS'.X.O.XX.O'
p80
F0.5
sS'X.O..XXO.'
p81
F0.5
sS'.O.XX.XOO'
p82
F0.5
sS'O.OXXXXO.'
p83
I1
sS'XX......O'
p84
F0.5
sS'O..OXX.OX'
p85
F0.9999999999999998
sS'...XXOOOX'
p86
F1.0
sS'..OXXOXO.'
p87
F0.9999999999999998
sS'OXO.XX..O'
p88
F0.9999999999999998
sS'XXO.OOOXX'
p89
F0.0
sS'O.XXOX..O'
p90
F0.0
sS'OO.XOXX..'
p91
F0.5
sS'.OXXOOXX.'
p92
F0.5
sS'.O.X..OXX'
p93
F0.5
sS'XO...OXX.'
p94
F0.5
sS'.X..OXO.X'
p95
F0.5
sS'OXO.OXX.X'
p96
F0.5
sS'.X..XO...'
p97
F0.5
sS'....X.OOX'
p98
F0.9999999999999998
sS'X.X...OOX'
p99
F0.5
sS'.OX.OX...'
p100
F0.9999998971559652
sS'.OO..X..X'
p101
F0.5
sS'...OX.X.O'
p102
F1.0
sS'.OX.OX..X'
p103
I1
sS'XO...OXXO'
p104
F0.9993810299803573
sS'X.X...OO.'
p105
F1.0
sS'.X..XO..O'
p106
F0.9999999999999998
sS'...O..XOX'
p107
F0.5
sS'OXO.OXX..'
p108
F0.5
sS'.X..OXO..'
p109
F0.5
sS'OO.XOXX.X'
p110
F0.5
sS'XO.X.XOXO'
p111
F0.5
sS'.O.X..OX.'
p112
F0.5
sS'.XX...OXO'
p113
F0.5
sS'O.XXOX...'
p114
F0.5
sS'..OXXOXOX'
p115
F0.5
sS'.OXXOOXXO'
p116
F0.83616
sS'....XOXOX'
p117
F0.5
sS'XOXXOO.X.'
p118
F0.5
sS'.OX.OXX.O'
p119
F0.5
sS'.OOX.X..X'
p120
F0.5
sS'X.XO.OXOX'
p121
F0.5
sS'.O.OX...X'
p122
F1.0
sS'..XX...O.'
p123
F0.5
sS'..XX.OO..'
p124
F0.5
sS'O.X.XX.O.'
p125
F0.5
sS'..XX...OO'
p126
F0.5
sS'..XX.OO.X'
p127
F0.5
sS'O.X.XX.OO'
p128
F0.9999999999999998
sS'OX..O...X'
p129
F0.5
sS'X...XXO.O'
p130
F0.5
sS'.XOO.XO.X'
p131
F0.5
sS'XOXXOO.XO'
p132
F1.0
sS'X.X.X..OO'
p133
F0.5
sS'.OX.OXX..'
p134
F0.5
sS'XXO.OO..X'
p135
F0.5
sS'XO.XO.OXX'
p136
F0.5
sS'....XOXO.'
p137
F0.9999996861449132
sS'X.XO.OXO.'
p138
F0.9999999999999587
sS'.OOX.X...'
p139
F1.0
sS'.XOOXOX..'
p140
F0.9990328593443083
sS'.OXO...X.'
p141
F0.5
sS'...XOXXOO'
p142
F1.0
sS'XOO.OXXX.'
p143
F0.5
sS'.OX.XXOXO'
p144
F0.5
sS'O..O.XXOX'
p145
F0.9981110534068522
sS'.XO..OX.X'
p146
F0.5
sS'XOO.OXXXO'
p147
F0.9999999999999194
sS'.XO..OX..'
p148
F0.4999662882729784
sS'.X.OX..XO'
p149
I1
sS'.O.XOO.XX'
p150
F0.9463129088000001
sS'..OOXXXXO'
p151
F0.5
sS'.XOOXOX.X'
p152
F0.5
sS'.OXO...XX'
p153
F0.5
sS'...XOXXO.'
p154
F0.5
sS'..X.O.X..'
p155
F0.5
sS'O.OXOXX..'
p156
F0.5
sS'.X.XO..OX'
p157
F0.5
sS'OX..OXX.O'
p158
F0.0
sS'O.XX.XO.O'
p159
F0.9328911360000001
sS'XXXO.XO.O'
p160
I1
sS'OX..OXX..'
p161
F0.5
sS'O.XX.XO..'
p162
F0.5
sS'.X.X.X.OO'
p163
F0.5
sS'..X.O.X.O'
p164
F0.5
sS'XOXOOO.XX'
p165
F0.0
sS'OOX..OX.X'
p166
F0.9999999999930008
sS'.X.XO..O.'
p167
F0.5
sS'O.OXOXX.X'
p168
F0.5
sS'..XOXO.OX'
p169
F1.0
sS'.XO.OOXXX'
p170
I1
sS'.OX...XOX'
p171
F0.5
sS'XXO.X.XOO'
p172
F0.5
sS'X..OOXXO.'
p173
F0.5
sS'...XOOOXX'
p174
F0.5
sS'XXOXO.O..'
p175
F0.0
sS'OOXX..X.O'
p176
F0.9999999999999998
sS'OOXX.OXXO'
p177
F0.868928
sS'.O.XO..X.'
p178
F0.5
sS'X.X.XOO.O'
p179
F0.9999999999999865
sS'OOXX.OXX.'
p180
F0.5
sS'X.OXO.X..'
p181
I1
sS'X.X.XOO..'
p182
F0.5
sS'.O.XO..XX'
p183
F0.5
sS'.X.OOOX.X'
p184
F0.0
sS'X..OOXXOX'
p185
F0.5
sS'.XO.OOXX.'
p186
F0.744
sS'.OX...XO.'
p187
F0.9999995096014269
sS'OX.OX..X.'
p188
I1
sS'X.X.OX.O.'
p189
F0.5
sS'XO.X..X.O'
p190
I1
sS'..O.OXXOX'
p191
F0.5
sS'XXO.XOXOO'
p192
F0.0
sS'OX..XOOXX'
p193
I1
sS'X.O..X.OX'
p194
F0.5
sS'.OXXOO.X.'
p195
F0.5
sS'..X.OO.X.'
p196
F0.5
sS'..XXO.O..'
p197
F0.5
sS'XOXOXO.X.'
p198
F0.5
sS'X.O..OX..'
p199
F0.9999910797019206
sS'..OXOO.XX'
p200
F1.0
sS'OXOXOX.XO'
p201
F0.0
sS'XX.XOOO..'
p202
F0.7952
sS'X.O..OX.X'
p203
F0.5
sS'X..O..OX.'
p204
F0.5
sS'.XOOO.X.X'
p205
F0.9999999999902344
sS'..XXO.O.X'
p206
F0.5
sS'XOXOXO.XO'
p207
F1.0
sS'X.O.X.O..'
p208
F0.9999999999999998
sS'OXOXOX.X.'
p209
F0.5
sS'X.X.OX.OO'
p210
F0.9999999999999998
sS'.OXXOO.XX'
p211
F0.5
sS'..X.OO.XX'
p212
F0.5
sS'X.O..X.O.'
p213
F0.5
sS'..O.X.X.O'
p214
F0.5
sS'XXO.XOXO.'
p215
F0.5
sS'X.XOOOX..'
p216
F0.0
sS'XXO....XO'
p217
F0.5
sS'.OOXXO.X.'
p218
F0.5
sS'.XOXOOXX.'
p219
F0.5
sS'..X.XOXO.'
p220
I1
sS'X..X.XOO.'
p221
F0.5
sS'.OOO.XX.X'
p222
F0.6799999999999999
sS'X.O..O..X'
p223
F0.982407813955584
sS'OXX.X.OXO'
p224
I1
sS'X.XO.OOX.'
p225
F0.9999999827456342
sS'OOXXOOXXX'
p226
I1
sS'XOOOXX.X.'
p227
F0.5
sS'X.XOO.O.X'
p228
F0.9999999730400534
sS'O...OXX..'
p229
F0.5
sS'XXO.XOO.X'
p230
I1
sS'OXOOX.XOX'
p231
F0.5
sS'XXO.XOO..'
p232
F0.9999999999999971
sS'O...OXX.X'
p233
F0.5
sS'XOOOXX.XO'
p234
F0.5
sS'X.XO.OOXX'
p235
F0.5
sS'O..XXXXOO'
p236
I1
sS'OOXXOOXX.'
p237
F0.868928
sS'.XOXOOXXO'
p238
F0.0
sS'.OOXXO.XX'
p239
F0.5
sS'OO.XXXXO.'
p240
I1
sS'.X.XOOXO.'
p241
F0.7952
sS'X..OXXOXO'
p242
F0.5
sS'XOX.XO.O.'
p243
F0.9999999999999865
sS'.X..X.OO.'
p244
F0.5
sS'OXXOXOXXO'
p245
I1
sS'...OXX.XO'
p246
F0.5
sS'OOX.XX.XO'
p247
F0.5
sS'.XXOX.OO.'
p248
F0.8951424
sS'XO..OOX.X'
p249
F0.5
sS'OXO.O..XX'
p250
F0.9999999999999789
sS'O...X.O.X'
p251
F0.5
sS'XOXX..XOO'
p252
I1
sS'OX....OXX'
p253
F0.5
sS'XXO.XXO.O'
p254
F0.5
sS'.X.XOOXOX'
p255
F0.5
sS'X.XO..O..'
p256
F1.0
sS'..OOXX.X.'
p257
F0.5
sS'O.XOO.XXX'
p258
I1
sS'.XOXX..OO'
p259
F0.95705032704
sS'.XXOO....'
p260
F0.9999999999996152
sS'.XOXX.OO.'
p261
F0.9927942405962072
sS'.XXOO.O.X'
p262
F0.6
sS'XO.XXXO.O'
p263
I1
sS'XOXO.O.X.'
p264
F0.5
sS'.OOX..X..'
p265
F1.0
sS'.XOO.XX.O'
p266
F0.5
sS'.OOX..X.X'
p267
F0.5
sS'.XOXX.OOX'
p268
F0.5
sS'.XXOO...X'
p269
F0.5
sS'XOXO.O.XX'
p270
F0.5
sS'.XOO.XX..'
p271
F0.5
sS'O.XOO.XX.'
p272
F0.9999995096014269
sS'X.XO..O.X'
p273
F0.5
sS'.XOXX..O.'
p274
F0.5
sS'XOO.XXXOO'
p275
F0.5
sS'.XXOX.O.O'
p276
F0.5
sS'.OXX.X.O.'
p277
F0.5
sS'X.OOX.XO.'
p278
F0.9999999999971332
sS'..OOX..X.'
p279
F0.9999999999863297
sS'XXO.OOXOX'
p280
F0.9999999999936
sS'.X..OOX.X'
p281
F0.5
sS'X.OOXOX.X'
p282
I1
sS'O.XX.OXOX'
p283
F0.5
sS'.OOXXXO.X'
p284
I1
sS'XOOO..XX.'
p285
F0.9996830873499429
sS'O..X.O.XX'
p286
F0.5
sS'OX.XX.OOX'
p287
F0.5
sS'.XX.OO..X'
p288
F0.5
sS'.XX.OO...'
p289
F0.9999995096014269
sS'OX.XX.OO.'
p290
F0.9997971759039634
sS'.XX...XOO'
p291
F0.5
sS'XXO..O.OX'
p292
F1.0
sS'O..X.O.X.'
p293
F0.5
sS'OX..XOO.X'
p294
F1.0
sS'..OOX..XX'
p295
F0.5
sS'O.XX.OXO.'
p296
F0.999999999991251
sS'.X..OOX..'
p297
F0.5
sS'XOO.XXXO.'
p298
F0.5
sS'X.OOX.XOX'
p299
I1
sS'.XXOX.O..'
p300
F0.5
sS'..XOX.OOX'
p301
F0.9999468308801686
sS'.OXX.X.OO'
p302
F1.0
sS'OX.XX..OO'
p303
F0.9725122093056
sS'XXX.O.O..'
p304
I1
sS'.XOX.OX.O'
p305
F0.0
sS'.OOX.OXX.'
p306
F0.7952
sS'.XXOO.X..'
p307
F0.5
sS'XO..OX...'
p308
F0.5
sS'..XXXOXOO'
p309
I1
sS'.OXXO.XXO'
p310
F0.5
sS'O.XXXO.XO'
p311
F0.5
sS'..OO..XXX'
p312
I1
sS'X.....XO.'
p313
F0.5
sS'...X..X.O'
p314
F0.5
sS'OO.XXO..X'
p315
F0.5
sS'XO..OX..X'
p316
F0.5
sS'OX.XX..O.'
p317
F0.5
sS'XXXOOX..O'
p318
I1
sS'.OOX.OXXX'
p319
I1
sS'.XOX.OX..'
p320
F0.5
sS'OXOXXXO..'
p321
I1
sS'X.OXOXOOX'
p322
F0.0
sS'OXXXOO...'
p323
F0.5
sS'..XXO..OX'
p324
F0.5
sS'OOOX..XX.'
p325
F0.0
sS'X.X..O..O'
p326
F0.9999999999999998
sS'.XO..O.X.'
p327
F1.0
sS'.XXOO..XO'
p328
F0.5
sS'O..OXX.X.'
p329
F0.5
sS'XO...OX.X'
p330
F0.5
sS'.OOX..XXO'
p331
F0.6
sS'XO...OX..'
p332
F0.9999999999999998
sS'.OOX..XX.'
p333
F0.5
sS'.OXOX.X..'
p334
I1
sS'...XO.O.X'
p335
F0.5
sS'OOXXXO...'
p336
F0.9999999889572059
sS'.XO..O.XX'
p337
F0.5
sS'X.X..O...'
p338
F0.5
sS'.X.O.X.XO'
p339
F0.5
sS'OOX...OXX'
p340
F0.83616
sS'.XXOO..X.'
p341
F0.5
sS'OXXXOO..X'
p342
F0.5
sS'..XXO..O.'
p343
F0.5
sS'.XXXOO.OX'
p344
F0.5
sS'..XOXOOX.'
p345
F0.9999988027378587
sS'..OOX...X'
p346
F1.0
sS'.XXO.X..O'
p347
F0.5
sS'...XXOO.X'
p348
F0.5
sS'XO.OX..XO'
p349
F0.5
sS'OOXX.O.X.'
p350
F0.5
sS'XX.X.OXOO'
p351
I1
sS'.XX.X..OO'
p352
F0.5
sS'XOOXXX..O'
p353
I1
sS'.O.X.XXO.'
p354
F0.5
sS'XO.OX..X.'
p355
F0.5
sS'...XXOO..'
p356
F0.5
sS'XX..OXOXO'
p357
F0.5
sS'.O.X.XXOO'
p358
F1.0
sS'OOXX.O.XX'
p359
F0.5
sS'O..OX.XOX'
p360
F0.9996830873499429
sS'OO...XXOX'
p361
F0.9999999981473267
sS'.XXOX.OOX'
p362
F0.5
sS'.XXOOX.XO'
p363
F0.5
sS'..XOXOOXX'
p364
F0.5
sS'.XXXOO.O.'
p365
F0.7952
sS'O..XOOXX.'
p366
F0.9998701925785366
sS'OXOO.XX.X'
p367
F0.5
sS'.OOXXXOX.'
p368
I1
sS'.OOXX.OX.'
p369
F0.9999942910092292
sS'O...XX..O'
p370
F0.9999999999999998
sS'XO..OX.XO'
p371
F0.5
sS'XOXXOOXXO'
p372
I1
sS'XOXO..XO.'
p373
F1.0
sS'....XOX.O'
p374
F0.9999999999999998
sS'XOXO..XOX'
p375
F0.5
sS'OOX.....X'
p376
F1.0
sS'X..O.O.X.'
p377
F0.5
sS'OXOOXXXOX'
p378
F0.5
sS'.XOOXO..X'
p379
F0.9999976615973802
sS'.XXXOOOOX'
p380
F1.0
sS'.OOXX.OXX'
p381
F0.5
sS'XXOOXXXOO'
p382
F0.5
sS'XXXOO..OX'
p383
I1
sS'...O..OXX'
p384
F0.5
sS'O...XX...'
p385
F0.5
sS'X..XO.XO.'
p386
I1
sS'OXOO.XX..'
p387
F0.5
sS'XO..OX.X.'
p388
F0.5
sS'O..XOOXXX'
p389
I1
sS'O.XOOXX.X'
p390
I1
sS'.XOOX.XO.'
p391
F0.5
sS'O..XOX...'
p392
F0.5
sS'X.X...O.O'
p393
F1.0
sS'O..X..X.O'
p394
F0.5
sS'XO..O..X.'
p395
F0.5
sS'.O.XOXX..'
p396
F0.5
sS'.XO...X..'
p397
F0.5
sS'OO.XOXXXO'
p398
F0.0
sS'OOX.XXO..'
p399
F1.0
sS'OO..OXX.X'
p400
F0.9887410009315738
sS'OO.XOXXX.'
p401
F0.5
sS'.OOX.XXXO'
p402
F0.5
sS'OOX.XXO.X'
p403
I1
sS'XO..O..XX'
p404
F0.5
sS'O.XOOXX..'
p405
F0.982407813955584
sS'O..X..X..'
p406
F0.5
sS'....XOX..'
p407
F0.5
sS'.O.XOXX.O'
p408
F1.0
sS'O..XOX..X'
p409
F0.5
sS'.XOOX.XOX'
p410
F0.5
sS'.XO...X.O'
p411
F0.5
sS'OXX..XOO.'
p412
F1.0
sS'OXXX.O.O.'
p413
F0.5
sS'.OOX....X'
p414
F0.5
sS'.X...X..O'
p415
F0.5
sS'O.OXOXXOX'
p416
F0.5
sS'.XXOXOXO.'
p417
I1
sS'OXO.O.XX.'
p418
F0.9999999999999998
sS'O..O.XX..'
p419
F0.5
sS'OXO.XX.XO'
p420
I1
sS'O..O.XX.X'
p421
F0.5
sS'.O.XXO.X.'
p422
F0.5
sS'.O..XX.XO'
p423
F0.5
sS'OXO.O.XXX'
p424
I1
sS'OOXXXO..X'
p425
F0.5
sS'OXXX.O.OX'
p426
F0.5
sS'OXX..XOOX'
p427
I1
sS'X.XOXOOXO'
p428
F0.5
sS'.XX.OXO..'
p429
F0.5
sS'OOXX.XO.X'
p430
I1
sS'..OOX.X.X'
p431
F0.5
sS'XXOX.O.O.'
p432
F0.9999999341798177
sS'..XOXO..X'
p433
F0.5
sS'O.O...XX.'
p434
F1.0
sS'O.O...XXX'
p435
I1
sS'XOX..XOXO'
p436
F0.5
sS'..XOXO...'
p437
F1.0
sS'XXOX.O.OX'
p438
F0.5
sS'..OOX.X..'
p439
F0.5
sS'.XX.OXO.O'
p440
F0.6
sS'XX..OOO.X'
p441
F0.8951424
sS'..O.X.XOX'
p442
F0.5
sS'..XXX.O.O'
p443
F0.5
sS'X.O...XOX'
p444
F0.5
sS'.XOO....X'
p445
F0.5
sS'OX..OX.OX'
p446
F0.9725122093056
sS'X.XOOOXOX'
p447
I0
sS'XO.X..XO.'
p448
I1
sS'.XO..OXXO'
p449
F0.0
sS'..O.X.XO.'
p450
F0.5
sS'X.O...XO.'
p451
F0.9999999996114662
sS'XOO.X..XO'
p452
F0.5
sS'O.XXOOX..'
p453
F0.5
sS'X.XOOXOXO'
p454
F0.9999999999999998
sS'XOOXOXXXO'
p455
I1
sS'OXX...OX.'
p456
F0.5
sS'XXOXX.O.O'
p457
F0.5
sS'.X.XOO...'
p458
F0.5
sS'.X.XOO..X'
p459
F0.5
sS'OXX...OXO'
p460
F0.9999999999999805
sS'XX.XOOOOX'
p461
F1.0
sS'..XXOOXXO'
p462
F0.5
sS'X.O.OXXO.'
p463
F0.9999999999357225
sS'O...X.OX.'
p464
F1.0
sS'.XO.OXO.X'
p465
F0.0
sS'XOO.X..X.'
p466
F0.5
sS'.XXOOO..X'
p467
F0.0
sS'XXXO..OOX'
p468
I1
sS'OOO.XXXOX'
p469
F0.0
sS'X.XOOXOX.'
p470
F0.5
sS'O..XXXO..'
p471
I1
sS'O.XXOOX.X'
p472
F0.5
sS'.XX.OOXXO'
p473
F0.5
sS'O.O.XX.X.'
p474
F0.5
sS'.X.XOOX.O'
p475
F0.6
sS'OXO.X.XXO'
p476
I1
sS'O...XO..X'
p477
F0.5
sS'XO..X..O.'
p478
F1.0
sS'OXX..X.O.'
p479
F0.5
sS'OXX..X.OO'
p480
F0.5
sS'.XX..O.XO'
p481
F0.5
sS'.O.O.XOXX'
p482
F0.868928
sS'.XO.OO.XX'
p483
F1.0
sS'O.O.XX.XO'
p484
F0.95705032704
sS'XO..X..OX'
p485
I1
sS'.X.XOOX..'
p486
F0.5
sS'OOO.X.XX.'
p487
F0.0
sS'OXOO..X.X'
p488
F1.0
sS'XX.OXOXOO'
p489
F0.5
sS'OXX..OX..'
p490
F0.5
sS'.X...OXXO'
p491
F0.5
sS'XX.....OO'
p492
F0.9999999999999998
sS'OO.X.X...'
p493
F1.0
sS'.O.XX.X.O'
p494
F0.5
sS'..XO.OXXO'
p495
F0.9463129088000001
sS'OXOO.X.X.'
p496
F0.9976388167585652
sS'O.XXO..X.'
p497
F0.5
sS'X.OX.X.OO'
p498
F0.9999999999999998
sS'XOXO.XOX.'
p499
F0.5
sS'.O.OXX...'
p500
F0.5
sS'XOX..O...'
p501
F0.5
sS'.O.OXX..X'
p502
F0.5
sS'.O..O..XX'
p503
F1.0
sS'OXOXOXXO.'
p504
F0.5
sS'X.X..O.OX'
p505
F0.5
sS'XOX..O..X'
p506
F0.5
sS'XXO.OX.XO'
p507
F0.5
sS'X.OX.X.O.'
p508
F0.5
sS'XOXO.XOXO'
p509
F0.5
sS'XX.OXOXO.'
p510
F0.5
sS'OO.X.X..X'
p511
F0.5
sS'OXX..OX.O'
p512
F0.9999659717633078
sS'OXOO.X.XX'
p513
F0.5
sS'XX.....O.'
p514
F0.5
sS'O.XOO.X.X'
p515
F1.0
sS'X..O..O.X'
p516
F0.9999999999999971
sS'..XO.OXX.'
p517
F0.5
sS'O.XXO..XO'
p518
F0.0
sS'O.OXX..XO'
p519
F0.9997464698799543
sS'OX.X...XO'
p520
F0.5
sS'XOXOOX...'
p521
F0.9999976615973802
sS'XOO.OXOXX'
p522
F0.0
sS'...O..X..'
p523
F0.5
sS'.XOO..X..'
p524
F0.5
sS'...XXO.XO'
p525
F0.5
sS'X.OOX.X.O'
p526
F0.5
sS'XXO.O..OX'
p527
F0.5
sS'X.X..OOX.'
p528
F0.5
sS'OXO..X..X'
p529
F0.5
sS'X.O.OO.XX'
p530
F0.9999659717633078
sS'X.X..OOXO'
p531
F0.9999999999999998
sS'OOX.XO..X'
p532
F0.9999999578750833
sS'O.OXX..X.'
p533
F0.5
sS'.XOO..X.X'
p534
F0.5
sS'...O..X.X'
p535
F0.5
sS'XOXOOX..X'
p536
I1
sS'X.OOX.X..'
p537
F0.5
sS'...OOXX.X'
p538
F0.5
sS'..XOXOX..'
p539
I1
sS'X..OOXO.X'
p540
F1.0
sS'X.O.X.OXO'
p541
F0.9999999999999998
sS'XOX.XXOO.'
p542
F0.5
sS'X.O.XXO..'
p543
F0.5
sS'X.XOO.XO.'
p544
F0.9999999999999669
sS'...X.OX.O'
p545
F1.0
sS'....X.O..'
p546
F0.5
sS'.OOXXXXO.'
p547
I1
sS'XXO.O.OX.'
p548
F0.0
sS'X....O.XO'
p549
F0.5
sS'..OOXOX.X'
p550
F0.9999825775428136
sS'OXO..XXO.'
p551
F0.5
sS'XX.OX...O'
p552
F0.5
sS'...X.OX..'
p553
F0.5
sS'OXO..XXOX'
p554
F0.5
sS'.X..OXOOX'
p555
F0.998976
sS'..XX..OXO'
p556
F0.5
sS'....X.O.X'
p557
F0.5
sS'X....O.X.'
p558
F0.5
sS'X.XOO.XOX'
p559
F0.5
sS'..XX.OOOX'
p560
F0.5
sS'X...O..OX'
p561
F0.5
sS'...OOXX..'
p562
F0.5
sS'X.O.X.OX.'
p563
F0.5
sS'XOX.XXOOO'
p564
F0.0
sS'X.O.XXO.O'
p565
F0.9999999999999998
sS'XOOO.XXXO'
p566
F0.5
sS'XXO..OO.X'
p567
F1.0
sS'OXOXOXXOX'
p568
F0.5
sS'OX.O...X.'
p569
F1.0
sS'..XX.OX.O'
p570
F0.5
sS'O..X.X...'
p571
F0.5
sS'.OX.X..XO'
p572
F0.5
sS'OX.......'
p573
F0.5
sS'.OXO.OXX.'
p574
F0.95705032704
sS'OO.OXXOXX'
p575
F0.0
sS'OOO.X.X.X'
p576
F0.0
sS'X....OXXO'
p577
F0.5
sS'.OXO.OXXX'
p578
I1
sS'OX......X'
p579
F0.5
sS'XOOO.XXX.'
p580
F0.5
sS'OX.O...XX'
p581
F0.5
sS'.X..X.OXO'
p582
I1
sS'O..X.X..O'
p583
F1.0
sS'..O..X.OX'
p584
F0.5
sS'.XX.OO.X.'
p585
F0.5
sS'O.O..XXXO'
p586
F0.5
sS'..O.OX.XX'
p587
F0.5
sS'X.X.O.OX.'
p588
F0.5
sS'OX.XO..OX'
p589
F0.5
sS'..X.O..XO'
p590
F0.5
sS'X.X.OXO..'
p591
F0.5
sS'XO.OX.XXO'
p592
F0.5
sS'X.XXOO...'
p593
F0.5
sS'.O.X.XO.X'
p594
F0.5
sS'XOO.XX.XO'
p595
F0.5
sS'.XOOXXX.O'
p596
F0.5
sS'O.XXXOO.X'
p597
F0.5
sS'O.OX.X.XO'
p598
F0.9999999999999998
sS'X...X.O..'
p599
F0.5
sS'OOX.OXX.X'
p600
I1
sS'.XXO.X.OO'
p601
F0.6799999999999999
sS'.X...OX..'
p602
F0.5
sS'XOXXXOOO.'
p603
F0.9999988027378587
sS'O.OX.X.X.'
p604
F0.5
sS'X...X.O.O'
p605
F0.5
sS'...OXOXOX'
p606
F0.9999999971051978
sS'.XXO.X.O.'
p607
F0.5
sS'O.XXXOO..'
p608
F0.5
sS'XXOOXX..O'
p609
F0.5
sS'..OXX.X.O'
p610
F0.5
sS'OXX.O.OX.'
p611
F0.5
sS'OOX.OXX..'
p612
F0.9725122093056
sS'.XX.OO.XO'
p613
F0.5
sS'O.O..XXX.'
p614
F0.5
sS'X.X.O.OXO'
p615
F1.0
sS'.OXXOOXOX'
p616
F0.0
sS'XOO...XXO'
p617
F0.9997464698799543
sS'X.X.OXO.O'
p618
F0.9999999999999998
sS'.O.X.XO..'
p619
F1.0
sS'X.XXOO..O'
p620
F0.744
sS'..O.OX.X.'
p621
F0.5
sS'O..OXXO.X'
p622
F0.0
sS'....OXXXO'
p623
F0.5
sS'XX....OOX'
p624
F0.5
sS'XX.XOO.XO'
p625
F0.5
sS'OOXOX.XX.'
p626
I1
sS'.........'
p627
F0.5
sS'OXOO.XXX.'
p628
F0.5
sS'X.XO.OXXO'
p629
F0.5
sS'...X.XXOO'
p630
F0.5
sS'.X..OX.OX'
p631
F0.5
sS'XO.OXX.XO'
p632
F0.5
sS'OXO..X.X.'
p633
F0.5
sS'.XXX.OO..'
p634
F0.5
sS'.XOOX....'
p635
F0.9887410009315738
sS'.XOOX...X'
p636
F0.5
sS'X..X.OX.O'
p637
I1
sS'XOOX.O.XX'
p638
F0.5
sS'........X'
p639
F0.5
sS'XXX.XOOO.'
p640
I1
sS'.O....OXX'
p641
F0.5
sS'XOXXOO.OX'
p642
F0.0
sS'..OO..X.X'
p643
F0.83616
sS'OXOO.XXXO'
p644
F0.9999999999999998
sS'O..XOXXOX'
p645
F0.5
sS'.XOOX.X.O'
p646
F0.95705032704
sS'.XO.O.XXO'
p647
F0.5
sS'XOX.O....'
p648
F0.5
sS'X..O.X.XO'
p649
F0.5
sS'OOOOXX.XX'
p650
F0.0
sS'..XXO.OXO'
p651
F0.5
sS'O..XXOX.O'
p652
F0.9997464698799543
sS'XX.OXO...'
p653
F0.5
sS'O..O.XXXO'
p654
F0.5
sS'.O.O.XXOX'
p655
F0.744
sS'..XXO.OX.'
p656
F0.5
sS'XXOOOXOX.'
p657
F0.0
sS'O..XXOX..'
p658
F0.5
sS'XX.OXO..O'
p659
F0.9999999730400534
sS'X......OX'
p660
F0.5
sS'O..O.XXX.'
p661
F0.5
sS'XOX.O...X'
p662
F0.5
sS'.XXOXO..O'
p663
F0.5
sS'.XOOX.X..'
p664
F0.5
sS'.XO.O.XX.'
p665
F0.5
sS'O..XOXXO.'
p666
F0.5
sS'..XXOXOXO'
p667
F0.5
sS'XO.OX....'
p668
F1.0
sS'.OO.XXXO.'
p669
F1.0
sS'X.XO.XXOO'
p670
F0.5
sS'XOX..XO.O'
p671
F0.5
sS'O.X.X..OX'
p672
F0.5
sS'X.O.O.XXO'
p673
F0.9999999943460894
sS'O.X.X.OOX'
p674
F0.9999970769967254
sS'XOX..XO..'
p675
F0.5
sS'O.X.X..O.'
p676
F0.9999999999999998
sS'XXOO..XXO'
p677
F0.5
sS'O...OXXOX'
p678
F0.9990328593443083
sS'X..OXXXOO'
p679
F0.5
sS'XO.OX...X'
p680
I1
sS'.OO.XXXOX'
p681
F0.5
sS'.X....XOO'
p682
F0.5
sS'X.XOXOO..'
p683
F0.9999992337522295
sS'OXXOXX.OO'
p684
F0.5
sS'X.OOXXX.O'
p685
F0.5
sS'X.XOXXOO.'
p686
F0.5
sS'XOOO.X.XX'
p687
F0.5
sS'.XXOOXXO.'
p688
F0.5
sS'.O..OXOXX'
p689
F0.5
sS'XOXOO.XOX'
p690
F0.0
sS'O.....OXX'
p691
F0.5
sS'.OX.O...X'
p692
F1.0
sS'.X....XO.'
p693
F0.5
sS'XOOO.X.X.'
p694
F0.5
sS'OXXOXX.O.'
p695
F0.5
sS'.X.OXXOXO'
p696
I1
sS'X.XOXXOOO'
p697
F0.0
sS'X.XOXOO.X'
p698
I1
sS'OX..XO.OX'
p699
F0.5
sS'.XXOOXXOO'
p700
F0.9927942405962072
sS'XOOO..X.X'
p701
F0.9999999999999996
sS'XOXXX.OOO'
p702
F0.0
sS'.XO..XO.X'
p703
F0.5
sS'X.XOOOOXX'
p704
F0.0
sS'X.OO..X..'
p705
F0.5
sS'.X..O....'
p706
F0.5
sS'OX....X.O'
p707
F0.5
sS'...OX.X..'
p708
F0.5
sS'XOXXO...O'
p709
F0.9999999999999998
sS'XO...O.X.'
p710
F0.5
sS'OOXO.XXX.'
p711
F0.5
sS'OX....X..'
p712
F0.5
sS'.OX.O.XOX'
p713
F0.0
sS'.X..O...X'
p714
F0.5
sS'OOXO.XXXO'
p715
F1.0
sS'XOXXX.OO.'
p716
F0.5
sS'X.OO..X.X'
p717
F0.5
sS'XX.O..OXO'
p718
F1.0
sS'.O.XXX..O'
p719
I1
sS'XOO.XXO.X'
p720
I1
sS'XX..O..O.'
p721
F0.9999999999999998
sS'..XXOX.OO'
p722
F0.5
sS'O...XXOXO'
p723
F0.95705032704
sS'OXO.XX...'
p724
F0.5
sS'.X...O..X'
p725
F0.5
sS'XOO.XOX.X'
p726
I1
sS'..XX..XOO'
p727
F0.5
sS'...XOXOOX'
p728
F1.0
sS'X.XOX..O.'
p729
F0.5
sS'XOXOXXO..'
p730
F0.5
sS'.XOO.XXO.'
p731
F0.5
sS'.XOO.XXOX'
p732
F0.5
sS'X.OOOX.XX'
p733
F0.5
sS'X.XOX..OO'
p734
F0.9999999999999998
sS'.XOX.XOXO'
p735
F0.5
sS'XOXOXXO.O'
p736
F0.5
sS'XOO.XOX..'
p737
F0.9887410009315738
sS'.X...O...'
p738
F0.5
sS'OXOXO.OXX'
p739
F0.0
sS'..X......'
p740
F0.5
sS'XO..O.XOX'
p741
F0.0
sS'..XXOX.O.'
p742
F0.5
sS'O...XXOX.'
p743
F0.5
sS'XX..O..OX'
p744
F0.5
sS'XOO.XXO..'
p745
F0.9999981292779042
sS'XXXO..O..'
p746
I1
sS'XO.O.OXXX'
p747
I1
sS'XXO.OO.X.'
p748
F0.5
sS'XX.O.XOXO'
p749
F0.5
sS'.OXXO..XO'
p750
F0.5
sS'OXO.X.O.X'
p751
F1.0
sS'.OXXO..X.'
p752
F0.5
sS'XOOXX..XO'
p753
F0.5
sS'XXXOOX.O.'
p754
I1
sS'XXO.OO.XX'
p755
F0.4
sS'OO..X...X'
p756
F0.5
sS'X.O.XOXO.'
p757
F0.9970485209482065
sS'.XOO.X..X'
p758
F0.5
sS'X..O.OXXO'
p759
F0.5
sS'XO.XOXO..'
p760
F0.5
sS'..X...X.O'
p761
F0.5
sS'XX.OXOX.O'
p762
F0.5
sS'X.X.XO..O'
p763
F0.5
sS'O.X..X.XO'
p764
F0.5
sS'...OXO..X'
p765
F1.0
sS'.O.X.OX.X'
p766
F0.5
sS'.XO.OXOX.'
p767
F0.0
sS'.XOXX.OXO'
p768
I1
sS'.O.X.OX..'
p769
F1.0
sS'.XO.O.OXX'
p770
F0.0
sS'XO.XOXO.X'
p771
F0.5
sS'X..O.OXX.'
p772
F0.5
sS'X.O.XOXOX'
p773
I1
sS'XO.X.XOO.'
p774
F0.9996830873499429
sS'..XOX.OX.'
p775
F0.5
sS'.OO..X.X.'
p776
F0.5
sS'XO..XXOOX'
p777
I1
sS'X.X...OXO'
p778
F0.5
sS'XXO..O.X.'
p779
F0.4
sS'.OX.OO.XX'
p780
F0.9859262511644672
sS'XO.X.O.OX'
p781
F0.9996830873499429
sS'XO...OXOX'
p782
F0.9999999999990605
sS'XO..OO.XX'
p783
F0.9909928007452591
sS'XXO..O.XO'
p784
F0.0
sS'..XOX.OXO'
p785
F0.9887410009315738
sS'.OXOX.XOX'
p786
I1
sS'OX....XXO'
p787
F0.5
sS'XO.X.XOOX'
p788
F0.5
sS'.OO..X.XX'
p789
F0.5
sS'XOOXXX.O.'
p790
I1
sS'OX..OOXXX'
p791
I1
sS'...XO.XXO'
p792
F0.5
sS'.XOXXOO.X'
p793
F0.5
sS'XO.XX.OO.'
p794
F0.9999999999999998
sS'.X.......'
p795
F0.5
sS'O.O.XXOX.'
p796
F0.965640261632
sS'.XOOXXOOX'
p797
F1.0
sS'O.O.XXOXX'
p798
F0.5
sS'.X......O'
p799
F0.5
sS'X..XOOO.X'
p800
F0.5
sS'X.OX.OOX.'
p801
F0.5
sS'XO.X..O..'
p802
F0.5
sS'OX..OOXX.'
p803
F1.0
sS'XOOO.XX..'
p804
F0.5
sS'..O.XXX.O'
p805
F0.5
sS'..XOOOX.X'
p806
F0.0
sS'.....O..X'
p807
F0.5
sS'OXO.XXOX.'
p808
I1
sS'XO....OXX'
p809
F0.5
sS'OXOXOO.XX'
p810
F0.9953883139815727
sS'OXXXOOX..'
p811
F0.5
sS'XXOO.OOXX'
p812
F0.5
sS'OOX.XO.XX'
p813
F0.5
sS'O..OOXXXX'
p814
I1
sS'OOX.XO.X.'
p815
F0.9953883139815727
sS'O.OXX.O.X'
p816
F0.9970485209482065
sS'OXXXOOX.O'
p817
F0.0
sS'O..OOXXX.'
p818
F0.9859262511644672
sS'XO....OX.'
p819
F0.5
sS'OXO.X.OXX'
p820
I1
sS'XXO.....O'
p821
F0.5
sS'XOOO.XX.X'
p822
F0.5
sS'XXXO..XOO'
p823
I1
sS'O.O.X..XX'
p824
F0.5
sS'O.XXOXO..'
p825
F0.95705032704
sS'OX.X.OXOX'
p826
F0.5
sS'X..OXO.X.'
p827
F0.5
sS'X.XXOO.XO'
p828
F0.5
sS'XOXOX.X.O'
p829
I1
sS'..O.XX.OX'
p830
F0.5
sS'OOXXOOX.X'
p831
F1.0
sS'.OXX..OOX'
p832
F0.868928
sS'..O.XX.O.'
p833
F1.0
sS'OX.O.X.OX'
p834
F0.9996038591874287
sS'OOX.O.X.X'
p835
F1.0
sS'OX.X.OXO.'
p836
F0.5
sS'O.XXOXO.X'
p837
I1
sS'.XX.OXOOX'
p838
I1
sS'XOXOXO..X'
p839
I1
sS'OX.X.X.OO'
p840
F0.95705032704
sS'.OXX...OX'
p841
F0.5
sS'XXX.XOO.O'
p842
I1
sS'O..X.X.XO'
p843
F0.5
sS'.O...XXOX'
p844
F0.5
sS'...OOXXX.'
p845
F0.5
sS'X.O.XO...'
p846
F0.9999997489159306
sS'.XX.O.XO.'
p847
F0.5
sS'O.OX...XX'
p848
F0.5
sS'X.OX..OXO'
p849
F0.5
sS'...OOXXXO'
p850
F0.5
sS'O.OX...X.'
p851
F0.5
sS'XX.OXXOO.'
p852
F0.5
sS'X.O.XO..X'
p853
I1
sS'.O...XXO.'
p854
F0.5
sS'.OXX...O.'
p855
F0.5
sS'.XO.OX.OX'
p856
F0.5
sS'XOXOXO...'
p857
F0.9999999999999998
sS'OX.X.X.O.'
p858
F0.5
sS'OXOXXO.X.'
p859
I1
sS'.XX.OXOO.'
p860
F0.6799999999999999
sS'OXXO.....'
p861
F0.5
sS'O.XOX.OX.'
p862
F0.0
sS'XOX.XO..O'
p863
F0.9999999999999998
sS'.X.X.OXO.'
p864
F0.5
sS'XXO..XO..'
p865
F0.5
sS'..XOXXXOO'
p866
I1
sS'XO.XO.OX.'
p867
F0.5
sS'OX..X..OX'
p868
F0.5
sS'OO..XO.XX'
p869
F0.9996038591874287
sS'X.O....X.'
p870
F0.5
sS'X.OOO..XX'
p871
F0.9999999999999998
sS'O.X.O...X'
p872
F1.0
sS'.XXX.OOXO'
p873
F0.5
sS'X.O....XO'
p874
F0.5
sS'..XXOO.OX'
p875
F0.5
sS'OOXXXOXXO'
p876
I1
sS'XO.XO..OX'
p877
F0.0
sS'.X.X.OXOO'
p878
F0.868928
sS'XOX.XO...'
p879
F0.5
sS'XXO..XO.O'
p880
F0.5
sS'OXXO....X'
p881
F0.5
sS'O.OX.X...'
p882
F1.0
sS'XXX.OO.XO'
p883
I1
sS'.OXX.XO.O'
p884
F1.0
sS'XOXX.OOXO'
p885
F0.5
sS'X.XO....O'
p886
F0.9999999999999998
sS'OXXXX.OO.'
p887
F0.5
sS'..OOOXX.X'
p888
F0.982407813955584
sS'XO.X.XO.O'
p889
F1.0
sS'.O..XOOXX'
p890
F1.0
sS'.XXXXOOOO'
p891
F0.0
sS'XOXO.OOXX'
p892
F0.9999997991327445
sS'OXX.O.O.X'
p893
F0.9999999999999998
sS'OOXX.XX.O'
p894
F0.5
sS'OX.XOXOOX'
p895
F0.6
sS'OXXXX.OOO'
p896
F0.0
sS'.XXXXOOO.'
p897
F0.5
sS'.XOXXO.OX'
p898
F0.5
sS'O.OX.X..X'
p899
F0.5
sS'XOXX.OOX.'
p900
F0.5
sS'OXOXO.XOX'
p901
F0.5
sS'X.XOXXO.O'
p902
F0.5
sS'.XXXXO.OO'
p903
F0.5
sS'XOX..OXO.'
p904
F0.9998377407231708
sS'XOX.XOX.O'
p905
I1
sS'.XO.OXX.O'
p906
F0.5
sS'..OO.XXOX'
p907
F0.5
sS'.X....X.O'
p908
F0.5
sS'XXOXX.OO.'
p909
F0.5
sS'OXXOXX..O'
p910
F0.5
sS'O.XXX.OXO'
p911
F0.5
sS'X....X.OO'
p912
F0.5
sS'X.O.XO.XO'
p913
F0.0
sS'.O...OXX.'
p914
F0.868928
sS'XXOXX.OOO'
p915
F0.0
sS'.O...OXXX'
p916
I1
sS'X....X.O.'
p917
F0.5
sS'X.O.XO.X.'
p918
F0.5
sS'.O.X..XXO'
p919
F0.5
sS'XOXXO..XO'
p920
F0.5
sS'..OOXXO.X'
p921
F0.9996830873499429
sS'OXX..X..O'
p922
F0.5
sS'.OOX.OX.X'
p923
F0.9999963462459067
sS'.XO.OXX..'
p924
F0.5
sS'X.OX.OXOX'
p925
I1
sS'OOOXOXX.X'
p926
F0.0
sS'X.X..O.XO'
p927
F0.5
sS'X...O.O.X'
p928
F0.5
sS'...OX...X'
p929
F0.5
sS'XOXXX.O.O'
p930
F0.5
sS'.OX..XO..'
p931
F0.9859262511644672
sS'.XOX..OXO'
p932
F0.95705032704
sS'XX..OXO.O'
p933
F0.9999992337522295
sS'XXOO.OXX.'
p934
F0.5
sS'.XOX..OX.'
p935
F0.5
sS'XX..OXO..'
p936
F0.5
sS'XXOO.OXXO'
p937
F0.0
sS'OOOXX..X.'
p938
F0.0
sS'.O.OXX.OX'
p939
F0.9999999999999998
sS'.OX..XO.X'
p940
I1
sS'OOXX.XO..'
p941
F0.97800976744448
sS'.XOXX.XOO'
p942
F0.5
sS'XXOOOXO.X'
p943
F0.0
sS'OX.X.O...'
p944
F0.5
sS'OOOX.X..X'
p945
F0.0
sS'O.OOXXX..'
p946
F0.5
sS'.XX...OO.'
p947
F1.0
sS'.XXOXO...'
p948
F0.5
sS'.OXXOXXOO'
p949
I0
sS'.XOXOX.O.'
p950
F0.5
sS'X.X..OO.X'
p951
F0.5
sS'OOX....XX'
p952
F0.5
sS'.OO....XX'
p953
F0.9999988027378587
sS'XOXXXOOXO'
p954
F0.5
sS'OXO..X.XO'
p955
F0.91611392
sS'OXOOXX.X.'
p956
I1
sS'XO.OOXOXX'
p957
F0.9725122093056
sS'OOX....X.'
p958
F0.5
sS'.XOXOX.OX'
p959
F0.5
sS'X.X..OO..'
p960
F1.0
sS'O.OOXXX.X'
p961
F0.32
sS'O..X.XOOX'
p962
F1.0
sS'.XX...OOX'
p963
F0.5
sS'..XOX.XO.'
p964
I1
sS'OX.X.O..X'
p965
F0.5
sS'XOXXO.X.O'
p966
I1
sS'..XOXOXOX'
p967
I1
sS'OO..X.XOX'
p968
F0.9984888427254818
sS'...OXOX.X'
p969
F0.5
sS'OX.O..OXX'
p970
F0.0
sS'..XO...X.'
p971
F0.5
sS'XO.....OX'
p972
F0.9999992337522295
sS'OOXO.XX.X'
p973
I1
sS'O.XXXO.OX'
p974
F0.5
sS'OX.OX.X.O'
p975
F0.9999999999999998
sS'.XXOXOX.O'
p976
I1
sS'OXOOXXXXO'
p977
I1
sS'X.O.O.XOX'
p978
F0.9993810299803573
sS'.OXO.O.XX'
p979
F0.9328911360000001
sS'XOXXO....'
p980
F0.5
sS'OX.XX.XOO'
p981
F0.5
sS'.XO..XO..'
p982
F0.5
sS'O.XXXO.O.'
p983
F0.9998961540628293
sS'OX.OXOXOX'
p984
F0.9999999999940137
sS'OOXO.XX..'
p985
F0.982407813955584
sS'...OXXOX.'
p986
F0.5
sS'..XO...XO'
p987
F0.5
sS'XO.XOXOOX'
p988
I0
sS'X.O.XOX.O'
p989
F0.0
sS'X.X...XOO'
p990
F0.5
sS'OOXXOXX..'
p991
F0.5
sS'.OOOX..XX'
p992
F0.9990328593443083
sS'..XXO..XO'
p993
F0.5
sS'OXO.X.XO.'
p994
F0.5
sS'..O.OXOXX'
p995
F0.0
sS'..XOXOO.X'
p996
F0.9963106511852582
sS'OXO.X.XOX'
p997
F0.5
sS'X.O.XOX..'
p998
F0.5
sS'OOXXOXX.O'
p999
F0.0
sS'..XOOXOX.'
p1000
F0.5
sS'X.XXOO.OX'
p1001
F0.5
sS'.X.OX.O..'
p1002
F0.9999999999990605
sS'XX....O.O'
p1003
F0.9999999999999998
sS'..XOXXO..'
p1004
F0.5
sS'...OXX...'
p1005
F0.5
sS'OOXXOX..X'
p1006
I1
sS'.OXOOX.XX'
p1007
I1
sS'XO..OXO.X'
p1008
F0.91611392
sS'OOXX.XOX.'
p1009
F0.5
sS'.X..XO.OX'
p1010
F0.5
sS'.X.O.OX..'
p1011
F0.5
sS'.X.O.OX.X'
p1012
F0.5
sS'.X..XO.O.'
p1013
F0.5
sS'XXX.O.XOO'
p1014
I1
sS'OOXXOX...'
p1015
F0.9725122093056
sS'.OXOOX.X.'
p1016
F1.0
sS'OOXX.XOXO'
p1017
F1.0
sS'...O....X'
p1018
F0.5
sS'.X.OX.O.X'
p1019
F0.5
sS'.O.OX.XX.'
p1020
F0.5
sS'X.XXOO.O.'
p1021
F0.7952
sS'XX....O..'
p1022
F0.5
sS'X..O..XXO'
p1023
F0.5
sS'..XOXXO.O'
p1024
F0.5
sS'X..OOXXXO'
p1025
F0.5
sS'OOXXX..O.'
p1026
F1.0
sS'OO...X.X.'
p1027
F0.5
sS'XX.O.XO..'
p1028
F0.5
sS'OOXOOXXXX'
p1029
I1
sS'...XO...X'
p1030
F0.5
sS'.XOXXOOOX'
p1031
F0.9999996861449132
sS'OX..OXO.X'
p1032
F0.9463129088000001
sS'XX.O.XO.O'
p1033
F0.9999999999999998
sS'...XO....'
p1034
F0.5
sS'OOXOOXXX.'
p1035
F0.5
sS'OO...X.XX'
p1036
F0.5
sS'...X...XO'
p1037
F0.5
sS'OX..OOX.X'
p1038
F1.0
sS'OOXXX..OX'
p1039
F0.5
sS'XXOOO..XX'
p1040
F0.5
sS'XX.OXO.O.'
p1041
F0.9976388167585652
sS'XOOO.XXOX'
p1042
F0.999978221928517
sS'OOX..XOXX'
p1043
I1
sS'O.X.O.XX.'
p1044
F0.5
sS'XXO....OX'
p1045
F0.5
sS'OXOX.O.XX'
p1046
F0.5
sS'X..O.OX..'
p1047
F0.5
sS'.X..OX...'
p1048
F0.5
sS'.XOO.X.XO'
p1049
F0.91611392
sS'.X..OX..O'
p1050
F0.5
sS'O.XO....X'
p1051
F0.9999999999999998
sS'XXOO...OX'
p1052
F0.9999999827456342
sS'XXO....O.'
p1053
F0.5
sS'OOX..XOX.'
p1054
F0.99999999998
sS'O.O.X.XOX'
p1055
F0.5
sS'OXOX.O.X.'
p1056
F0.9999999861965073
sS'X.OXO.O.X'
p1057
F0.0
sS'O.X.O.XXO'
p1058
F0.0
sS'XXOOO..X.'
p1059
F0.5
sS'XX.OXO.OX'
p1060
I1
sS'XOXX....O'
p1061
F0.5
sS'.X...XOO.'
p1062
F0.5
sS'OXX..XXOO'
p1063
F0.5
sS'XO.XXOO.X'
p1064
I1
sS'O..XXOXO.'
p1065
F0.9999999999999998
sS'X.OX..O.X'
p1066
F0.5
sS'OX.X.OX.O'
p1067
F0.5
sS'X.OX..O..'
p1068
F0.5
sS'..OXOX...'
p1069
F0.4735242330910958
sS'X.XOXO.XO'
p1070
F0.5
sS'OX.X.OX..'
p1071
F0.5
sS'O..XXOXOX'
p1072
F0.5
sS'XO.X.XO..'
p1073
F0.5
sS'.O.XXXOOX'
p1074
I1
sS'XO.XXOO..'
p1075
F0.9999999999999998
sS'.X...XOOX'
p1076
F0.5
sS'OXXOO.X.X'
p1077
F0.5
sS'XOXOXOOXX'
p1078
I1
sS'O....X.XO'
p1079
F0.5
sS'XOXO.XXOO'
p1080
F0.9999999999999998
sS'OX..O..X.'
p1081
F0.5
sS'XOX..XOO.'
p1082
F0.9999999995143328
sS'.XXX.OO.O'
p1083
F0.744
sS'.OX.O..XX'
p1084
F0.5
sS'O.X...OX.'
p1085
F0.5
sS'X...OX...'
p1086
F0.5
sS'X.XOX.O..'
p1087
F0.5
sS'XOXO.XXO.'
p1088
F0.5
sS'OX.OOX..X'
p1089
F0.91611392
sS'XOXO.OXOX'
p1090
F0.5
sS'XOX..XOOX'
p1091
I1
sS'OX..O..XX'
p1092
F0.5
sS'O.X...OXX'
p1093
F0.5
sS'.OX.O..X.'
p1094
F0.5
sS'X.XOX.O.O'
p1095
F0.9999999999999998
sS'X...OX..O'
p1096
F0.5
sS'..XOOXXXO'
p1097
F0.5
sS'O....X.X.'
p1098
F0.5
sS'XOXOXOOX.'
p1099
F1.0
sS'OXXOO.X..'
p1100
F0.5
sS'X.XXOOOOX'
p1101
F1.0
sS'X..X.OOXO'
p1102
F0.5
sS'XO.XO...X'
p1103
F0.5
sS'..X.OO..X'
p1104
F0.5
sS'O.O.X...X'
p1105
F0.5
sS'OXOXO..XX'
p1106
F0.5
sS'O...XXXO.'
p1107
F0.5
sS'X.O...XXO'
p1108
F0.5
sS'XOXOO.X..'
p1109
F0.5
sS'.XXOXX.OO'
p1110
F0.5
sS'XXO.OXOXO'
p1111
F0.0
sS'XOXOO.X.X'
p1112
F0.5
sS'X..X.OOX.'
p1113
F0.5
sS'.OOX.O.XX'
p1114
F1.0
sS'O...XXXOO'
p1115
F0.9999999999999998
sS'XOOO.X..X'
p1116
F0.9981110534068522
sS'XO.XO....'
p1117
F0.9999999999999998
sS'OXOXO..X.'
p1118
F0.5
sS'..O.OXX..'
p1119
F0.5
sS'X.O..XOOX'
p1120
F0.9999999999999998
sS'O.OXO.XXX'
p1121
I1
sS'XOXOO...X'
p1122
F0.9999999999999998
sS'XOXX.OO..'
p1123
F0.5
sS'XX.O..XOO'
p1124
F1.0
sS'.XXO...O.'
p1125
F1.0
sS'XX.XOOOX.'
p1126
F0.5
sS'OXX.XXOOO'
p1127
F0.0
sS'X.XOO..OX'
p1128
F0.5
sS'XX.O..XO.'
p1129
F0.5
sS'XX.XOOOXO'
p1130
F0.5
sS'OXOO..XX.'
p1131
F1.0
sS'OXOX.O..X'
p1132
F0.5
sS'OXX.XXOO.'
p1133
F0.5
sS'X....XOXO'
p1134
F0.5
sS'O..X...OX'
p1135
F0.5
sS'XOXX.OO.X'
p1136
F0.5
sS'XO.X...XO'
p1137
F0.5
sS'..O.OXX.X'
p1138
F0.5
sS'O.OXO.XX.'
p1139
F0.9993810299803573
sS'OX..XO.X.'
p1140
I1
sS'OXXOO.OXX'
p1141
F0.0
sS'XX.X.OO..'
p1142
F0.5
sS'XXOXXO.O.'
p1143
F0.5
sS'XX.OOX.O.'
p1144
F1.0
sS'XOOXO.X.X'
p1145
I1
sS'.XO.X...O'
p1146
F0.9999999999999998
sS'OO.X.XOX.'
p1147
F0.7952
sS'XXOOX....'
p1148
F0.5
sS'O.XX.OXXO'
p1149
F0.5
sS'OOXXO.XXO'
p1150
F0.0
sS'OO.X.XOXX'
p1151
F0.5
sS'.XO.X....'
p1152
F0.5
sS'..X..OO.X'
p1153
F0.5
sS'XX.OOX.OX'
p1154
F0.5
sS'XXOOX...O'
p1155
F0.9999999730400534
sS'XO.O....X'
p1156
F0.9999999999999998
sS'O.O.XX.OX'
p1157
F0.9999999827456342
sS'XX.X.OO.O'
p1158
F0.744
sS'XXOXXO.OO'
p1159
F0.0
sS'.OOO.X.XX'
p1160
F0.91611392
sS'O.X.O..X.'
p1161
F0.5
sS'XXOO.O.XX'
p1162
F0.5
sS'OXXO..X..'
p1163
F0.5
sS'XXO..OOXX'
p1164
F0.5
sS'XOX.OOX.X'
p1165
F0.5
sS'X..X.O.OX'
p1166
F0.5
sS'.XOXX.O.O'
p1167
F0.982407813955584
sS'..OO.XX..'
p1168
F0.5
sS'.O.XOXO.X'
p1169
F0.744
sS'.O...X...'
p1170
F0.5
sS'XXOOX.XO.'
p1171
F0.5
sS'.XOOXX...'
p1172
F0.5
sS'.O...X..X'
p1173
F0.5
sS'.XOXX.O..'
p1174
F0.5
sS'XO..OOXXX'
p1175
I1
sS'OXO.XOXX.'
p1176
I1
sS'X.OX.OX..'
p1177
I1
sS'.XOOXX..O'
p1178
F0.9999999999988257
sS'XXOOX.XOO'
p1179
F0.5
sS'XOX.OOX..'
p1180
F0.9998377407231708
sS'XXO..OOX.'
p1181
F0.9990328593443083
sS'O.XXO..OX'
p1182
F0.9953883139815727
sS'OXXO..X.O'
p1183
F0.9999999999999998
sS'X..X.O.O.'
p1184
F0.9999999999999998
sS'O.X.O..XX'
p1185
F0.5
sS'..OX.O.X.'
p1186
F0.5
sS'XXOO.O.X.'
p1187
F0.9999825775428136
sS'O.XXX..O.'
p1188
F0.5
sS'O.X.XXXOO'
p1189
I1
sS'....OXX..'
p1190
F0.5
sS'O.OXX..OX'
p1191
F1.0
sS'.X.XXOXOO'
p1192
F0.5
sS'....OOXX.'
p1193
F0.7952
sS'O..X.OXX.'
p1194
F0.5
sS'XO..O.XX.'
p1195
F0.5
sS'O.X.OX.X.'
p1196
F0.5
sS'XXO..O..X'
p1197
F0.5
sS'.X...OOX.'
p1198
F1.0
sS'OX.XXOOX.'
p1199
I1
sS'.XOOXXXO.'
p1200
F0.5
sS'O.X.OX.XO'
p1201
F0.0
sS'OXO.XO.XX'
p1202
I1
sS'X.XOXOXO.'
p1203
I1
sS'OXOXXXXOO'
p1204
I1
sS'XXO..O...'
p1205
F0.5
sS'.O.X.OXOX'
p1206
F0.9999998714449565
sS'.XOOXXXOO'
p1207
F0.5
sS'O.XXX..OO'
p1208
F0.9725122093056
sS'....OOXXX'
p1209
I1
sS'X.OXO..X.'
p1210
F0.5
sS'O..X.OXXO'
p1211
F0.5
sS'XO..O.XXO'
p1212
F0.9995048239842859
sS'XXXOO..XO'
p1213
I1
sS'O....OXXX'
p1214
I1
sS'.O.X.OOXX'
p1215
F0.5
sS'.X.....O.'
p1216
F0.5
sS'OX.XX.O.O'
p1217
F0.9328911360000001
sS'.OX.X.OX.'
p1218
F0.5
sS'OXXO.X...'
p1219
F0.5
sS'O.XX.OX.O'
p1220
F0.9999976615973802
sS'XO...XXOO'
p1221
F0.9999999999999998
sS'.OX...XXO'
p1222
F0.5
sS'OOXO...XX'
p1223
F0.83616
sS'X..O.OX.X'
p1224
F0.5
sS'XOXOO..X.'
p1225
F0.5
sS'.OXXOXX.O'
p1226
F0.5
sS'XXXXO..OO'
p1227
I1
sS'XOXOO..XX'
p1228
F0.5
sS'O.XOXXO..'
p1229
F0.0
sS'OX.XX.O..'
p1230
F0.5
sS'.OX.X.OXO'
p1231
F0.5
sS'O....OXX.'
p1232
F1.0
sS'OXXO.X..O'
p1233
F0.5
sS'O.XX.OX..'
p1234
F0.5
sS'.X.....OX'
p1235
F0.5
sS'XO...XXO.'
p1236
F0.5
sS'XOX.OOXXO'
p1237
F1.0
sS'OOXOXX..X'
p1238
I1
sS'OX...XOOX'
p1239
F0.9997638816758565
sS'O.OOXXXXO'
p1240
F0.9999999999999994
sS'OXO..XO.X'
p1241
F0.5
sS'XO.O.X.XO'
p1242
F0.5
sS'X..X..O.O'
p1243
F0.5
sS'..XXO.XO.'
p1244
F0.5
sS'O.OOXXXX.'
p1245
F0.4
sS'.XO.XOOXX'
p1246
I1
sS'.XX.OOO.X'
p1247
F0.7952
sS'..XXO.XOO'
p1248
F0.9999468308801686
sS'XXOO.OX.X'
p1249
F0.5
sS'..X.OOX.X'
p1250
F0.5
sS'.OOX.X.OX'
p1251
F0.9999888496274008
sS'XXXOXO..O'
p1252
I1
sS'OOXOXX...'
p1253
F0.9999996076811415
sS'...XXX.OO'
p1254
I1
sS'OX..X.O.X'
p1255
F0.5
sS'O.X.OX..X'
p1256
I1
sS'XX.XO..OO'
p1257
F0.83616
sS'.O.XX..O.'
p1258
F1.0
sS'OXOX.OX.X'
p1259
F0.5
sS'XOOX.X.OX'
p1260
F0.5
sS'OO...X..X'
p1261
F0.9999999999999998
sS'XXOOXO.X.'
p1262
I1
sS'XX.XOOO.X'
p1263
F0.5
sS'XOOX.OXX.'
p1264
I1
sS'XOOOXXXXO'
p1265
F0.5
sS'...XX...O'
p1266
F0.5
sS'XXXO.XOO.'
p1267
I1
sS'O.O.XXX.O'
p1268
F0.9999999999999998
sS'OXOX.OX..'
p1269
F0.5
sS'.O.XX..OX'
p1270
F0.5
sS'XX.XO..O.'
p1271
F0.5
sS'O.X.OX...'
p1272
F0.9999999999999998
sS'OXOXXXOXO'
p1273
I1
sS'.OXX.XOXO'
p1274
F0.5
sS'..X..O.OX'
p1275
F0.5
sS'X..O.XOX.'
p1276
F0.5
sS'.XOOOX.XX'
p1277
F0.5
sS'.XXXOO...'
p1278
F0.5
sS'XOX..XXOO'
p1279
F0.5
sS'XOXO..X.O'
p1280
F1.0
sS'OO..XOXXX'
p1281
I1
sS'..XOOX.X.'
p1282
F0.5
sS'O.XX..X.O'
p1283
F0.5
sS'OOOXXO.XX'
p1284
F0.0
sS'X.XXXOOO.'
p1285
F0.5
sS'O.XO.OXX.'
p1286
F0.9999993870017836
sS'XOX.O.OX.'
p1287
F0.5
sS'XOX.O.OXX'
p1288
F0.5
sS'XOXO..X..'
p1289
F0.5
sS'O.XO.OXXX'
p1290
I1
sS'..XOOX.XO'
p1291
F0.5
sS'OXX.OXXO.'
p1292
F0.5
sS'X.XXXOOOO'
p1293
F0.0
sS'OO..XOXX.'
p1294
F0.6799999999999999
sS'...OXXO..'
p1295
F0.5
sS'.XOOOX.X.'
p1296
F0.5
sS'X..O.XOXO'
p1297
F0.5
sS'.OOXXOOXX'
p1298
F0.9999999990514313
sS'.XXXOO..O'
p1299
F0.744
sS'.OX.XOXOX'
p1300
I1
sS'X.OX.O...'
p1301
F0.9999999999999998
sS'OXX.O..XO'
p1302
F0.0
sS'X.OO.OXXX'
p1303
I1
sS'.OX...X..'
p1304
F0.5
sS'O.XX.O..X'
p1305
F0.5
sS'.X.X.OX.O'
p1306
F0.5
sS'....O.XXO'
p1307
F0.5
sS'X..O..X.O'
p1308
F0.5
sS'...XO.OX.'
p1309
F0.5
sS'X.O..OXOX'
p1310
F0.9999999999990605
sS'.O......X'
p1311
F0.5
sS'...X.O.X.'
p1312
F0.5
sS'..XXO.OOX'
p1313
F0.868928
sS'X..O..X..'
p1314
F0.5
sS'...X.O.XO'
p1315
F0.5
sS'.X....OOX'
p1316
F0.5
sS'...XO..OX'
p1317
F0.5
sS'OXOO...XX'
p1318
F0.9999999999999736
sS'OOOX...XX'
p1319
F0.0
sS'.O.XOOX.X'
p1320
F0.9999727774106463
sS'O.XX.O...'
p1321
F0.5
sS'OXX.O..X.'
p1322
F0.5
sS'.OX...X.O'
p1323
F0.9942353924769658
sS'O.XOX.X..'
p1324
I1
sS'X.OO.OXX.'
p1325
F0.9996830873499429
sS'.OOOX.XXX'
p1326
I1
sS'...OO.X.X'
p1327
F0.744
sS'....O.XX.'
p1328
F0.5
sS'X.OX.O..X'
p1329
F0.5
sS'XOX..X.O.'
p1330
F0.5
sS'OX..OXOXX'
p1331
F0.5
sS'.OX.....X'
p1332
F0.5
sS'XOX.X.O..'
p1333
F0.5
sS'...XXOOXO'
p1334
F0.97800976744448
sS'XOXX...OO'
p1335
F0.9999999999999998
sS'O.O.XXXXO'
p1336
F0.5
sS'X.X.OX..O'
p1337
F0.5
sS'XOX.OOXX.'
p1338
F0.5
sS'XOX.X.O.O'
p1339
F0.5
sS'...XXOOX.'
p1340
F0.5
sS'XOXX...O.'
p1341
F0.5
sS'.XOXXX.OO'
p1342
I1
sS'.OX......'
p1343
F0.5
sS'..XOO.OXX'
p1344
F0.6
sS'OX..OXOX.'
p1345
F0.5
sS'.O.XXOXXO'
p1346
F0.5
sS'XOX..X.OO'
p1347
F0.5
sS'O...XX.XO'
p1348
F0.5
sS'O.X.OXX.O'
p1349
F0.0
sS'.OO.X...X'
p1350
F1.0
sS'OO.XX.X..'
p1351
F0.5
sS'OX...OOXX'
p1352
F0.9976388167585652
sS'OO.OXX..X'
p1353
F0.9999999999829121
sS'..O.XOOXX'
p1354
F0.9328911360000001
sS'OXXOO.XOX'
p1355
F1.0
sS'OX.XOXO..'
p1356
F0.5
sS'OX.OXO.XX'
p1357
I1
sS'.X.X..O.O'
p1358
F0.5
sS'.O..XXOX.'
p1359
F0.5
sS'XO.XOO..X'
p1360
F0.9999998393061956
sS'OX.XOXO.X'
p1361
F0.5
sS'O.X.OXX..'
p1362
F0.5
sS'...X.XOXO'
p1363
F0.5
sS'OO.XX.X.O'
p1364
F0.7952
sS'X..X.X.OO'
p1365
F0.5
sS'O..X..XXO'
p1366
F0.5
sS'.XX..OO..'
p1367
F0.9999169232502634
sS'XX.OO.O.X'
p1368
F0.6799999999999999
sS'OXOXXOXO.'
p1369
F0.5
sS'XXO.XXOO.'
p1370
F0.5
sS'.XO..XXO.'
p1371
F0.5
sS'.XXO.XOXO'
p1372
F0.5
sS'X.O....OX'
p1373
F0.9999999999999998
sS'XXO.XXOOO'
p1374
F0.0
sS'.XO..XXOO'
p1375
F0.5
sS'.XX..OO.X'
p1376
F0.5
sS'.XO...XXO'
p1377
F0.5
sS'..O.O.X.X'
p1378
F0.9995048239842859
sS'XX..OXOO.'
p1379
F0.6
sS'XOXX.OOOX'
p1380
F1.0
sS'..XXX.OO.'
p1381
F0.5
sS'.XXOXO.OX'
p1382
F0.5
sS'OX.X.O.OX'
p1383
F0.5
sS'..OX.X.XO'
p1384
F0.5
sS'OX.O..XX.'
p1385
F0.5
sS'XOXXOX..O'
p1386
F0.5
sS'O..XXOOXX'
p1387
F0.5
sS'O..XX.OOX'
p1388
F1.0
sS'.OOX..XOX'
p1389
F0.868928
sS'XO.X.OXOX'
p1390
I1
sS'OX..XXXOO'
p1391
F0.5
sS'..XXX.OOO'
p1392
F0.0
sS'XX..OXOOX'
p1393
F0.5
sS'OX.O..XXO'
p1394
F1.0
sS'.OXXXOXO.'
p1395
I1
sS'.XXOXO.O.'
p1396
F0.8951424
sS'O.O.XX..X'
p1397
F0.5
sS'.OXXXX.OO'
p1398
I1
sS'O.X.XOX..'
p1399
I1
sS'....OX.X.'
p1400
F0.5
sS'XOXXOXOXO'
p1401
F0.5
sS'XOOXOXX..'
p1402
I1
sS'XX..OOX..'
p1403
F0.5
sS'..X.OXOXO'
p1404
F0.5
sS'...X..XOO'
p1405
F0.868928
sS'XXOXO.XO.'
p1406
I1
sS'XO..OX.OX'
p1407
F0.0
sS'..XX..OO.'
p1408
F0.5
sS'...XOX..O'
p1409
F0.5
sS'XX..OOX.O'
p1410
F0.8951424
sS'...X..XO.'
p1411
F0.5
sS'..X.OXOX.'
p1412
F0.5
sS'.O.XX.OOX'
p1413
F1.0
sS'..XX..OOX'
p1414
F0.5
sS'OX.XXOX.O'
p1415
F0.5
sS'XO.OXO.X.'
p1416
F0.965640261632
sS'...XOX...'
p1417
F0.5
sS'O.O.XX...'
p1418
F1.0
sS'OX.O.XXXO'
p1419
F0.5
sS'.XO.X.OOX'
p1420
F1.0
sS'....OX.XO'
p1421
F0.5
sS'OXOX...OX'
p1422
F0.5
sS'OOXXX.O..'
p1423
F0.9999999999999587
sS'XXO.O.X.O'
p1424
F1.0
sS'O.XXO...X'
p1425
F0.5
sS'.XOX.OXO.'
p1426
F0.9996830873499429
sS'..O...OXX'
p1427
F0.5
sS'OXXXXOXOO'
p1428
I1
sS'.XO.XOXO.'
p1429
F0.5
sS'.X.OOX.X.'
p1430
F0.5
sS'XOX.OOXOX'
p1431
F0.0
sS'OX.OX.O.X'
p1432
F0.0
sS'XXX.O.OOX'
p1433
I1
sS'XXOO.OXOX'
p1434
F1.0
sS'.X.OOX.XO'
p1435
F0.5
sS'X.XOO..XO'
p1436
F0.9999963106511853
sS'.XOX.OXOX'
p1437
F0.5
sS'XXO.O.X..'
p1438
F0.5
sS'XX.XXOO.O'
p1439
F0.5
sS'O.XXO....'
p1440
F0.5
sS'XXXO.OXO.'
p1441
I1
sS'....OXXOX'
p1442
F0.5
sS'..XXO....'
p1443
F0.5
sS'XOX.X..OO'
p1444
F0.9999999999999998
sS'OO.X.XO.X'
p1445
F1.0
sS'OXX...O..'
p1446
F0.5
sS'.OOXOXXOX'
p1447
F0.0
sS'XOXO.X.XO'
p1448
F0.5
sS'.XOXXO...'
p1449
F0.5
sS'.X.O.OXXO'
p1450
F0.83616
sS'OXX...O.X'
p1451
F0.5
sS'.XOXXO..O'
p1452
F0.0
sS'.X..X...O'
p1453
F0.5
sS'OXOXOX.OX'
p1454
F0.5
sS'....OXXO.'
p1455
F0.5
sS'XXOOOXXXO'
p1456
F0.5
sS'..XXO...O'
p1457
F0.5
sS'XOX.X..O.'
p1458
F0.5
sS'XXO.O...X'
p1459
F0.5
sS'.XOO.XOX.'
p1460
F0.7952
sS'XOXO...X.'
p1461
F0.5
sS'.XXO.O...'
p1462
F0.9909928007452591
sS'.OXOX..X.'
p1463
F0.5
sS'XO..XOOX.'
p1464
F1.0
sS'.OXOX..XO'
p1465
F1.0
sS'.O.X.XX.O'
p1466
F0.5
sS'X.XOXOX.O'
p1467
I1
sS'OXX.X...O'
p1468
F0.5
sS'.XXO.O..X'
p1469
F0.5
sS'.XOO.XOXX'
p1470
F0.5
sS'.XOO..OXX'
p1471
F0.6799999999999999
sS'XOXO...XO'
p1472
F0.5
sS'XXO.O....'
p1473
F0.5
sS'XX.OOOXXO'
p1474
F0.0
sS'.XOX.O..X'
p1475
F0.5
sS'OXOOX..XX'
p1476
I1
sS'XX.OX..OO'
p1477
F0.9999999827456342
sS'...X.OXOX'
p1478
F0.5
sS'O.....XX.'
p1479
F0.5
sS'XOXXO.OX.'
p1480
F0.5
sS'..OX..OXX'
p1481
F0.5
sS'.O..OX.X.'
p1482
F0.5
sS'OX...XO.X'
p1483
F0.5
sS'OO.XXOXXO'
p1484
F0.5
sS'XOXXO.OXO'
p1485
F0.5
sS'OX...XO..'
p1486
F0.5
sS'OO.XO.X.X'
p1487
F0.9927942405962072
sS'.O..OX.XX'
p1488
F0.5
sS'O.OXXX.OX'
p1489
I1
sS'OO.XXOXX.'
p1490
F0.5
sS'..OX..OX.'
p1491
F0.5
sS'...X.OXO.'
p1492
F1.0
sS'XX.OX..O.'
p1493
F0.5
sS'O..XXOOX.'
p1494
F0.9927942405962072
sS'.X...XXOO'
p1495
F0.5
sS'.XOX.O...'
p1496
F0.5
sS'O...OXXXO'
p1497
F0.0
sS'.OXXXO...'
p1498
F0.5
sS'X.O.XXXOO'
p1499
F0.5
sS'..XX.OXO.'
p1500
F0.5
sS'.X.OX.OOX'
p1501
F0.9942353924769658
sS'..O.XX.XO'
p1502
F0.5
sS'.X..O..OX'
p1503
F0.5
sS'.O.XOXXO.'
p1504
F0.0
sS'O.X.X.OX.'
p1505
F0.5
sS'O.X..O.X.'
p1506
F0.5
sS'O.X..O.XX'
p1507
F0.5
sS'X.XOOOXXO'
p1508
F0.0
sS'X..XXOOOX'
p1509
I1
sS'O.X.X.OXO'
p1510
F0.9999942910092292
sS'O...OXXX.'
p1511
F0.5
sS'.OXXXO..O'
p1512
F0.9999999999999998
sS'..XX.OXOO'
p1513
F0.9999574647041348
sS'..XOOO.XX'
p1514
F0.0
sS'X.XXOOO.X'
p1515
F0.5
sS'..O.XOXOX'
p1516
F0.9999999971051978
sS'XOOXXOX..'
p1517
I1
sS'XOXO.OX..'
p1518
F1.0
sS'OX.XO....'
p1519
F0.5
sS'X.X.XOOXO'
p1520
F0.5
sS'.OXX..XO.'
p1521
F0.5
sS'X.XOX.OXO'
p1522
F0.5
sS'X.OXOO..X'
p1523
F0.9998701925785366
sS'X.OX..OOX'
p1524
F0.9328911360000001
sS'.OXX..XOO'
p1525
F0.9999999999999998
sS'OOX.OXXXO'
p1526
F0.0
sS'XOXO.OX.X'
p1527
F0.5
sS'OX.XO...X'
p1528
F0.5
sS'OXO...OXX'
p1529
F0.9999999999999891
sS'XXX...OO.'
p1530
I1
sS'X.XXOOO..'
p1531
F0.9999999988142891
sS'XOXXOOO.X'
p1532
F0.5
sS'XO.XOX.XO'
p1533
F0.5
sS'XX.O.OOXX'
p1534
F0.5
sS'.OX.X...O'
p1535
F1.0
sS'OOXXO.OXX'
p1536
F0.8951424
sS'XXOO.X.OX'
p1537
F0.5
sS'O...XXX.O'
p1538
F0.5
sS'OX.XOOOXX'
p1539
F0.5
sS'XOOX.OX.X'
p1540
I1
sS'.XXX.OOO.'
p1541
F0.6
sS'XXOOO.X..'
p1542
F0.5
sS'X.OOXXO..'
p1543
F0.9999574647041348
sS'O.XX..XO.'
p1544
F0.5
sS'..X.X.OO.'
p1545
F0.5
sS'X.OXXOO..'
p1546
F0.9999999999999998
sS'..XO.O.X.'
p1547
F0.5
sS'..X.X.OOX'
p1548
F0.5
sS'X.OXXOO.X'
p1549
I1
sS'..XO.O.XX'
p1550
F0.5
sS'X.OOXXO.X'
p1551
I1
sS'.OX.XOX..'
p1552
I1
sS'.XXX.OOOX'
p1553
F0.5
sS'.OX.X....'
p1554
F0.5
sS'OXX.XOOOX'
p1555
F0.5
sS'..OOX.XOX'
p1556
F0.9999910797019206
sS'..OXX..XO'
p1557
F0.5
sS'XXOO.X.O.'
p1558
F0.5
sS'OX..O.XXO'
p1559
F0.0
sS'XX.OXOO..'
p1560
F0.5
sS'O..OX.XXO'
p1561
F0.9927942405962072
sS'OX..X....'
p1562
F0.5
sS'O..X....X'
p1563
F0.5
sS'O..XOXX..'
p1564
F0.5
sS'X.O...X..'
p1565
F0.5
sS'XOX.O.O.X'
p1566
F1.0
sS'.OX.XXOO.'
p1567
F1.0
sS'.X.XOO.OX'
p1568
F0.5
sS'O.X.X.O.X'
p1569
F0.5
sS'XO.OXOXX.'
p1570
F0.5
sS'......OXX'
p1571
F0.5
sS'..O..O.XX'
p1572
F0.965640261632
sS'......OX.'
p1573
F0.5
sS'O.X.X.O..'
p1574
F0.5
sS'XO.OXOXXO'
p1575
F0.9999999999999998
sS'.OX.XXOOX'
p1576
I1
sS'O..OX.XX.'
p1577
F0.5
sS'XO...OOXX'
p1578
F0.9993810299803573
sS'O..X.....'
p1579
F0.5
sS'O..XOXX.O'
p1580
F0.0
sS'XX.OXOO.X'
p1581
I1
sS'X.O...X.O'
p1582
F0.9999999999999998
sS'O.OXOXOXX'
p1583
F0.0
sS'OXOX..OX.'
p1584
F0.97800976744448
sS'O.XXX.O..'
p1585
F0.5
sS'..XO.....'
p1586
F0.5
sS'X...O..XO'
p1587
F0.5
sS'O.OXX.XXO'
p1588
F0.5
sS'OXXOOXXO.'
p1589
F0.9999910797019206
sS'.XO..XOXO'
p1590
F0.91611392
sS'OXO.OXXXO'
p1591
F0.0
sS'OOXOX..X.'
p1592
F0.91611392
sS'...O...XX'
p1593
F0.5
sS'.X.OO.OXX'
p1594
F0.5
sS'XX.OOXOX.'
p1595
F0.5
sS'..X..OOXX'
p1596
F0.5
sS'OXXX.OO.X'
p1597
F0.5
sS'.O.XOOXXX'
p1598
I1
sS'XXOOX..XO'
p1599
I1
sS'.O.XOOXX.'
p1600
F0.97800976744448
sS'.XO..XOX.'
p1601
F0.5
sS'OXXX.OO..'
p1602
F0.5
sS'..X..OOX.'
p1603
F0.5
sS'XX.O..X.O'
p1604
F0.5
sS'XX.OOXOXO'
p1605
F1.0
sS'OOXOX..XX'
p1606
F0.5
sS'.OX....OX'
p1607
F1.0
sS'XOXO..XXO'
p1608
F0.5
sS'XX.OOO.X.'
p1609
F0.0
sS'O.XXX.O.O'
p1610
F0.9999928637615365
sS'OXXOOXXOX'
p1611
I1
sS'X...O..X.'
p1612
F0.5
sS'..XO....X'
p1613
F0.5
sS'OXOX..OXX'
p1614
F0.5
sS'X..O.X..O'
p1615
F0.5
sS'.OXO.X.X.'
p1616
F0.5
sS'OX...X.XO'
p1617
F0.5
sS'OXOX.XOXO'
p1618
F0.5
sS'OXXO..XOX'
p1619
F0.5
sS'O.X..X.OX'
p1620
I1
sS'XOOX..OXX'
p1621
F0.5
sS'.OO..XXXO'
p1622
F0.5
sS'.XOOXX.XO'
p1623
I1
sS'XX.XOOX.O'
p1624
I1
sS'XOOX..OX.'
p1625
F0.5
sS'O.X..X.O.'
p1626
F0.9999999999999998
sS'.OO..XXX.'
p1627
F0.5
sS'X..O.X...'
p1628
F0.5
sS'.OXO.X.XO'
p1629
F0.5
sS'.X.OXO.X.'
p1630
I1
sS'OXXO..XO.'
p1631
F0.9999999999999998
sS'OXOX.XOX.'
p1632
F0.5
sS'X.OXOXO..'
p1633
F0.0
sS'XO.X.O.X.'
p1634
F0.5
sS'.O..XX.O.'
p1635
F0.9999999999999998
sS'O..XO.XX.'
p1636
F0.5
sS'..OXO.XX.'
p1637
F0.5
sS'.OOXOX.X.'
p1638
F0.5
sS'OX....XO.'
p1639
F0.5
sS'.X.XOOOXX'
p1640
F0.5
sS'OXO..X.OX'
p1641
F0.5
sS'XOXOXX.O.'
p1642
F0.5
sS'X..OO...X'
p1643
F0.5
sS'.OXXXOX.O'
p1644
I1
sS'XOXOXXOOX'
p1645
I1
sS'XOXOXXOO.'
p1646
F0.5
sS'XOXOXX.OO'
p1647
F0.9999999999999999
sS'.XO.O...X'
p1648
F0.5
sS'.X.XOOOX.'
p1649
F0.5
sS'XO.X.O.XO'
p1650
F0.9859262511644672
sS'XXXX.O.OO'
p1651
I1
sS'O..XO.XXO'
p1652
F0.0
sS'..OXO.XXO'
p1653
F0.9992262874754466
sS'XXOO.O..X'
p1654
F1.0
sS'OX....XOX'
p1655
F0.5
sS'.O..XX.OX'
p1656
F0.5
sS'XX.OO.XXO'
p1657
F0.5
sS'XOOXO...X'
p1658
F0.6799999999999999
sS'....OXO.X'
p1659
F1.0
sS'.XX.O.OXO'
p1660
F0.9999999999999805
sS'O.O..X.XX'
p1661
F0.5
sS'OXXO.X.OX'
p1662
I1
sS'.X...O.OX'
p1663
F0.5
sS'OX.X..O..'
p1664
F0.5
sS'..XO.XO..'
p1665
F0.9942353924769658
sS'..OO.XOXX'
p1666
F0.5
sS'.XO.X.O.X'
p1667
F0.5
sS'X..OXXOO.'
p1668
F0.999999999999803
sS'.OXOXXOX.'
p1669
F0.5
sS'.XX.X.OO.'
p1670
F0.5
sS'O..O.X..X'
p1671
F0.9999999999999998
sS'.OXOXXOXO'
p1672
F0.5
sS'.XX.X.OOO'
p1673
F0.0
sS'XO...X.XO'
p1674
F0.5
sS'.XOO..XOX'
p1675
F0.5
sS'..XO.XO.X'
p1676
I1
sS'.XX.O.OX.'
p1677
F0.5
sS'.XO.X.O..'
p1678
F0.9999825775428136
sS'OXXO.X.O.'
p1679
F1.0
sS'O.O..X.X.'
p1680
F0.5
sS'XX..X..OO'
p1681
F0.5
sS'.OXOXO.XX'
p1682
F0.5
sS'O.OXXOX.X'
p1683
F0.5
sS'X.O...OX.'
p1684
F0.5
sS'.XXO....O'
p1685
F1.0
sS'OXOX....X'
p1686
F0.5
sS'X.OOOXX.X'
p1687
F0.5
sS'X...O....'
p1688
F0.5
sS'XX...OOXO'
p1689
F1.0
sS'...XOX.O.'
p1690
F0.5
sS'...XOX.OX'
p1691
F0.5
sS'..OOXX.XO'
p1692
F0.9999999999999998
sS'X...O...X'
p1693
F0.5
sS'OXOX.....'
p1694
F0.5
sS'XX...OOX.'
p1695
F0.5
sS'XXOO.XX.O'
p1696
F0.5
sS'X.O...OXX'
p1697
F0.5
sS'OXOO..XXX'
p1698
I1
sS'XXXOXO.O.'
p1699
I1
sS'XOO.O..XX'
p1700
F0.744
sS'.XXO.....'
p1701
F0.5
sS'.OXOXO.X.'
p1702
F0.6
sS'...XX..O.'
p1703
F0.5
sS'X..OO.X..'
p1704
F0.5
sS'X.X.XO.OO'
p1705
F0.9999999999999831
sS'.XO.O..XX'
p1706
F0.5
sS'.O.XX...O'
p1707
F1.0
sS'OXX..O...'
p1708
F0.5
sS'.XOXO....'
p1709
F0.5
sS'OX.X.OXXO'
p1710
F0.5
sS'OXX.XO.O.'
p1711
F0.9999999999999931
sS'.OXOX...X'
p1712
F0.5
sS'XXOOXX.OO'
p1713
F0.5
sS'XXOXOO.X.'
p1714
F0.5
sS'XOOXOOXXX'
p1715
I1
sS'...OXOOXX'
p1716
F0.7952
sS'.OXOX....'
p1717
F1.0
sS'...X.OXXO'
p1718
F0.5
sS'XXOOXX.O.'
p1719
F0.5
sS'XXOXOO.XO'
p1720
F0.0
sS'OXX.XO.OX'
p1721
F0.5
sS'.XOXO...X'
p1722
F0.5
sS'OXX..O..X'
p1723
F0.5
sS'XOOX..O.X'
p1724
F0.9999999999348148
sS'X.X.XO.O.'
p1725
F0.5
sS'.O.XX....'
p1726
F0.5
sS'.XO.O..X.'
p1727
F0.5
sS'XOOXO.OXX'
p1728
F0.0
sS'..X.OXO..'
p1729
F0.9999999999999998
sS'XO.O.OX.X'
p1730
F0.9999999999999996
sS'.XO.OX.X.'
p1731
F0.5
sS'X.X..XOO.'
p1732
F0.5
sS'.XO..X..O'
p1733
F0.5
sS'X.OXX.OOX'
p1734
I1
sS'.XOOX..OX'
p1735
F0.9859262511644672
sS'XOOX.X...'
p1736
F0.5
sS'XXO.OOXX.'
p1737
F0.5
sS'X.X.OXOO.'
p1738
F0.91611392
sS'O.X....XO'
p1739
F0.5
sS'OOX..X.X.'
p1740
F0.5
sS'XOOX.X..O'
p1741
F1.0
sS'XXO.OOXXO'
p1742
F0.0
sS'OXOXXOOXX'
p1743
I1
sS'O.X....X.'
p1744
F0.5
sS'OOX..X.XO'
p1745
F0.5
sS'..X..OXXO'
p1746
F0.5
sS'X.X.OXOOX'
p1747
I1
sS'..X.OXO.X'
p1748
I1
sS'XO..XXO..'
p1749
F0.5
sS'.XO.OX.XO'
p1750
F0.5
sS'XXOOO.OXX'
p1751
F0.0
sS'X.X..XOOO'
p1752
F0.0
sS'.XO..X...'
p1753
F0.5
sS'X.OX.O.OX'
p1754
F0.9997971759039634
sS'XXO.OXXOO'
p1755
F1.0
sS'XX.OOOX..'
p1756
F0.0
sS'X...XOO..'
p1757
F0.9999999999999998
sS'.OOX.X.X.'
p1758
F0.5
sS'XXOOOXX.O'
p1759
F0.5
sS'O.X..O..X'
p1760
F0.5
sS'.X.OX.XO.'
p1761
F0.5
sS'XOXX..O..'
p1762
F0.5
sS'OXXXOOXOX'
p1763
F0.5
sS'X..OOOX.X'
p1764
F0.0
sS'.......OX'
p1765
F0.5
sS'..OX.OXOX'
p1766
F0.9999999999863297
sS'OXXXOOXO.'
p1767
F0.5
sS'O..OXO.XX'
p1768
F0.9997464698799543
sS'.X.OX.XOO'
p1769
F0.9999999578750833
sS'XOXX..O.O'
p1770
F0.5
sS'XXO.OXXO.'
p1771
F0.5
sS'OXOOX...X'
p1772
F0.9984888427254818
sS'X...XOO.X'
p1773
I1
sS'.X....O.X'
p1774
F0.5
sS'.OOX.X.XO'
p1775
F0.9999999999999831
sS'OX.OOX.XX'
p1776
F0.5
sS'..O.XXXO.'
p1777
F0.5
sS'X.O.X..XO'
p1778
F0.5
sS'O....XOX.'
p1779
F0.5
sS'.XXX...OO'
p1780
F0.5
sS'XOX..X..O'
p1781
F0.5
sS'X.OX...O.'
p1782
F0.9997971759039634
sS'XOX.X.OXO'
p1783
F0.5
sS'XX.OOXXOO'
p1784
F1.0
sS'.OXX.OOX.'
p1785
F0.5
sS'XX..X.OO.'
p1786
F0.5
sS'.OXOOXX.X'
p1787
I1
sS'XXOOXXOXO'
p1788
I1
sS'.OXX.OOXX'
p1789
F0.5
sS'.OXOOXX..'
p1790
F0.97800976744448
sS'XX.OOXXO.'
p1791
F0.5
sS'XX..X.OOO'
p1792
F0.0
sS'..O.XXXOO'
p1793
F1.0
sS'X.OX...OX'
p1794
F0.5
sS'X.O..XXOO'
p1795
F1.0
sS'OX.OOX.X.'
p1796
F0.5
sS'O....XOXX'
p1797
F0.5
sS'XOXO..O.X'
p1798
F1.0
sS'XXXOXOOOX'
p1799
I1
sS'.X..O.XO.'
p1800
F0.5
sS'O.OXXXO.X'
p1801
I1
sS'..XX.OOXO'
p1802
F0.5
sS'.XXOO.X.O'
p1803
F0.9976388167585652
sS'OXOXXO..X'
p1804
F0.5
sS'.OXX..O.X'
p1805
F0.5
sS'.XXX.O.O.'
p1806
F0.5
sS'.XOOX.OXX'
p1807
I1
sS'....X.XO.'
p1808
F0.5
sS'..XOXO.XO'
p1809
F0.868928
sS'O.....X.X'
p1810
F0.5
sS'..O.XOX.X'
p1811
F0.5
sS'O..X..OX.'
p1812
F0.5
sS'O.....X..'
p1813
F0.5
sS'OOXXO.XX.'
p1814
F0.5
sS'XOO.OX..X'
p1815
F0.5
sS'O..X..OXX'
p1816
F0.5
sS'....X.XOO'
p1817
F0.9999999999999998
sS'..XOXO.X.'
p1818
F0.5
sS'OXO..XXXO'
p1819
F0.5
sS'..XX.OOX.'
p1820
F0.5
sS'.OXX..O..'
p1821
F0.5
sS'OOX.XOOXX'
p1822
F0.5
sS'.X..O.XOX'
p1823
F0.5
sS'O.O.XOXX.'
p1824
F0.5
sS'OX.O.XOX.'
p1825
F0.0
sS'.XXX.O.OO'
p1826
F0.6799999999999999
sS'XOX..O.XO'
p1827
F0.5
sS'OX...O.XX'
p1828
F0.5
sS'...XOO..X'
p1829
F0.5
sS'OXOX..X..'
p1830
F0.5
sS'OXXOO..X.'
p1831
F0.5
sS'X..XOO.OX'
p1832
F0.9999928637615365
sS'OXOXXOX..'
p1833
F0.5
sS'.OX.X..OX'
p1834
F0.5
sS'O.XO..XX.'
p1835
F0.5
sS'XXOO.X..O'
p1836
F0.5
sS'X...O.X.O'
p1837
F0.9999999999999998
sS'X..O.O.XX'
p1838
F0.5
sS'OXOX.XX.O'
p1839
F0.5
sS'.OX.X..O.'
p1840
F1.0
sS'.OXO.XXXO'
p1841
F0.5
sS'O.XO..XXO'
p1842
F0.9999992337522295
sS'XXOO.X...'
p1843
F0.5
sS'X...O.X..'
p1844
F0.5
sS'XOX..O.X.'
p1845
F0.5
sS'OXOX..X.O'
p1846
F0.5
sS'OXOXXOX.O'
p1847
F0.0
sS'OXXOO..XX'
p1848
F0.5
sS'.XO..XX.O'
p1849
F0.5
sS'.O.OXO.XX'
p1850
F0.9990328593443083
sS'..XO..XXO'
p1851
F0.5
sS'..XXOXOO.'
p1852
F0.6799999999999999
sS'XXO..X..O'
p1853
F0.5
sS'.XX.OXXOO'
p1854
F0.5
sS'..OOOX.XX'
p1855
F0.91611392
sS'XO..OXX.O'
p1856
F1.0
sS'..OX.OOXX'
p1857
F0.5
sS'O..X.XOX.'
p1858
F0.5
sS'X.XOOXO.X'
p1859
I1
sS'..OXXOOX.'
p1860
F0.9984888427254818
sS'..OXO..X.'
p1861
F0.5
sS'X.XOX...O'
p1862
F0.5
sS'XOOOXXXO.'
p1863
F1.0
sS'X.X.OOO.X'
p1864
F0.9999999730400534
sS'XOOOXXXOX'
p1865
I1
sS'XO.O..OXX'
p1866
F1.0
sS'..OXXOOXX'
p1867
F0.5
sS'..OXO..XX'
p1868
F0.5
sS'X.XOOXO..'
p1869
F0.9999825775428136
sS'XO..OXX..'
p1870
F0.5
sS'O..X.XOXO'
p1871
F0.95705032704
sS'X.O.O.XX.'
p1872
F0.5
sS'OO.OXXX.X'
p1873
F0.5
sS'X.OXXOOXO'
p1874
F0.0
sS'XOOX.XOOX'
p1875
F0.5
sS'.XXXXOO.O'
p1876
F0.5
sS'XOX.XX.OO'
p1877
F0.5
sS'..X....O.'
p1878
F0.5
sS'..XO...OX'
p1879
F1.0
sS'X..X...OO'
p1880
F0.9999999999999998
sS'X.X.X.O.O'
p1881
F0.5
sS'OX.XXOXO.'
p1882
F0.5
sS'OXXOOXOX.'
p1883
F0.0
sS'.XOO.OXXX'
p1884
I1
sS'XX..OOXXO'
p1885
F0.5
sS'XX..O....'
p1886
F0.5
sS'.OXOXXXO.'
p1887
I1
sS'OOX..XXOX'
p1888
I1
sS'OXOXOOX.X'
p1889
F1.0
sS'XX..O...O'
p1890
F0.9999999999999998
sS'OOX..XXO.'
p1891
F0.9970485209482065
sS'XOXXOX.OO'
p1892
F0.0
sS'OXX.O.OXX'
p1893
F0.5
sS'.XOO.OXX.'
p1894
F0.9463129088000001
sS'XOXXXOOOX'
p1895
I1
sS'..X....OX'
p1896
F0.5
sS'X.OXXOOX.'
p1897
F0.5
sS'..XXOX..O'
p1898
F0.5
sS'OO.OXXX..'
p1899
F0.9887410009315738
sS'..X.O..X.'
p1900
F0.5
sS'X..X...O.'
p1901
F0.5
sS'OX.XXOXOO'
p1902
F0.9999999963814973
sS'XX.O.O.XO'
p1903
F0.9909928007452591
sS'XX.XXOOOO'
p1904
F0.0
sS'O..OOX.XX'
p1905
F0.9999992337522295
sS'..OXOXOX.'
p1906
F0.0
sS'XXO.OX...'
p1907
F0.5
sS'X..OOXOX.'
p1908
F0.5
sS'X..O.X.OX'
p1909
F0.5
sS'XO..XOXXO'
p1910
F0.5
sS'X..O.X.O.'
p1911
F0.5
sS'.XOO.O.XX'
p1912
F1.0
sS'XXO.OX..O'
p1913
F0.5
sS'OXXX.OOOX'
p1914
F0.5
sS'X..OOXOXX'
p1915
F0.5
sS'O.XOXX.XO'
p1916
F0.5
sS'XX.O.O.X.'
p1917
F0.5
sS'OX.XXOO..'
p1918
F0.9999860620342509
sS'XX.XXOOO.'
p1919
F0.5
sS'XO.XO.O.X'
p1920
F0.5
sS'.OX..XOX.'
p1921
F0.5
sS'X.....OXO'
p1922
F0.5
sS'OX.X.O.XO'
p1923
F0.9999999999999998
sS'.XOXXO.O.'
p1924
F0.5
sS'.X..X..O.'
p1925
F0.5
sS'X.OX..X.O'
p1926
I1
sS'.XXOXO.XO'
p1927
I1
sS'OX...XXO.'
p1928
F0.5
sS'XXOOX.O.X'
p1929
I1
sS'OX...XXOO'
p1930
F0.5
sS'XO.X.OXXO'
p1931
I1
sS'XOX....XO'
p1932
F0.5
sS'OX.O.OX.X'
p1933
F0.9996038591874287
sS'XXOOX.O..'
p1934
F0.9999999999999977
sS'..OX.O.XX'
p1935
F0.5
sS'X.....OX.'
p1936
F0.5
sS'.OOXOXX.X'
p1937
F0.5
sS'OX.X.O.X.'
p1938
F0.5
sS'OXXOXO.OX'
p1939
F0.9999999999863297
sS'OXX...OOX'
p1940
F0.9328911360000001
sS'.X..X..OO'
p1941
F0.5
sS'.XOXOO..X'
p1942
F0.5
sS'..XOOXOXX'
p1943
I1
sS'.XOOXXO.X'
p1944
F0.5
sS'OO.XXO.XX'
p1945
F0.5
sS'X.XX.OOOX'
p1946
F0.5
sS'....XOXXO'
p1947
F0.5
sS'..OX.XXO.'
p1948
F0.5
sS'XOOXX.O.X'
p1949
I1
sS'.O.XX.OX.'
p1950
F0.5
sS'XOXXOXOO.'
p1951
F0.0
sS'XOOXX.O..'
p1952
F0.9999999999999998
sS'X.X.OOXXO'
p1953
F0.5
sS'.XOOXXO..'
p1954
F0.8951424
sS'..OX.XXOO'
p1955
F1.0
sS'X.XX.OOO.'
p1956
F0.9992262874754466
sS'XO..OOXX.'
p1957
F0.9725122093056
sS'OO.XXO.X.'
p1958
F0.5
sS'.O.XX.OXO'
p1959
F0.9997971759039634
sS'OX.X.OO.X'
p1960
F0.5
sS'.OX.O.XX.'
p1961
F0.5
sS'OO..X.X..'
p1962
F0.9999999861965073
sS'O.O.X.XX.'
p1963
F0.5
sS'XOOX...OX'
p1964
F0.91611392
sS'.XXO...OX'
p1965
F0.5
sS'XOO..OX.X'
p1966
F0.5
sS'.XOX..O.X'
p1967
F0.5
sS'.O...XXXO'
p1968
F0.5
sS'.XOX..O..'
p1969
F0.5
sS'XX....XOO'
p1970
F0.5
sS'OO..X.X.X'
p1971
F0.5
sS'.OX.O.XXO'
p1972
F0.5
sS'O.O.X.XXO'
p1973
F0.9942353924769658
sS'XX..XOO..'
p1974
F0.5
sS'.OXXXO.OX'
p1975
F0.5
sS'OXX.OXXOO'
p1976
F0.0
sS'O.XOXOOXX'
p1977
F0.0
sS'OXOXXOO.X'
p1978
F0.9999996861449132
sS'XXX..OOOX'
p1979
I1
sS'.XX.O....'
p1980
F0.5
sS'O..X.X.OX'
p1981
F0.5
sS'OOXX.OOXX'
p1982
F0.5
sS'X.OXO..XO'
p1983
F0.8951424
sS'OXOXOXX..'
p1984
F0.5
sS'.XX.O...O'
p1985
F1.0
sS'X.O.XOOX.'
p1986
F1.0
sS'..X.X...O'
p1987
F0.5
sS'.OXXXO.O.'
p1988
F1.0
sS'X....X..O'
p1989
F0.5
sS'XO.OXXXOO'
p1990
F0.9999999999999998
sS'XX..XOO.O'
p1991
F0.5
sS'.O.XXXOXO'
p1992
I1
sS'O.XO.XXXO'
p1993
F0.5
sS'..XO.OOXX'
p1994
F0.5
sS'O.XX.OOXX'
p1995
F0.5
sS'..X..O.XO'
p1996
F0.5
sS'.XO..X.OX'
p1997
F0.5
sS'.OXX.OX..'
p1998
F0.5
sS'XX..OOOX.'
p1999
F0.9992262874754466
sS'..OO.XX.X'
p2000
F0.5
sS'.OOOX.X.X'
p2001
F0.999978221928517
sS'XX..OOOXX'
p2002
F0.5
sS'.OXX.OX.O'
p2003
F0.9999999999999998
sS'.XO..X.O.'
p2004
F0.5
sS'XXXO.OX.O'
p2005
I1
sS'..X.X.XOO'
p2006
I1
sS'O.XX.OOX.'
p2007
F0.5
sS'..X..O.X.'
p2008
F0.5
sS'XO.OOXX.X'
p2009
F0.5
sS'XX.OOOXOX'
p2010
F0.0
sS'OXX.XOO.X'
p2011
F0.5
sS'OXXOO...X'
p2012
F0.9999999999999998
sS'OOXOXOXXX'
p2013
I1
sS'XXO.OXX.O'
p2014
F0.5
sS'OOX.XXOXO'
p2015
F0.9999659717633078
sS'OO.XXOXOX'
p2016
F0.9999999999999998
sS'..XO.O..X'
p2017
F0.5
sS'OOX.XXOX.'
p2018
F0.5
sS'X.OXX.O.O'
p2019
F0.9999999999999998
sS'.XOXO.X..'
p2020
F0.5
sS'O.OXXX.XO'
p2021
I1
sS'OXX.XOO..'
p2022
F0.9999999981473267
sS'OO..XXXXO'
p2023
F0.5
sS'XOOOOXX.X'
p2024
F0.9859262511644672
sS'OX.X.X..O'
p2025
F0.5
sS'XO.OOXX..'
p2026
F0.5
sS'XX....OXO'
p2027
F0.5
sS'OXXX.O.XO'
p2028
F0.5
sS'...OXXXO.'
p2029
F0.5
sS'XOO..OXX.'
p2030
F0.97800976744448
sS'X.OO.XX..'
p2031
F0.5
sS'X.X.O.OOX'
p2032
F0.9999999730400534
sS'X.O.X.X.O'
p2033
F0.5
sS'X..OOX.OX'
p2034
F0.9999999999999998
sS'XOX.XO.OX'
p2035
I1
sS'..O.X..OX'
p2036
F1.0
sS'XOO..OXXX'
p2037
I1
sS'XXO...X.O'
p2038
F0.5
sS'...OXXXOO'
p2039
F0.9999999999999998
sS'X.OO.XX.O'
p2040
F0.5
sS'OX..X...O'
p2041
F1.0
sS'O..XX.XO.'
p2042
F0.5
sS'O.O.XOXXX'
p2043
I1
sS'.O..X.OX.'
p2044
F0.5
sS'.O..XXO..'
p2045
F0.9999999999999998
sS'X..O..OXX'
p2046
F0.5
sS'OXX.O...X'
p2047
F0.5
sS'.X.OOX..X'
p2048
F0.5
sS'O..X.OOXX'
p2049
F0.5
sS'XO..X.OX.'
p2050
F0.5
sS'.XOXOXOOX'
p2051
F0.0
sS'.OXXXOOOX'
p2052
F1.0
sS'XO..X.OXO'
p2053
F0.5
sS'O.OX.X.OX'
p2054
F0.9999997489159306
sS'.X.OOX...'
p2055
F0.5
sS'X..XOOXOX'
p2056
I1
sS'O..XX.XOO'
p2057
F0.9984888427254818
sS'....OO.XX'
p2058
F1.0
sS'OX.O.XO.X'
p2059
F0.0
sS'XXXX.OO.O'
p2060
I1
sS'OXOX.OOXX'
p2061
F0.9984888427254818
sS'XOXOO.XX.'
p2062
F0.5
sS'.O..XXO.X'
p2063
F0.5
sS'X.OOOXX..'
p2064
F0.5
sS'.O..X.OXX'
p2065
F0.5
sS'XOXO.XX.O'
p2066
F0.5
sS'...XOXOX.'
p2067
F0.5
sS'..OOX.XX.'
p2068
F0.5
sS'.OX.XOOX.'
p2069
F0.5
sS'XXOOO...X'
p2070
F0.5
sS'.XO.OXXO.'
p2071
F0.5
sS'XXOOOOX.X'
p2072
F0.0
sS'.O.O.X..X'
p2073
F0.9725122093056
sS'O.XX.OO.X'
p2074
F0.5
sS'X...X.OO.'
p2075
F0.9999999999999998
sS'..X.XO.XO'
p2076
F0.5
sS'.OX.XOOXX'
p2077
F0.5
sS'...XOXOXO'
p2078
F0.5
sS'..OOX.XXO'
p2079
F0.9987910741803854
sS'.XO.OXXOX'
p2080
F0.5
sS'XX.OOO..X'
p2081
F0.0
sS'OXX.OX...'
p2082
F0.5
sS'O.X..X...'
p2083
F0.5
sS'.X.X.O.O.'
p2084
F0.5
sS'OX.OOXXX.'
p2085
F0.5
sS'O.O..XOXX'
p2086
F0.5
sS'X..O...X.'
p2087
F0.5
sS'....XO.X.'
p2088
F0.5
sS'X..O...XO'
p2089
F0.5
sS'....XO.XO'
p2090
F0.9999999999999998
sS'OXX.OX..O'
p2091
F0.0
sS'.X.X.O.OX'
p2092
F0.5
sS'O.X..X..O'
p2093
F0.5
sS'XX.XOXO.O'
p2094
F0.5
sS'OX.OOXXXO'
p2095
F0.0
sS'OX.X..OOX'
p2096
F0.5
sS'X.OOOXOXX'
p2097
F0.0
sS'O....X..X'
p2098
F0.5
sS'X.XOO...X'
p2099
F0.5
sS'.OXXOXO..'
p2100
F0.9328911360000001
sS'OO.OXXXOX'
p2101
F0.5
sS'.XX.OXOXO'
p2102
F0.5
sS'X.O.O..X.'
p2103
F0.5
sS'.X.XOXOXO'
p2104
F0.5
sS'.XX..OXO.'
p2105
F0.5
sS'OX.OXXX.O'
p2106
F0.5
sS'X..X....O'
p2107
F0.5
sS'OX.OXOX.X'
p2108
F0.5
sS'O.X.X..XO'
p2109
F0.5
sS'OX.OXOX..'
p2110
F0.9999999999999998
sS'X.O.O..XX'
p2111
F0.5
sS'.XX..OXOO'
p2112
F0.9999999911657647
sS'O....X...'
p2113
F0.5
sS'.OXXOXO.X'
p2114
I1
sS'X.XOO....'
p2115
F1.0
sS'.X.XXOOOX'
p2116
F0.5
sS'XXOO.XXOO'
p2117
F0.5
sS'....OXX.O'
p2118
F0.5
sS'OX.XXO.XO'
p2119
I1
sS'OOX..XX..'
p2120
F0.5
sS'X.OXOXOXO'
p2121
F0.0
sS'..OX..O.X'
p2122
F0.5
sS'.O...X.OX'
p2123
F0.9999860620342509
sS'OOX..XX.O'
p2124
F0.965640261632
sS'XXOO.XXO.'
p2125
F0.5
sS'..XXOO.X.'
p2126
F0.5
sS'X.OOOX..X'
p2127
F0.5
sS'.X.XXOOO.'
p2128
F0.5
sS'X.....O..'
p2129
F0.5
sS'O.XO.OX.X'
p2130
F0.9999999999930008
sS'XOXO.X...'
p2131
F0.5
sS'X.XOXO.O.'
p2132
F0.5
sS'OX.XOO.X.'
p2133
F0.5
sS'..OX...XO'
p2134
F0.5
sS'.X.O.OXOX'
p2135
F0.5
sS'.....O.X.'
p2136
F0.5
sS'X.O.XX.O.'
p2137
F0.5
sS'..OX...X.'
p2138
F0.5
sS'OXO.XXO.X'
p2139
F0.5
sS'.O.XOX.OX'
p2140
F0.0
sS'.....O.XX'
p2141
F0.5
sS'OX.XOO.XX'
p2142
F0.5
sS'XOXO.X..O'
p2143
F0.5
sS'X.....O.X'
p2144
F0.5
sS'X.XOXO.OX'
p2145
I1
sS'X...OOOXX'
p2146
F0.5
sS'O.XXOO.XX'
p2147
F0.5
sS'OO.XX..OX'
p2148
F1.0
sS'.O.X..XO.'
p2149
F1.0
sS'O.OXX....'
p2150
F0.9999999999999998
sS'XOOXX..O.'
p2151
F0.5
sS'...XO.X.O'
p2152
F0.9328911360000001
sS'OOXO.X.XX'
p2153
I1
sS'XOOX.X.XO'
p2154
F0.5
sS'.....OXOX'
p2155
F0.5
sS'XO.XXX.OO'
p2156
I1
sS'.O.XXOOXX'
p2157
F0.5
sS'XXO.O..X.'
p2158
F0.5
sS'..XOXXOO.'
p2159
F0.9995048239842859
sS'XX.O.XOOX'
p2160
F0.5
sS'XO...X.O.'
p2161
F0.5
sS'OX.XXXOO.'
p2162
I1
sS'.OXO..OXX'
p2163
F0.744
sS'.OXOXOOXX'
p2164
F0.9997971759039634
sS'XX.O.XOO.'
p2165
F1.0
sS'XO...X.OX'
p2166
F0.5
sS'XX.O.OO.X'
p2167
F0.8951424
sS'..XOXXOOX'
p2168
I1
sS'.OXOX..OX'
p2169
F0.5
sS'XXO.O..XO'
p2170
F0.5
sS'X.OXX..OO'
p2171
F0.5
sS'OX..XOX..'
p2172
F0.5
sS'...XO.X..'
p2173
F0.5
sS'O.OXX...X'
p2174
F0.5
sS'.O.X..XOX'
p2175
F0.5
sS'O.XXOO.X.'
p2176
F0.5
sS'OOXO.X.X.'
p2177
F1.0
sS'XOOXX..OX'
p2178
I1
sS'O.X..XX.O'
p2179
F0.5
sS'OX.X...O.'
p2180
F0.5
sS'..XXOO.XO'
p2181
F0.5
sS'XOXX..OO.'
p2182
F0.5
sS'.XXXO...O'
p2183
F0.5
sS'..OO.XXX.'
p2184
F0.5
sS'.OXO.OX.X'
p2185
F0.9992262874754466
sS'OO.O.X.XX'
p2186
F0.83616
sS'X..O.OXOX'
p2187
F0.9999999999992484
sS'..OO.XXXO'
p2188
F0.5
sS'X....O.OX'
p2189
F0.9999999999999998
sS'XOOXXXXOO'
p2190
I1
sS'X.O.OOX.X'
p2191
F0.9990328593443083
sS'...X.O.OX'
p2192
F0.5
sS'XXOX.XO.O'
p2193
F0.5
sS'O.XOXXOXO'
p2194
F0.0
sS'X.XX.O.OO'
p2195
F0.7952
sS'XOXX..OOX'
p2196
F0.5
sS'OO.XOXOXX'
p2197
F0.5
sS'OXXO.XO..'
p2198
F0.0
sS'OX.X...OX'
p2199
F0.5
sS'.OX.XXXOO'
p2200
I1
sS'X.OXOO.XX'
p2201
F0.5
sS'O..X...XO'
p2202
F0.5
sS'XOOX.XO.X'
p2203
F0.5
sS'X.O..XX.O'
p2204
F0.5
sS'X.OX....O'
p2205
F0.9999999999999998
sS'..XXXO.OO'
p2206
F0.9999999999999998
sS'X.XXO.OXO'
p2207
F0.5
sS'XOOX.....'
p2208
F0.9999999999999944
sS'XXXOO.XO.'
p2209
I1
sS'XOOX....X'
p2210
F0.5
sS'OXXXX..OO'
p2211
F0.5
sS'..XXXO.O.'
p2212
F0.5
sS'O..X...X.'
p2213
F0.5
sS'X.OXOO.X.'
p2214
F0.91611392
sS'...XXOX.O'
p2215
F0.5
sS'XXXOXOO..'
p2216
I1
sS'XX..X.O.O'
p2217
F0.5
sS'X.OX.....'
p2218
F0.5
sS'.X..O.X.O'
p2219
F0.5
sS'OXOX.OXOX'
p2220
F0.5
sS'.OXXX.O..'
p2221
F0.5
sS'.O...OX.X'
p2222
F0.868928
sS'.XXX.O..O'
p2223
F0.5
sS'XO.XOX.O.'
p2224
F0.0
sS'..XOO.X.X'
p2225
F0.5
sS'X...OO..X'
p2226
F0.5
sS'..XOXOXXO'
p2227
I1
sS'X.XXXOO.O'
p2228
F0.5
sS'X.XOX.OOX'
p2229
I1
sS'O..X..O.X'
p2230
F0.5
sS'OX.X.XOOX'
p2231
F0.5
sS'O.X.XOO.X'
p2232
F0.5
sS'XO.OX.OX.'
p2233
F0.9999999999999998
sS'XXOOXOOXX'
p2234
I1
sS'..X..OXO.'
p2235
F0.9463129088000001
sS'XO.OX.OXX'
p2236
I1
sS'..X..OXOX'
p2237
F0.5
sS'.X...XO.O'
p2238
F0.5
sS'.X.X.OOOX'
p2239
F0.5
sS'XXOXOXO.O'
p2240
F0.0
sS'X.OXOOX.X'
p2241
I1
sS'OX.X.XOO.'
p2242
F1.0
sS'X.XOX.OO.'
p2243
F0.9999981292779042
sS'XOOXXOOXX'
p2244
I1
sS'.X..O.X..'
p2245
F0.5
sS'..XOO.X..'
p2246
F0.5
sS'O.XOO..XX'
p2247
F0.9999999999999998
sS'OOX.XXXO.'
p2248
I1
sS'OO.X.XXXO'
p2249
F0.5
sS'O.O..XX.X'
p2250
F0.5
sS'.OXXX.O.O'
p2251
F0.9999999999733001
sS'OXOX.XXO.'
p2252
F0.5
sS'OO.X..OXX'
p2253
F0.5
sS'XO.OXOX.X'
p2254
I1
sS'OX...X..O'
p2255
F0.5
sS'.OOXXX.XO'
p2256
I1
sS'.O.O.XXX.'
p2257
F0.5
sS'XOOOX.XXO'
p2258
F0.5
sS'X.OOX...X'
p2259
I1
sS'OOXXX.O.X'
p2260
F0.5
sS'......XO.'
p2261
F0.5
sS'.OO..XX.X'
p2262
F0.5
sS'..OX.OXX.'
p2263
F0.5
sS'......XOX'
p2264
F0.5
sS'.OO..XX..'
p2265
F0.5
sS'XOOOX.XX.'
p2266
F0.5
sS'X.OOX....'
p2267
F0.9999999999999998
sS'..OX.X.OX'
p2268
F0.5
sS'..OX.OXXO'
p2269
F0.0
sS'OXOX.XXOO'
p2270
F0.9999999999997186
sS'.XX..O.OX'
p2271
F0.5
sS'OX...X...'
p2272
F0.5
sS'O.X..OX..'
p2273
F1.0
sS'XO.OXOX..'
p2274
F0.9999999999977065
sS'.O.O.XXXO'
p2275
F0.5
sS'OXOX..XO.'
p2276
F0.5
sS'OXOOOXX.X'
p2277
F0.9998377407231708
sS'OXX...X.O'
p2278
F0.5
sS'XXO...XOO'
p2279
F0.9999981292779042
sS'.OO.XXXXO'
p2280
F0.5
sS'OX...OX..'
p2281
F0.5
sS'.O.OOX.XX'
p2282
F0.83616
sS'X.O..OOXX'
p2283
F0.999978221928517
sS'.X..XX.OO'
p2284
F0.5
sS'O..X.OXOX'
p2285
F0.5
sS'.O..O.XX.'
p2286
F0.9998377407231708
sS'O..O.X.XX'
p2287
F0.5
sS'X.X.O.O.X'
p2288
F0.5
sS'X...XO.O.'
p2289
F0.9999976615973802
sS'OXOX..O.X'
p2290
F0.5
sS'..OX.XOX.'
p2291
F0.5
sS'X.X.O.O..'
p2292
F1.0
sS'.XOOOXX..'
p2293
F0.5
sS'X...XO.OX'
p2294
I1
sS'.O..O.XXX'
p2295
I1
sS'O..O.X.X.'
p2296
F0.5
sS'..OX.XOXO'
p2297
F0.9999999999999998
sS'X..O..XO.'
p2298
F0.5
sS'OX...OX.X'
p2299
F0.5
sS'XXO...XO.'
p2300
F0.5
sS'X.X.....O'
p2301
F0.5
sS'.X.O.O.X.'
p2302
F1.0
sS'OXXOXOO.X'
p2303
F0.0
sS'X..OOX...'
p2304
F0.5
sS'X.OOOXXOX'
p2305
F0.5
sS'XXOOX..OX'
p2306
I1
sS'OOOX.X.X.'
p2307
F0.0
sS'X.O.X.XO.'
p2308
F0.5
sS'.X.X..OOX'
p2309
F0.5
sS'..XX.O..O'
p2310
F0.5
sS'OO....XX.'
p2311
F1.0
sS'O....O.XX'
p2312
F0.8951424
sS'.X.X..OO.'
p2313
F0.5
sS'OX.X.XXOO'
p2314
F0.5
sS'X.O.X.XOO'
p2315
F0.9999999889572059
sS'OO....XXX'
p2316
I1
sS'X..OOX..X'
p2317
F0.5
sS'..XX.O...'
p2318
F0.5
sS'..X.XOOX.'
p2319
F0.5
sS'XXOOX..O.'
p2320
F0.9999999981473267
sS'.XXOOOXOX'
p2321
F0.0
sS'OXOX.X.XO'
p2322
F0.5
sS'OXOXX..XO'
p2323
I1
sS'.X.O.O.XX'
p2324
F0.5
sS'XXOO...XO'
p2325
F0.9927942405962072
sS'XXO.OX.O.'
p2326
F0.5
sS'XO.OOX..X'
p2327
F0.9981110534068522
sS'OX..X..XO'
p2328
I1
sS'...O.XOX.'
p2329
F0.5
sS'.XOOXX.OX'
p2330
F0.5
sS'OOX.X.XOX'
p2331
I1
sS'XX.X.OOO.'
p2332
F0.95705032704
sS'XX...OO.X'
p2333
F0.5
sS'XOO..XO.X'
p2334
F0.91611392
sS'XX...OO..'
p2335
F1.0
sS'XX.X.OOOX'
p2336
F0.5
sS'...O.XOXX'
p2337
F0.5
sS'.XOOXX.O.'
p2338
F0.5
sS'XXOO...X.'
p2339
F0.5
sS'.X.XX..OO'
p2340
F0.5
sS'XXO.OX.OX'
p2341
F0.5
sS'.O.XX..XO'
p2342
F0.5
sS'.O.O.XX..'
p2343
F0.5
sS'X..X.O...'
p2344
F0.5
sS'X..OO..X.'
p2345
F0.5
sS'XX.OO.XO.'
p2346
F1.0
sS'OXX.O.X..'
p2347
F0.4
sS'XX...O.XO'
p2348
F0.5
sS'XXX.OO.OX'
p2349
I1
sS'XOO.X.OXX'
p2350
I1
sS'OXX.O.X.O'
p2351
F0.0
sS'XO.X.OX..'
p2352
I1
sS'XOO.X.OX.'
p2353
F0.9999999999999993
sS'X..XO..XO'
p2354
F0.5
sS'..XO.X.XO'
p2355
F0.5
sS'OX...XX.O'
p2356
F0.5
sS'XOOX.OOXX'
p2357
F0.95705032704
sS'XX.OO.XOX'
p2358
F0.5
sS'X..X.O..O'
p2359
F0.9999999999999998
sS'O..XO.XOX'
p2360
F0.5
sS'.XXOXXOOO'
p2361
F0.0
sS'X..OO..XX'
p2362
F0.5
sS'.XOXOXXOO'
p2363
F0.9463129088000001
sS'X...OOX..'
p2364
F0.9999999999999944
sS'.XX.O.OOX'
p2365
F0.9987910741803854
sS'O..XX.O.X'
p2366
F0.5
sS'..X..X.OO'
p2367
F0.5
sS'.XO.XO...'
p2368
F0.95705032704
sS'OO....X.X'
p2369
F0.9999999988142891
sS'OO.XX.OX.'
p2370
F0.9999999997513384
sS'.O.XX.O.X'
p2371
F0.5
sS'XXOXO.X.O'
p2372
I1
sS'O....X.OX'
p2373
F0.9999999999999831
sS'O.XXX...O'
p2374
F0.5
sS'XXX..OO..'
p2375
I1
sS'OO.XXXOX.'
p2376
I1
sS'O...OXOXX'
p2377
F0.9999996076811415
sS'OO.XX.OXX'
p2378
F0.5
sS'.O.XX.O..'
p2379
F0.9999999999993987
sS'O..XX.O..'
p2380
F0.9999999999999998
sS'.XO.XO..X'
p2381
F0.5
sS'XOX.O.XXO'
p2382
F0.5
sS'.OX...O.X'
p2383
F1.0
sS'..OX.XX.O'
p2384
F0.5
sS'..X..X.O.'
p2385
F0.5
sS'X...OOX.X'
p2386
F0.5
sS'.O.O.X.X.'
p2387
F0.5
sS'XXOXOO..X'
p2388
F0.5
sS'OXX.OXO..'
p2389
F0.6
sS'.O.OOXXXX'
p2390
I1
sS'O.OX.OXXX'
p2391
I1
sS'XOX.OXOXO'
p2392
F0.5
sS'XOXXOXO..'
p2393
F0.5
sS'X..OO.OXX'
p2394
F0.5
sS'XXOXXOO.O'
p2395
F0.0
sS'.XO.XOX.O'
p2396
F0.0
sS'.X.XXOO.O'
p2397
F0.83616
sS'XOXOX..XO'
p2398
F0.5
sS'..XXO.X.O'
p2399
F0.5
sS'OXX..OOX.'
p2400
F0.9942353924769658
sS'XOXXOXO.O'
p2401
F0.5
sS'O.OOX.X.X'
p2402
F0.9999860620342509
sS'OXX..OOXX'
p2403
F0.5
sS'XXOXXOO..'
p2404
F0.5
sS'.XO.XOX..'
p2405
F0.5
sS'.X.XXOO..'
p2406
F0.5
sS'...XOX.XO'
p2407
F0.5
sS'O.OX.OXX.'
p2408
F0.9999990421902869
sS'.O.OOXXX.'
p2409
F0.965640261632
sS'XXOXOO...'
p2410
F0.6
sS'XOX.OXOX.'
p2411
F0.5
sS'.O.O.X.XX'
p2412
F0.5
sS'XO...XX.O'
p2413
F0.5
sS'X.XOXO..O'
p2414
F0.9999999999999998
sS'.X.XOX.O.'
p2415
F0.5
sS'XX..XOOOX'
p2416
I1
sS'X.....OOX'
p2417
F0.9999999999999998
sS'.O.XXOXOX'
p2418
F0.5
sS'.OO.XXOX.'
p2419
F0.9999999663000667
sS'..O..X.XO'
p2420
F0.5
sS'.OO.X.OXX'
p2421
F1.0
sS'.OX..OX..'
p2422
F0.9463129088000001
sS'XO.OX.XOX'
p2423
I1
sS'.OO...XX.'
p2424
F1.0
sS'XO.OX.XO.'
p2425
F0.9999999999971332
sS'X.OXOX..O'
p2426
F0.9999999999999998
sS'.OX..OX.X'
p2427
F0.5
sS'XOO..XXXO'
p2428
F0.5
sS'..O..X.X.'
p2429
F0.5
sS'.OO.XXOXX'
p2430
F0.5
sS'XXO.OXOOX'
p2431
F0.0
sS'.O.O...XX'
p2432
F0.982407813955584
sS'XOX.X.XOO'
p2433
I1
sS'.O.XOXXXO'
p2434
F0.5
sS'X.XOXO...'
p2435
F0.5
sS'.X.XOX.OO'
p2436
F0.5
sS'O.O..XXOX'
p2437
F0.5
sS'.O.XXOXO.'
p2438
F0.9999999999999998
sS'XX..XOOO.'
p2439
F0.9887410009315738
sS'O.OO.XXX.'
p2440
F0.9328911360000001
sS'X..X..XOO'
p2441
I1
sS'....OX...'
p2442
F0.5
sS'XOOXX...O'
p2443
F0.9999999999999998
sS'XO..XX.O.'
p2444
F0.5
sS'OXOXX.O.X'
p2445
F0.5
sS'.OXX.OXO.'
p2446
F0.8951424
sS'O.O.XXXO.'
p2447
F0.9999999997145504
sS'XOO.XXOX.'
p2448
F0.5
sS'OXXXOX.OO'
p2449
F0.0
sS'OXX.X..OO'
p2450
F0.9999999341798177
sS'..OO.X.XX'
p2451
F0.5
sS'XO.OO.XXX'
p2452
I1
sS'...XO.XOX'
p2453
F0.5
sS'OXXXOX.O.'
p2454
F0.5
sS'XOO.XXOXO'
p2455
F1.0
sS'XO.OO.XX.'
p2456
F0.9993810299803573
sS'...XO.XO.'
p2457
F0.9859262511644672
sS'O.O.XXXOX'
p2458
F0.5
sS'OXX.X..O.'
p2459
F0.5
sS'XO..XXOXO'
p2460
F0.5
sS'OXOXX.O..'
p2461
F0.9999999861965073
sS'OX..X.OOX'
p2462
F0.5
sS'.OXX.OXOX'
p2463
F0.5
sS'XOOXX....'
p2464
F0.5
sS'XO..XX.OO'
p2465
F1.0
sS'XX.XO...O'
p2466
F0.5
sS'X.X.OXXOO'
p2467
F0.5
sS'....OX..X'
p2468
F0.5
sS'.OXX.OO.X'
p2469
F0.5
sS'XX..O.XOO'
p2470
F0.9999976615973802
sS'..X..O...'
p2471
F0.5
sS'XXOO.X.XO'
p2472
F0.5
sS'O.OXX.OXX'
p2473
F0.5
sS'.X.OO..X.'
p2474
F0.5
sS'OX.XOO..X'
p2475
F0.5
sS'XOOX...XO'
p2476
F0.9725122093056
sS'..XOXXOXO'
p2477
F0.5
sS'.OX....XO'
p2478
F0.5
sS'O..XO...X'
p2479
F0.5
sS'XXXXO.OO.'
p2480
I1
sS'O.O.XXX..'
p2481
F0.5
sS'XO.OO..XX'
p2482
F0.9942353924769658
sS'O.OXXX...'
p2483
I1
sS'XOOX...X.'
p2484
F0.5
sS'...OXXOOX'
p2485
F0.9999999999999998
sS'..X..O..X'
p2486
F0.5
sS'XX..O.XO.'
p2487
F0.5
sS'X.OOX.OX.'
p2488
F0.9999999999999998
sS'X.O..OXXO'
p2489
F0.0
sS'X.OO.XXOX'
p2490
F0.5
sS'OXXOOXX.O'
p2491
F0.0
sS'XO.XXOOXO'
p2492
F0.5
sS'...XXOXOO'
p2493
F0.9999999999999998
sS'XO.OOXXX.'
p2494
F0.5
sS'..OXO.OXX'
p2495
F0.0
sS'.OOX.XO.X'
p2496
F0.7952
sS'O.XXO.X.O'
p2497
F0.0
sS'OXOXOOXXX'
p2498
I1
sS'XOX.X.OOX'
p2499
I1
sS'X.XXOOXO.'
p2500
I1
sS'OO.XXOX..'
p2501
F0.9995048239842859
sS'XOX.X.OO.'
p2502
F0.9999999999999931
sS'OO.XXOX.X'
p2503
F0.5
sS'.XXO.OOX.'
p2504
F0.982407813955584
sS'.X.O...OX'
p2505
F0.5
sS'OXOXO...X'
p2506
F0.5
sS'OXOXOOXX.'
p2507
F0.5
sS'O.XOX.XOX'
p2508
I1
sS'XO.XXOOX.'
p2509
F0.5
sS'X.OO.XXO.'
p2510
F0.5
sS'O.XX.O.OX'
p2511
F0.5
sS'...XXOXO.'
p2512
F0.5
sS'XXXXOOXOO'
p2513
I1
sS'XO.OOXXXO'
p2514
F0.5
sS'X.OX...XO'
p2515
F0.5
sS'O.O...X.X'
p2516
F0.9999999999996921
sS'XX..XO.O.'
p2517
F0.5
sS'O.OX.O.XX'
p2518
F1.0
sS'XO...XOX.'
p2519
F0.5
sS'.O.X..O.X'
p2520
F0.5
sS'.O..OXXXO'
p2521
F0.5
sS'.OXXXOO..'
p2522
F0.5
sS'.OXXO.O.X'
p2523
F0.9328911360000001
sS'XO.XOX..O'
p2524
F1.0
sS'XOO.X.XOX'
p2525
I1
sS'OXOXXO.OX'
p2526
F0.5
sS'XOX.OO.XX'
p2527
F0.5
sS'O.OX.XOX.'
p2528
F0.8951424
sS'.OX.OXOX.'
p2529
F0.6799999999999999
sS'XXXOO.X.O'
p2530
I1
sS'O.OX.XOXX'
p2531
F0.5
sS'XX.OOXOOX'
p2532
F0.5
sS'XOX.OO.X.'
p2533
F0.5
sS'XOO.X.XO.'
p2534
F0.9953883139815727
sS'O.OXO.X.X'
p2535
F0.9999981292779042
sS'O.X...O.X'
p2536
F0.9999999999999998
sS'.X..O.XXO'
p2537
F0.5
sS'XX..XO.OO'
p2538
F0.9859262511644672
sS'.OXXXOO.X'
p2539
F0.5
sS'XO...XOXO'
p2540
F0.5
sS'.O..OXXX.'
p2541
F0.5
sS'XO.XOX...'
p2542
F0.5
sS'O.X.OXXO.'
p2543
F0.9963106511852582
sS'XX.O..OOX'
p2544
F0.8951424
sS'OX...X.OX'
p2545
F0.5
sS'.O.XXOOX.'
p2546
F0.5
sS'O.OXXOX..'
p2547
F0.5
sS'O..XO..XX'
p2548
F0.5
sS'..OX.XO.X'
p2549
F0.5
sS'X.O.....X'
p2550
F0.5
sS'.O..O.X.X'
p2551
F0.9463129088000001
sS'..X.XX.OO'
p2552
F0.5
sS'OO.XX.XO.'
p2553
F0.9981110534068522
sS'X.XOOX...'
p2554
F0.5
sS'OX.X.XO..'
p2555
F0.5
sS'OO.XX.XOX'
p2556
F0.5
sS'X..OOO.XX'
p2557
F0.0
sS'O..XO..X.'
p2558
F0.5
sS'X.XOOX..O'
p2559
F0.9999999999999998
sS'X.O......'
p2560
F0.5
sS'..OX.XO..'
p2561
F0.9999999784320427
sS'.X.OOX.OX'
p2562
F0.83616
sS'O.X.OXXOX'
p2563
I1
sS'OX...X.O.'
p2564
F0.5
sS'.O.XXO.XO'
p2565
F0.5
sS'O.XOX...X'
p2566
F0.5
sS'..X.O.OX.'
p2567
F0.5
sS'.X.X.O..O'
p2568
F0.5
sS'.XOX.XOO.'
p2569
F0.83616
sS'X.OXOOXX.'
p2570
I1
sS'O.OX..XX.'
p2571
F0.5
sS'OXXOOOX.X'
p2572
F0.0
sS'OXX...XOO'
p2573
F0.9999999999478518
sS'X..OOX.XO'
p2574
F0.5
sS'..XOOOXX.'
p2575
F0.0
sS'.XO.XX.OO'
p2576
F0.83616
sS'XXOOOX.X.'
p2577
F0.5
sS'OOX.OXXX.'
p2578
F0.5
sS'OXX...XO.'
p2579
F0.5
sS'XO.XX.OXO'
p2580
F0.5
sS'.X.OXO.OX'
p2581
F0.9999970769967254
sS'X..OOX.X.'
p2582
F0.5
sS'.XX..OOOX'
p2583
F0.9999999999999997
sS'.XO.XX.O.'
p2584
F0.5
sS'XXOOOX.XO'
p2585
F0.5
sS'OOXXX.OOX'
p2586
F0.5
sS'XXOX.OXO.'
p2587
I1
sS'OXX.OX.O.'
p2588
F1.0
sS'.XOX.XOOX'
p2589
F0.5
sS'XX.XOXOO.'
p2590
F0.5
sS'XOOXOX.OX'
p2591
I0
sS'..X.O.OXX'
p2592
F0.5
sS'O.OX..XXO'
p2593
F0.5
sS'O.XOX....'
p2594
F0.9999999999999998
sS'X.XXOOOXO'
p2595
F1.0
sS'.OOXOXXX.'
p2596
F0.5
sS'OX.X.OOX.'
p2597
F0.9999999999999996
sS'.O.O..X.X'
p2598
F0.965640261632
sS'..XOOXXOX'
p2599
I1
sS'OXXO.X.XO'
p2600
F0.5
sS'XOOX.XOXO'
p2601
F1.0
sS'..X.OXX.O'
p2602
F0.5
sS'...O.XO.X'
p2603
F0.9725122093056
sS'XX..OOXOX'
p2604
F0.5
sS'X.O.O...X'
p2605
F0.5
sS'...OXXO.X'
p2606
F0.5
sS'XOX...OOX'
p2607
F1.0
sS'XX..OOXO.'
p2608
F0.8951424
sS'..OO..XX.'
p2609
F1.0
sS'OXO.XOX.X'
p2610
F0.5
sS'X.XXOOOX.'
p2611
F0.5
sS'XOXO.OXXO'
p2612
F0.9999999999999998
sS'O.X..OXOX'
p2613
F0.9999999999999988
sS'.OX..XOXO'
p2614
F0.5
sS'OX.X.OOXX'
p2615
F0.5
sS'XOOX.XOX.'
p2616
F0.5
sS'.XOX.XXOO'
p2617
F0.5
sS'O.XOXX.O.'
p2618
F0.9993810299803573
sS'OX.OXXXO.'
p2619
F0.5
sS'XXOO.XO.X'
p2620
F0.5
sS'.OO.X.X.X'
p2621
F0.5
sS'XO....XO.'
p2622
F0.9999999999999998
sS'XX.O.O.OX'
p2623
F0.9999996076811415
sS'.O.OXX.XO'
p2624
F0.5
sS'XXXOX.OO.'
p2625
I1
sS'XO.OOX.X.'
p2626
F0.5
sS'OXXX.OOX.'
p2627
F0.5
sS'..XX..O..'
p2628
F0.5
sS'.OX.XOXXO'
p2629
I1
sS'O.X..OXX.'
p2630
F0.5
sS'O......X.'
p2631
F0.5
sS'....O.XOX'
p2632
F0.5
sS'OXXX.OOXO'
p2633
F0.7952
sS'O......XX'
p2634
F0.5
sS'..XX..O.O'
p2635
F0.5
sS'O.X..OXXO'
p2636
F0.744
sS'O.X.XOXOX'
p2637
I1
sS'..O..XXXO'
p2638
F0.5
sS'X......XO'
p2639
F0.5
sS'XXOO.OX..'
p2640
F0.5
sS'OX.OXXXOO'
p2641
F1.0
sS'XO.OOX.XX'
p2642
F0.5
sS'O.XOXX.OX'
p2643
I1
sS'.O.OXX.X.'
p2644
F0.5
sS'.XXXOX.OO'
p2645
F0.5
sS'XO....XOX'
p2646
F0.5
sS'X.XX.OXOO'
p2647
I1
sS'.OO.X.X..'
p2648
F0.5
sS'XXOO.XO..'
p2649
F0.5
sS'X...O.OX.'
p2650
F0.5
sS'O..XO.X.X'
p2651
F0.5
sS'XXO.O.XO.'
p2652
F1.0
sS'XX.OO.X.O'
p2653
F0.9999999999999998
sS'OOXOXX.X.'
p2654
F0.5
sS'XOXOXX..O'
p2655
F0.5
sS'O.XX..O..'
p2656
F0.5
sS'X.XOX.XOO'
p2657
I1
sS'OOOXX.XXO'
p2658
F0.0
sS'OX.OOXOXX'
p2659
F0.0
sS'OXOXOX..X'
p2660
F0.5
sS'OXOXOX...'
p2661
F0.5
sS'X....OO.X'
p2662
F0.9999999999999998
sS'OOXOXX.XO'
p2663
F0.9999999473438541
sS'XOXOXOX..'
p2664
I1
sS'XXO.O.XOX'
p2665
F0.5
sS'OXXXOOO.X'
p2666
F0.5
sS'O..XO.X..'
p2667
F0.5
sS'OXO.XOX..'
p2668
F0.9999999999999998
sS'X...O.OXX'
p2669
F0.5
sS'XX.OO.X..'
p2670
F0.5
sS'..X.OOXOX'
p2671
F0.5
sS'OX..XX.O.'
p2672
F0.5
sS'.X.O..OXX'
p2673
F0.5
sS'XOO...OXX'
p2674
F0.9942353924769658
sS'....XXO..'
p2675
F0.5
sS'.X.O....X'
p2676
F0.5
sS'..X..X..O'
p2677
F0.5
sS'....XXO.O'
p2678
F0.9999999999999998
sS'OXOOXX.OX'
p2679
F0.5
sS'..XOX...O'
p2680
F0.9999999999998425
sS'XX.XOX.OO'
p2681
F0.5
sS'.X.O..OX.'
p2682
F1.0
sS'..O.OX..X'
p2683
F0.5
sS'OX..XX.OO'
p2684
F1.0
sS'XO.XXOXO.'
p2685
I1
sS'XOX.X...O'
p2686
F0.5
sS'XOXOOOX.X'
p2687
F0.0
sS'..XO.X..O'
p2688
F0.5
sS'.X.O.....'
p2689
F0.5
sS'OXOX.XO.X'
p2690
F0.5
sS'OX.X....O'
p2691
F0.5
sS'XXOX.XOO.'
p2692
F0.5
sS'X...XOX.O'
p2693
F0.5
sS'OX..O.X..'
p2694
F0.5
sS'OX..O.X.X'
p2695
F0.5
sS'.XXO.O.OX'
p2696
F0.9999999999988257
sS'OXOX.XO..'
p2697
F1.0
sS'X.O.OXOX.'
p2698
F0.0
sS'..XO.X...'
p2699
F0.5
sS'O.OX.OX.X'
p2700
F0.9999963462459067
sS'OX.X.....'
p2701
F0.5
sS'XXOX.XOOO'
p2702
F0.0
sS'XXOXOOOX.'
p2703
F0.0
sS'.O.....X.'
p2704
F0.5
sS'XOOXXOXOX'
p2705
I1
sS'XXX.O...O'
p2706
I1
sS'.O.XOX.X.'
p2707
F0.5
sS'XX.XO.OOX'
p2708
F0.5
sS'OXX.XO..O'
p2709
F0.9999998714449565
sS'XO..X.O.X'
p2710
I1
sS'..OX...OX'
p2711
F0.5
sS'XXOXXOOO.'
p2712
F0.5
sS'O.OX.XXOX'
p2713
F0.5
sS'XXOXXOOOX'
p2714
I1
sS'.O.XOX.XO'
p2715
F0.5
sS'.OOOX.XX.'
p2716
F0.9990328593443083
sS'O.OX.XXO.'
p2717
F0.9999999999999997
sS'OXX.XO...'
p2718
F0.5
sS'.XXXO.OXO'
p2719
F0.5
sS'X.OO.OX.X'
p2720
F0.9993810299803573
sS'XO..X.O..'
p2721
F1.0
sS'XX.XO.OO.'
p2722
F0.744
sS'OO...XOXX'
p2723
F0.6799999999999999
sS'.XOX.O.OX'
p2724
F0.5
sS'.O.....XX'
p2725
F0.5
sS'.OXXX.OOX'
p2726
F0.5
sS'OOXXX..XO'
p2727
F0.5
sS'X..X.XOOO'
p2728
F0.0
sS'O.XO.XXOX'
p2729
I1
sS'.O.OX..XX'
p2730
F0.5
sS'....OX.OX'
p2731
F1.0
sS'OXX..OO.X'
p2732
F0.5
sS'O.XX...OX'
p2733
F0.5
sS'X.X.O.XO.'
p2734
F0.5
sS'.X.OXXXOO'
p2735
F0.5
sS'OOXX..X..'
p2736
F0.5
sS'..XOOX...'
p2737
F0.9999999997513384
sS'O.OXX.XOX'
p2738
F0.5
sS'X.O.O.OXX'
p2739
F0.0
sS'X.X.O.XOO'
p2740
F0.9999999999666251
sS'O.OXX.XO.'
p2741
F0.9999999999999998
sS'X.O..XO.X'
p2742
F0.5
sS'O.XOXXX.O'
p2743
I1
sS'..XOOX..X'
p2744
I1
sS'O.XO.XXO.'
p2745
F0.9970485209482065
sS'..XXXO..O'
p2746
F0.5
sS'O.XX...O.'
p2747
F0.5
sS'.O.OX..X.'
p2748
F0.5
sS'.OXXX.OO.'
p2749
F1.0
sS'OO..XXXO.'
p2750
F1.0
sS'X...XOOXO'
p2751
F1.0
sS'OXXX...OO'
p2752
F0.5
sS'..OOXXX..'
p2753
F0.5
sS'.OXX.O.XO'
p2754
F0.5
sS'.O....XOX'
p2755
F0.5
sS'..OX.OX.X'
p2756
F0.5
sS'X.....XOO'
p2757
F0.9999999999999998
sS'..X.X.O.O'
p2758
F0.5
sS'.OXX..X.O'
p2759
F0.5
sS'.XOXO.OX.'
p2760
F0.0
sS'X.XOXOOX.'
p2761
F0.5
sS'..X.X.O..'
p2762
F0.5
sS'.O...O.XX'
p2763
F0.9463129088000001
sS'..OX.OX..'
p2764
F1.0
sS'X...XOOX.'
p2765
F0.5
sS'XXX.O.OXO'
p2766
I1
sS'XXO.XX.OO'
p2767
F0.5
sS'XXX...O.O'
p2768
I1
sS'OO..XXXOX'
p2769
F0.5
sS'OXXX...O.'
p2770
F0.5
sS'..OOXXX.O'
p2771
F0.5
sS'.OXX.O.X.'
p2772
F0.5
sS'X.X....OO'
p2773
F0.9999999999999998
sS'XXOOOXXOX'
p2774
F0.5
sS'X...XO...'
p2775
F0.5
sS'XOXX.X.OO'
p2776
F0.5
sS'XX.XO.XOO'
p2777
I1
sS'.XXOX.XOO'
p2778
I1
sS'XXXXO.O.O'
p2779
I1
sS'.OO..XXOX'
p2780
F0.5
sS'XXOOOXXO.'
p2781
F0.5
sS'OXO.X..X.'
p2782
I1
sS'X.X....O.'
p2783
F0.5
sS'X...XO..O'
p2784
F0.5
sS'...XO.OXX'
p2785
F0.5
sS'OOXXOX.X.'
p2786
F0.4
sS'.O.OX.X..'
p2787
F1.0
sS'X.O..XO..'
p2788
F0.5
sS'XX.OOXX.O'
p2789
F0.5
sS'O.X...XXO'
p2790
F0.5
sS'...X.XO..'
p2791
F0.5
sS'.XO..OXX.'
p2792
F0.5
sS'..OXXO...'
p2793
F0.5
sS'X.OXX...O'
p2794
F0.5
sS'....X.X.O'
p2795
F0.5
sS'.OXXOXOX.'
p2796
F0.5
sS'.OXX.XOOX'
p2797
I1
sS'OX.X.XOXO'
p2798
F0.5
sS'.X.X.OOX.'
p2799
F0.5
sS'.OXX.XOO.'
p2800
F0.91611392
sS'X..OXXOOX'
p2801
I1
sS'.X.O..XXO'
p2802
F0.5
sS'..OXXO..X'
p2803
F0.5
sS'.X.X.OOXO'
p2804
F0.9983222784
sS'OOXXOX.XO'
p2805
F0.0
sS'...X.XO.O'
p2806
F0.9999997489159306
sS'.O.OX.X.X'
p2807
F0.5
sS'OXXO.O.XX'
p2808
F0.5
sS'....XO..X'
p2809
F0.5
sS'..XX.XOOO'
p2810
F0.0
sS'.OXXX..O.'
p2811
F0.5
sS'X.OOOX.X.'
p2812
F0.5
sS'O.....XOX'
p2813
F0.5
sS'XO.XX.O.O'
p2814
F0.9999999999999998
sS'O.XXX.OO.'
p2815
F0.9996038591874287
sS'OXXOOXX..'
p2816
F0.5
sS'OX..XXOO.'
p2817
F1.0
sS'XO.XX.O..'
p2818
F0.5
sS'OX..XXOOX'
p2819
F0.5
sS'XX.XOOXO.'
p2820
I1
sS'OOXX..XXO'
p2821
F0.5
sS'O.XXX.OOX'
p2822
F0.5
sS'.OXXX..OO'
p2823
F1.0
sS'....XO...'
p2824
F0.5
sS'OXXO.O.X.'
p2825
F0.9927942405962072
sS'XOOX.O.X.'
p2826
F0.9887410009315738
sS'X...O.XOX'
p2827
F0.5
sS'..OXOXX.O'
p2828
F0.744
sS'X..OXO.XO'
p2829
F0.9987910741803854
sS'.OOOXXOXX'
p2830
F0.5
sS'.XOX.XO.O'
p2831
F0.5
sS'OX..OX...'
p2832
F0.5
sS'.OXOXX...'
p2833
F0.5
sS'O.O.X..X.'
p2834
F0.9987910741803854
sS'O.OXXO.X.'
p2835
F0.868928
sS'XO.XOOOXX'
p2836
F0.5
sS'X.XO..X.O'
p2837
F0.5
sS'..O..XO.X'
p2838
F0.5
sS'O.OXXO.XX'
p2839
F0.5
sS'O...OX..X'
p2840
F1.0
sS'..XX.XO.O'
p2841
F0.5
sS'XX...OOOX'
p2842
F0.9999996076811415
sS'..OXOXX..'
p2843
F0.5
sS'OX..OX..X'
p2844
F0.5
sS'X...O.XO.'
p2845
F0.9999999999999998
sS'.XOX.XO..'
p2846
F0.5
sS'.O.XXX.O.'
p2847
I1
sS'.OXOXX..O'
p2848
F0.9999999963814973
sS'X...OOXOX'
p2849
F0.9999999999992484
sS'.X.XO.OX.'
p2850
F0.5
sS'XXO..X.O.'
p2851
F0.5
sS'.XO.XO.OX'
p2852
F0.9999999996114662
sS'.X.XOXO..'
p2853
F0.5
sS'XX..OO.X.'
p2854
F0.5
sS'..OXXO.XO'
p2855
F0.0
sS'.O..XX...'
p2856
F0.5
sS'..XOOXX.O'
p2857
F0.5
sS'.OOXXOXXO'
p2858
F0.0
sS'.XX.X.O.O'
p2859
F0.5
sS'.....OOXX'
p2860
F0.5
sS'.OXOXXX.O'
p2861
I1
sS'XOX..OXOX'
p2862
F0.5
sS'OO..XX...'
p2863
F0.9999999999478518
sS'XX.X..OOO'
p2864
F0.0
sS'.O..XX..O'
p2865
F0.9999999999999998
sS'.OOXXOXX.'
p2866
F0.5
sS'..XOOXX..'
p2867
F0.5
sS'OO..XX..X'
p2868
F0.5
sS'.OXXXXOO.'
p2869
I1
sS'XX.X..OO.'
p2870
F0.5
sS'.X..OO..X'
p2871
F0.5
sS'.X.XO.OXO'
p2872
F0.5
sS'XXO..X.OO'
p2873
F0.5
sS'.X.XOXO.O'
p2874
F0.5
sS'O.XO..OXX'
p2875
F0.0
sS'XX..OO.XO'
p2876
F0.7952
sS'..OXXO.X.'
p2877
F0.5
sS'..OXOX..X'
p2878
F0.5
sS'O.XOXX..O'
p2879
F0.9999999999999998
sS'..XO..X..'
p2880
F0.5
sS'OX.XXO.OX'
p2881
F0.5
sS'O.X.XXO.O'
p2882
F0.9999999999999998
sS'X.X.X.OO.'
p2883
F0.5
sS'XXOO.XOOX'
p2884
F0.999999999999999
sS'OXXOO.XX.'
p2885
F0.5
sS'O.O..XX..'
p2886
F0.5
sS'X.XX.OOXO'
p2887
F0.5
sS'OXXOO.XXO'
p2888
F0.0
sS'..O.X.X..'
p2889
F0.5
sS'.OX.XXO.O'
p2890
F1.0
sS'O..XXOO.X'
p2891
F0.5
sS'O.XOXX...'
p2892
F0.5
sS'X.XOOO..X'
p2893
F0.0
sS'..XO..X.O'
p2894
F1.0
sS'OOOXXOXX.'
p2895
F0.0
sS'...OXOX..'
p2896
F1.0
sS'O...O..XX'
p2897
F0.9999999999999996
sS'OX.XXO.O.'
p2898
F0.5
sS'O.X.XXO..'
p2899
F0.5
sS'X.X.X.OOO'
p2900
F0.0
sS'XXO.OXO..'
p2901
F0.0
sS'.OXOX.O.X'
p2902
F0.9999999999999998
sS'X...OXO..'
p2903
F0.5
sS'X.XXO.O.O'
p2904
F0.9999999999944007
sS'XX...O.OX'
p2905
F0.5
sS'..OO.X.X.'
p2906
F0.5
sS'X.XXO.O..'
p2907
F0.5
sS'OXO.XOXOX'
p2908
F0.5
sS'OOXXO...X'
p2909
F0.9999999999046325
sS'XX...O.O.'
p2910
F1.0
sS'OX.XXOOOX'
p2911
F0.5
sS'X...OXO.X'
p2912
F0.5
sS'.OX..OXOX'
p2913
F0.9996038591874287
sS'.O.OOXX.X'
p2914
F0.6799999999999999
sS'XXXXOOO..'
p2915
I1
sS'O.XXOOOXX'
p2916
F0.5
sS'.X...XO..'
p2917
F0.5
sS'...X...O.'
p2918
F0.5
sS'..X.O...X'
p2919
F0.5
sS'...X..OX.'
p2920
F0.5
sS'X.OX..XO.'
p2921
I1
sS'XOXX.XOOO'
p2922
F0.0
sS'OO..XX.XO'
p2923
F0.9999999999863297
sS'XO.XXOX.O'
p2924
I1
sS'.O..X.XXO'
p2925
F0.5
sS'.XOXO..OX'
p2926
F0.5
sS'XOOX.X.O.'
p2927
F0.9927942405962072
sS'XOXX.XOO.'
p2928
F0.5
sS'.X..XO.XO'
p2929
I1
sS'..X.OOX..'
p2930
F0.5
sS'OO..XX.X.'
p2931
F0.5
sS'..X.O....'
p2932
F0.5
sS'...X...OX'
p2933
F0.5
sS'X..X..O..'
p2934
F0.5
sS'...X..OXO'
p2935
F0.5
sS'OXOXX.OX.'
p2936
I1
sS'OXXXXO.O.'
p2937
F0.5
sS'X.XX.OO.O'
p2938
F0.9984888427254818
sS'OXXOOX..X'
p2939
I1
sS'OOXO..XXX'
p2940
I1
sS'X...XOXOO'
p2941
F0.9999999911657647
sS'.X.OX.X.O'
p2942
F0.5
sS'OXOX.XOOX'
p2943
F0.9942353924769658
sS'X...XOXO.'
p2944
F0.5
sS'OOXO..XX.'
p2945
F0.9999996076811415
sS'X.X..XO.O'
p2946
F0.5
sS'OXXOOX...'
p2947
F0.6
sS'.XO..O..X'
p2948
F0.5
sS'.O.X...XO'
p2949
F0.5
sS'OXXXXO.OO'
p2950
F0.9942353924769658
sS'O...X.OXX'
p2951
F0.5
sS'X.XX.OO..'
p2952
F0.5
sS'.XXX.OXOO'
p2953
F0.5
sS'OXXXXOOXO'
p2954
I1
sS'OXXXO.XOO'
p2955
F0.0
sS'XO.O..XX.'
p2956
F0.5
sS'X.X.OO.XO'
p2957
F0.999994502441861
sS'XOXO.XO..'
p2958
F0.9999999999999998
sS'OO.XOX..X'
p2959
F0.9999999999999998
sS'OO.X..XOX'
p2960
F0.5
sS'.XX.O..OX'
p2961
F0.5
sS'.OX.XX.O.'
p2962
F0.5
sS'XOXO.XO.X'
p2963
I1
sS'XXX.O..O.'
p2964
I1
sS'.OX.XX.OO'
p2965
F0.9328911360000001
sS'.XX.O..O.'
p2966
F1.0
sS'OXXXO.XO.'
p2967
F0.5
sS'XO.O..XXO'
p2968
F0.5
sS'X.X.OO.X.'
p2969
F0.5
sS'XO.O.XOXX'
p2970
F0.5
sS'..X..XXOO'
p2971
F0.5
sS'O.XXO.XOX'
p2972
F0.5
sS'X.OO...XX'
p2973
F0.5
sS'XX..XO..O'
p2974
F0.5
sS'..OXOOXXX'
p2975
I1
sS'.O..XXX.O'
p2976
F0.5
sS'XXX....OO'
p2977
I1
sS'XX.XO.O..'
p2978
F0.5
sS'.X.X..O..'
p2979
F0.5
sS'XX.XO.O.O'
p2980
F0.7952
sS'X.OO...X.'
p2981
F0.5
sS'..OXOOXX.'
p2982
F0.9992262874754466
sS'XO.O.XOX.'
p2983
F0.5
sS'OX..O.OXX'
p2984
F0.5
sS'O.XXO.XO.'
p2985
F0.5
sS'OXOX..XOX'
p2986
F0.5
sS'OO..XXX.O'
p2987
F0.9999999999999998
sS'.XXOO.XO.'
p2988
F0.97800976744448
sS'..OXX....'
p2989
F0.5
sS'X.XOOX.O.'
p2990
F0.9999999999999998
sS'.O..XXOXO'
p2991
F0.9999999997513384
sS'OXX.XOOX.'
p2992
I1
sS'X.OXOX.O.'
p2993
F0.9927942405962072
sS'XX.X...OO'
p2994
F0.5
sS'O.X..OX.X'
p2995
F0.5
sS'OOOX.XOXX'
p2996
F0.0
sS'OXOXXO...'
p2997
F0.9999999911657647
sS'..OXXXXOO'
p2998
I1
sS'X.XOOX.OX'
p2999
I1
sS'OO..XXX..'
p3000
F0.5
sS'X.OXOX.OX'
p3001
F0.5
sS'..OXX...O'
p3002
F1.0
sS'.XXOO.XOX'
p3003
F0.5
sS'O.XX.O.X.'
p3004
F0.5
sS'X.O.XOOXX'
p3005
I1
sS'XX.O.OXXO'
p3006
F0.5
sS'XOOXOX..X'
p3007
F0.5
sS'OOOXOXXX.'
p3008
F0.0
sS'XO.OXXXO.'
p3009
F0.5
sS'X.OXO....'
p3010
F0.9999999999999998
sS'.X.XXO..O'
p3011
F0.5
sS'XOOOXXX.O'
p3012
F0.5
sS'..XOO..X.'
p3013
F0.5
sS'..XOO..XX'
p3014
F0.5
sS'..OX.XOOX'
p3015
F1.0
sS'X.....X.O'
p3016
F0.5
sS'X..O...OX'
p3017
F0.9999999999999998
sS'XOOOXXX..'
p3018
F0.5
sS'X.OXO...X'
p3019
F0.5
sS'XOOXOX...'
p3020
F0.965640261632
sS'O.XX.O.XO'
p3021
F0.5
sS'XO.OOXXOX'
p3022
F0.0
sS'OXXOXO.X.'
p3023
I1
sS'.OO.OXX.X'
p3024
F0.999978221928517
sS'OX.O....X'
p3025
F0.5
sS'...X.XOOX'
p3026
F0.5
sS'XO.XXO...'
p3027
F0.5
sS'XO..OXXO.'
p3028
F0.0
sS'.XX.XOOOX'
p3029
F0.5
sS'OX.X..OXO'
p3030
F0.9725122093056
sS'.X.X..OXO'
p3031
F0.5
sS'X.OOXX.XO'
p3032
F0.5
sS'O.X..XOX.'
p3033
F0.5
sS'XOXXXOO.O'
p3034
F0.5
sS'X.OX.XOO.'
p3035
F0.9927942405962072
sS'X.OX.XOOX'
p3036
F0.5
sS'O.X..XOXO'
p3037
F0.5
sS'.XO.XX..O'
p3038
F0.5
sS'XOXXXOO..'
p3039
F0.5
sS'X..XOOX..'
p3040
I1
sS'.XX.XOOO.'
p3041
F0.9999999971051978
sS'XO.XXO..O'
p3042
F0.9999999999999998
sS'.OOXO.X.X'
p3043
F0.5
sS'...X.XOO.'
p3044
F0.9981110534068522
sS'OX.X..OX.'
p3045
F0.5
sS'....XOOXX'
p3046
F0.5
sS'XO....X.O'
p3047
F0.9999999999999998
sS'X.O...O.X'
p3048
F0.9999999999999998
sS'...XOXO.X'
p3049
F0.5
sS'X..XO...O'
p3050
F0.9999999999999998
sS'XOOX.XO..'
p3051
F0.9997971759039634
sS'XOXOXXXOO'
p3052
I1
sS'..XX.X.OO'
p3053
F0.5
sS'XOXOX...O'
p3054
F0.9999999999999998
sS'.....XXOO'
p3055
F0.5
sS'X.OX.O.XO'
p3056
F0.0
sS'X..X.O.XO'
p3057
F0.5
sS'X.OXX..O.'
p3058
F0.5
sS'O...OX.XX'
p3059
F0.5
sS'...XXXO.O'
p3060
I1
sS'.O...XOX.'
p3061
F0.5
sS'.....XXO.'
p3062
F0.5
sS'XOXOX....'
p3063
F0.5
sS'X.OXX.OXO'
p3064
F0.5
sS'X.OX.O.X.'
p3065
F0.5
sS'O...OX.X.'
p3066
F0.5
sS'..OXOOX.X'
p3067
F0.9999954328073833
sS'.O...XOXX'
p3068
F0.5
sS'O.X....OX'
p3069
F1.0
sS'XOOO.XOXX'
p3070
F0.9725122093056
sS'...XOXO..'
p3071
F0.5
sS'XO....X..'
p3072
F0.5
sS'X..XO....'
p3073
F0.5
sS'XOOXXXOXO'
p3074
I1
sS'....XOOX.'
p3075
F1.0
sS'X.X.O...O'
p3076
F1.0
sS'O..XXXOXO'
p3077
I1
sS'..O.XXO..'
p3078
F1.0
sS'.XX.OOX..'
p3079
F0.5
sS'XOXOX.OXO'
p3080
F0.5
sS'XO.O.O.XX'
p3081
F0.9887410009315738
sS'....O.X..'
p3082
F0.5
sS'X....OOXX'
p3083
F0.5
sS'..X.XOOXO'
p3084
F0.9999976615973802
sS'X.OXOOOXX'
p3085
F0.0
sS'XOX.OXXOO'
p3086
F0.0
sS'XOXOX.OX.'
p3087
F0.5
sS'.XXO...XO'
p3088
F0.5
sS'..OX.X.O.'
p3089
F0.9999999999999944
sS'XXOX....O'
p3090
F0.5
sS'X....OOX.'
p3091
F0.5
sS'....O.X.X'
p3092
F0.5
sS'X.X.O....'
p3093
F0.5
sS'.XX.OOX.O'
p3094
F0.6
sS'..O.XXO.X'
p3095
F0.5
sS'XX..OXXOO'
p3096
F0.5
sS'.OX....X.'
p3097
F0.5
sS'.X..XOX.O'
p3098
F0.5
sS'OXOOXX...'
p3099
F0.9999999929326118
sS'XOXO.....'
p3100
F0.5
sS'OX..XX..O'
p3101
F0.5
sS'OOX..X..X'
p3102
I1
sS'....O...X'
p3103
F0.5
sS'.OX.X.OOX'
p3104
F0.9999999999999998
sS'.O.OXXXOX'
p3105
F0.5
sS'XXOOXXOO.'
p3106
F1.0
sS'OXX.OO.XX'
p3107
F0.5
sS'XOXOOXOX.'
p3108
F0.9999999911657647
sS'OXXOXO...'
p3109
F0.9999995096014269
sS'OXXX.OX.O'
p3110
F0.5
sS'XOXOOXOXX'
p3111
I1
sS'OXX.OO.X.'
p3112
F0.5
sS'O..O...XX'
p3113
F0.83616
sS'OXXOXO..X'
p3114
F0.5
sS'.O.OXXXO.'
p3115
F1.0
sS'XXOOXXOOX'
p3116
I1
sS'O.XXXXOO.'
p3117
I1
sS'OOX..X...'
p3118
F0.9999999999999998
sS'OXX.OXO.X'
p3119
I1
sS'OXOOXX..X'
p3120
F0.5
sS'O.XX..O.X'
p3121
F0.5
sS'..XOO...X'
p3122
F1.0
sS'O.XO.X.XO'
p3123
F0.5
sS'OO.X.X.X.'
p3124
F0.5
sS'..XO..XOX'
p3125
F0.5
sS'O.OXXO..X'
p3126
F0.5
sS'XOX..OX..'
p3127
F0.5
sS'OOXX.X.XO'
p3128
F0.5
sS'OXOX...XO'
p3129
F0.9887410009315738
sS'..XOOXXO.'
p3130
F0.9328911360000001
sS'XOO.OXX..'
p3131
F0.9328911360000001
sS'XOO.OXX.X'
p3132
F0.5
sS'XOX..OX.O'
p3133
F0.9999999999999998
sS'XXOOOOXX.'
p3134
F0.0
sS'.OOOXX..X'
p3135
F0.9999999999863297
sS'.XXOO..OX'
p3136
F0.9990328593443083
sS'OXOX...X.'
p3137
F0.5
sS'.OXXXXO.O'
p3138
I1
sS'OX..O.XOX'
p3139
F0.5
sS'.OXO....X'
p3140
F1.0
sS'O.OOXXOXX'
p3141
F0.0
sS'..XO..XO.'
p3142
F1.0
sS'O.XO.X.X.'
p3143
F0.5
sS'OO.X.X.XO'
p3144
F0.6
sS'X..O..XOX'
p3145
F0.5
sS'OXOXXOXOX'
p3146
F0.5
sS'.XO.....X'
p3147
F0.5
sS'..OXO.XOX'
p3148
F0.5
sS'.OXOX.OX.'
p3149
F0.5
sS'OXO..OXXX'
p3150
I1
sS'XXXXOOOOX'
p3151
I1
sS'.O.XOX..X'
p3152
F0.5
sS'XOOXXO.X.'
p3153
F0.5
sS'..X.X..OO'
p3154
F0.9999999954768716
sS'OOO.X..XX'
p3155
F0.0
sS'.O.XOX...'
p3156
F0.5
sS'OXO..OXX.'
p3157
F1.0
sS'XOOXXO.XO'
p3158
F0.0
sS'..X.X..O.'
p3159
F0.5
sS'.OXOX.OXX'
p3160
F0.5
sS'X.O.OXO.X'
p3161
F0.0
sS'.XO......'
p3162
F0.5
sS'..X....XO'
p3163
F0.5
sS'..O...XXO'
p3164
F0.5
sS'O..OXOX.X'
p3165
F0.9963106511852582
sS'.OXXXOOX.'
p3166
F0.5
sS'...X....O'
p3167
F0.5
sS'X..O.XOOX'
p3168
F1.0
sS'..OX.....'
p3169
F0.5
sS'X..X..OOX'
p3170
F0.5
sS'.X...O.XO'
p3171
F1.0
sS'OX.O.O.XX'
p3172
F0.9976388167585652
sS'..X.O..OX'
p3173
F1.0
sS'OXXO.XXO.'
p3174
F0.5
sS'XOXOXXOXO'
p3175
F0.5
sS'XOXO....X'
p3176
F0.5
sS'.X...O.X.'
p3177
F0.5
sS'X..X..OO.'
p3178
F0.5
sS'..OX....X'
p3179
F0.5
sS'OXXO.XXOO'
p3180
F0.9999954328073833
sS'OOXX.O..X'
p3181
F0.5
sS'X.X.O.X.O'
p3182
F0.5
sS'..O...XX.'
p3183
F0.5
sS'.OXXOXOXO'
p3184
F0.5
sS'.OXXXOOXO'
p3185
F0.5
sS'...X.....'
p3186
F0.5
sS'OX.XXXO.O'
p3187
I1
sS'...XO..X.'
p3188
F0.5
sS'OXXXXO..O'
p3189
F0.5
sS'X...X..OO'
p3190
F0.5
sS'.XXO.OXO.'
p3191
F0.8951424
sS'....O..X.'
p3192
F0.5
sS'.XXXO.OOX'
p3193
F0.5
sS'OO.X...X.'
p3194
F0.5
sS'.XXO.OXOX'
p3195
F0.5
sS'.XXXO.OO.'
p3196
F0.9463129088000001
sS'OO.X...XX'
p3197
F0.5
sS'....O..XX'
p3198
F0.5
sS'.XOX...OX'
p3199
F0.5
sS'X...X..O.'
p3200
F0.5
sS'XXXOXOXOO'
p3201
I1
sS'OXX.OO..X'
p3202
F0.5
sS'OXO.OX.X.'
p3203
F0.5
sS'...XO..XO'
p3204
F0.5
sS'.XXXO..OO'
p3205
F0.6
sS'XX...XO.O'
p3206
F0.5
sS'.X.X.O.XO'
p3207
F0.5
sS'.OXOO..XX'
p3208
F0.982407813955584
sS'X.O.X...O'
p3209
F0.5
sS'.O.X.XOXO'
p3210
F0.8951424
sS'XX..OX..O'
p3211
F0.5
sS'.XOX.O.X.'
p3212
F0.5
sS'OXX.OOX.X'
p3213
F0.5
sS'XXOXOX.O.'
p3214
F0.5
sS'.X.O...X.'
p3215
F0.5
sS'.OX..X...'
p3216
F0.5
sS'O.XXXOOXO'
p3217
F0.9999999999999992
sS'X...OX.XO'
p3218
F0.5
sS'.XXO..OOX'
p3219
F0.8951424
sS'XX.XO.OXO'
p3220
F0.5
sS'X.XO.OO.X'
p3221
F0.982407813955584
sS'.X.O...XO'
p3222
F1.0
sS'OOOX.XXOX'
p3223
F0.0
sS'X...X.OXO'
p3224
F0.5
sS'.OX..X..O'
p3225
F0.5
sS'O.XXXOOX.'
p3226
F0.5
sS'OXX.OOX..'
p3227
F0.5
sS'.XXXO..O.'
p3228
F0.5
sS'X.O.X....'
p3229
F0.5
sS'.O.X.XOX.'
p3230
F0.5
sS'.XOX.O.XO'
p3231
F0.0
sS'XX.XOO..O'
p3232
F0.7952
sS'.O.XO.OXX'
p3233
F0.5
sS'O.XXOO..X'
p3234
F0.5
sS'..X...OOX'
p3235
F1.0
sS'.X.X.OO.X'
p3236
F0.5
sS'.XXOXOO..'
p3237
F0.9999999971051978
sS'..O.X....'
p3238
F0.5
sS'.O..OXX..'
p3239
F0.5
sS'..O.X...X'
p3240
F0.5
sS'.O..OXX.X'
p3241
F0.5
sS'.XXOXOO.X'
p3242
F0.5
sS'XXOXOXOO.'
p3243
F0.0
sS'...OXXX.O'
p3244
F0.5
sS'XXOXOX.OO'
p3245
F0.5
sS'OXO.O.X.X'
p3246
F1.0
sS'.X.X.OO..'
p3247
F0.5
sS'OXXOXOX..'
p3248
I1
sS'O.XXO.X..'
p3249
F0.5
sS'XX.XOO...'
p3250
F0.5
sS'OXXO.XOXO'
p3251
F0.0
sS'..OXX..OX'
p3252
F0.5
sS'.X.X.O...'
p3253
F0.5
sS'XOX.O..X.'
p3254
F0.5
sS'.XO.O.X.X'
p3255
F0.5
sS'.O..OX..X'
p3256
F1.0
sS'......X.O'
p3257
F0.5
sS'XXXX.OOO.'
p3258
I1
sS'.OXO.XX..'
p3259
F0.5
sS'X..OO.XXO'
p3260
F0.5
sS'O..XX.X.O'
p3261
F0.5
sS'......X..'
p3262
F0.5
sS'.OXO.XX.O'
p3263
F0.9999774820018632
sS'O.X.XO.OX'
p3264
F1.0
sS'X.O.OXXXO'
p3265
F0.5
sS'X..OO.XX.'
p3266
F0.5
sS'.O..XXOOX'
p3267
F0.5
sS'OOX.XXX.O'
p3268
I1
sS'O.XX.XXOO'
p3269
F0.5
sS'.XO.O.X..'
p3270
F0.5
sS'..OXX..O.'
p3271
F1.0
sS'XOX.O..XO'
p3272
F0.5
sS'XXXOXOOXO'
p3273
I1
sS'OX.O..XOX'
p3274
F0.5
sS'.OXOXX.OX'
p3275
I1
sS'.X.X..XOO'
p3276
F0.5
sS'..O....XX'
p3277
F0.5
sS'XO.OXXX.O'
p3278
F0.5
sS'XXXO.OOX.'
p3279
I1
sS'OOXXX.OX.'
p3280
F0.5
sS'XOOX..XOX'
p3281
I1
sS'OX.XOOXX.'
p3282
F0.5
sS'.O.XOXOXX'
p3283
F0.5
sS'X.XXOXO.O'
p3284
F0.5
sS'OOX.X.XXO'
p3285
I1
sS'.X.OOXXXO'
p3286
F0.5
sS'OOXXX.OXO'
p3287
F1.0
sS'.O.XOXOX.'
p3288
F0.5
sS'OX.XOOXXO'
p3289
F0.0
sS'XOOOX.X.X'
p3290
I1
sS'..OXO...X'
p3291
F0.5
sS'..O....X.'
p3292
F0.5
sS'XOOXOX.XO'
p3293
F0.9999999999999355
sS'O.OX..XOX'
p3294
F0.5
sS'.OXOXX.O.'
p3295
F0.9999995096014269
sS'O..X.OX..'
p3296
F0.5
sS'XOXXXO.O.'
p3297
F0.5
sS'X.O.OX.X.'
p3298
F0.5
sS'..O..XX.O'
p3299
F0.5
sS'.XOOOXXOX'
p3300
F0.5
sS'.XX.XOO.O'
p3301
F0.9999999954768716
sS'.X.O..XO.'
p3302
F0.5
sS'.XX..OX.O'
p3303
F0.5
sS'OX.XOX..O'
p3304
F0.0
sS'OOXX..OX.'
p3305
F0.5
sS'.XX.XOO..'
p3306
F0.5
sS'OOXOXXOX.'
p3307
F0.0
sS'XO.X.OO.X'
p3308
F0.9999999999999998
sS'OOXX..OXX'
p3309
F0.5
sS'.X.O..XOX'
p3310
F0.5
sS'OX.XOX...'
p3311
F0.5
sS'XX.OXXO.O'
p3312
F0.5
sS'XOXXXO.OO'
p3313
F0.5
sS'...O.X.OX'
p3314
F0.9999999985178614
sS'..O..XX..'
p3315
F0.5
sS'O..X.OX.X'
p3316
F0.5
sS'..XX.O.OX'
p3317
F0.5
sS'.OXXX...O'
p3318
F0.5
sS'O...XO.XX'
p3319
F0.5
sS'X..XO.OXO'
p3320
F0.5
sS'..O..OXX.'
p3321
F1.0
sS'X.OOX..XO'
p3322
F0.9999727774106463
sS'OXXO..XXO'
p3323
F0.5
sS'.XOXOO.X.'
p3324
F0.5
sS'OOXX.XXO.'
p3325
F0.5
sS'XO..XOX.O'
p3326
F0.9999999999999998
sS'OXXOOO.XX'
p3327
F0.0
sS'X.OOX..X.'
p3328
F0.5
sS'OOXX.XXOO'
p3329
F0.5
sS'XO..XOX..'
p3330
F0.5
sS'.XOXOO.XX'
p3331
F0.5
sS'XOX.OX.XO'
p3332
F0.5
sS'XX.X..O.O'
p3333
F0.5
sS'OX..XXOXO'
p3334
I1
sS'.O.OX.OXX'
p3335
F1.0
sS'..O..OXXX'
p3336
I1
sS'O...XO.X.'
p3337
F0.9999999929326118
sS'...O.OX.X'
p3338
F0.83616
sS'..XX.O.O.'
p3339
F0.5
sS'X..XO.OX.'
p3340
F0.5
sS'XOX.XO.XO'
p3341
F0.5
sS'OO.....XX'
p3342
F0.9981110534068522
sS'XXOX.OOXO'
p3343
F0.0
sS'X.X.O..OX'
p3344
F0.5
sS'XX..XOOXO'
p3345
I1
sS'XXO.X..O.'
p3346
F0.5
sS'XOXOO.OXX'
p3347
F0.9999999730400534
sS'X..XOXOO.'
p3348
F0.5
sS'OXXO.OXOX'
p3349
F0.9999999999999998
sS'OX.OXX.XO'
p3350
I1
sS'X.X..X.OO'
p3351
F0.5
sS'XXOX.OOX.'
p3352
F0.5
sS'X.X.O..O.'
p3353
F1.0
sS'XXO.X..OO'
p3354
F0.5
sS'OOX.X.X..'
p3355
I1
sS'X.OOXX...'
p3356
F0.5
sS'X.XO.X..O'
p3357
F0.5
sS'OX..X.OX.'
p3358
I1
sS'X.OXXO...'
p3359
F0.5
sS'.OO.XX...'
p3360
F1.0
sS'O.XXXXO.O'
p3361
I1
sS'XX...O...'
p3362
F0.5
sS'XOX..OXXO'
p3363
F0.5
sS'XOXO.X.O.'
p3364
F0.9999999999999998
sS'OXOOX.X.X'
p3365
F0.5
sS'X.XXO.OO.'
p3366
F0.9998377407231708
sS'.OX.OOX.X'
p3367
F0.9990328593443083
sS'.OOXXOXOX'
p3368
F0.5
sS'.OX.X.O.X'
p3369
F0.5
sS'XO...X..O'
p3370
F0.5
sS'XX...O..O'
p3371
F1.0
sS'.OX.X.O..'
p3372
F0.5
sS'.OO.XX..X'
p3373
F0.5
sS'X.XXO.OOX'
p3374
F0.5
sS'XO.OXO.XX'
p3375
I1
sS'OXOOX.X..'
p3376
F0.9999999999999998
sS'XO...X...'
p3377
F0.5
sS'X.OOXX..O'
p3378
F0.5
sS'XXX.OO...'
p3379
I1
sS'X.X.XOXOO'
p3380
I1
sS'XXXOOXOOX'
p3381
I1
sS'X.OXXO..O'
p3382
F0.0
sS'.XO.XO.X.'
p3383
I1
sS'..X.XO.O.'
p3384
F1.0
sS'.XX.O.O..'
p3385
F0.9999999999998425
sS'O..XOX.X.'
p3386
F0.5
sS'OOXXXXXOO'
p3387
I1
sS'.O.X..X..'
p3388
F0.5
sS'X....O..X'
p3389
F0.5
sS'O..XX...O'
p3390
F1.0
sS'.O.OXXX..'
p3391
F0.5
sS'.OXO.X..X'
p3392
I1
sS'O..XXO.XO'
p3393
F0.9998377407231708
sS'X.O.OX.OX'
p3394
F0.5
sS'.O.X..X.O'
p3395
F1.0
sS'.OXO.X...'
p3396
F0.9999999997513384
sS'O..XX....'
p3397
F0.5
sS'.O.OXXX.O'
p3398
F0.9999999999999998
sS'O.XO..X.X'
p3399
F0.5
sS'..X.OX.XO'
p3400
F0.5
sS'X..OXOOXX'
p3401
I1
sS'O..XXO.X.'
p3402
F0.5
sS'XXO.O.O.X'
p3403
F0.0
sS'XXX..OOXO'
p3404
I1
sS'.XX.O.O.X'
p3405
F0.5
sS'..X.XO.OX'
p3406
F0.5
sS'OXXOX..OX'
p3407
F0.5
sS'OOXXXO.OX'
p3408
F0.9999999999999931
sS'.XXOOOOXX'
p3409
F0.0
sS'XX....OO.'
p3410
F0.9999999999999998
sS'XO.XO.XXO'
p3411
I1
sS'X.OO.XXXO'
p3412
F0.5
sS'OO.X.O.XX'
p3413
F0.8951424
sS'OOX.XOX.X'
p3414
I1
sS'.XO....OX'
p3415
F0.5
sS'..OXO.X.X'
p3416
F0.5
sS'OOOXX...X'
p3417
F0.0
sS'..OXO.X..'
p3418
F0.9999999999999998
sS'...X.O..X'
p3419
F0.5
sS'XXOXOO.OX'
p3420
F1.0
sS'OXX.XO.XO'
p3421
I1
sS'OXX.XXO.O'
p3422
F0.5
sS'X...XO.XO'
p3423
F0.5
sS'OXXOX..O.'
p3424
F0.9999992337522295
sS'O.XOX.XXO'
p3425
I1
sS'..XXOOO.X'
p3426
F0.5
sS'.O.XXOX..'
p3427
F0.5
sS'..O...X..'
p3428
F0.5
sS'O.X...X.O'
p3429
F1.0
sS'X.X.OOXO.'
p3430
F0.5
sS'...OX..OX'
p3431
F1.0
sS'XO.OX.X.O'
p3432
F1.0
sS'OOX.X...X'
p3433
F0.5
sS'OXOXX..OX'
p3434
F0.5
sS'XOOXOX.X.'
p3435
F0.5
sS'O..XOO.XX'
p3436
F0.868928
sS'...O.XX.O'
p3437
F0.5
sS'..X..XO.O'
p3438
F0.5
sS'.OXOXXO..'
p3439
F1.0
sS'X.XXO..OO'
p3440
F0.5
sS'OO.X....X'
p3441
F0.5
sS'.....X.XO'
p3442
F0.5
sS'XXOOO.XXO'
p3443
F0.5
sS'.XOXO.XO.'
p3444
F0.9909928007452591
sS'X..O.XO.X'
p3445
F0.5
sS'..X..OX.O'
p3446
F0.91611392
sS'.XOXO.XOX'
p3447
F0.5
sS'X.XXO..O.'
p3448
F0.5
sS'X..O.XO..'
p3449
F0.5
sS'XXOOO.XX.'
p3450
F0.5
sS'..X..OX..'
p3451
F0.5
sS'.O.XXOX.O'
p3452
F0.9963106511852582
sS'..X.OOOXX'
p3453
F0.5
sS'OOX.X....'
p3454
F1.0
sS'O.X...X..'
p3455
F0.5
sS'XXXOO.O.X'
p3456
I1
sS'XO.OX.X..'
p3457
F0.5
sS'OXOXX..O.'
p3458
F0.9999999861965073
sS'..O...X.X'
p3459
F0.5
sS'.OO.XX.X.'
p3460
F0.5
sS'...O.XX..'
p3461
F0.5
sS'X.X.OOXOX'
p3462
F0.5
sS'.OXX.O.OX'
p3463
F0.5
sS'.OX.OOXX.'
p3464
F1.0
sS'.......X.'
p3465
F0.5
sS'XOO..X.XO'
p3466
F0.5
sS'..OO...XX'
p3467
F0.9976388167585652
sS'.OO.X..X.'
p3468
F0.5
sS'.XOO...XX'
p3469
F0.5
sS'O...X..X.'
p3470
F0.5
sS'OO.XXX.OX'
p3471
I1
sS'OOXXOXOXX'
p3472
I1
sS'.O..XOXX.'
p3473
F0.5
sS'OX.OXO..X'
p3474
F0.9999995096014269
sS'.O..XOXXO'
p3475
F0.9999999999999998
sS'...XOOXOX'
p3476
F0.9999999999999998
sS'XOOOX.X..'
p3477
F0.9999999999971332
sS'X.OXXX.OO'
p3478
I1
sS'..XOO.XOX'
p3479
F0.6799999999999999
sS'.OXX.XXOO'
p3480
F0.5
sS'.OX.OOXXX'
p3481
I1
sS'.XOO...X.'
p3482
F1.0
sS'XXX.OOX.O'
p3483
I1
sS'.OO.X..XX'
p3484
F0.5
sS'OXOXX.OOX'
p3485
F0.9999999999999998
sS'.X.OX....'
p3486
F0.5
sS'XOO..X.X.'
p3487
F0.5
sS'X..XOX..O'
p3488
F0.5
sS'OX.X..XO.'
p3489
F0.5
sS'O.OO.XX.X'
p3490
F0.95705032704
sS'XOO.X...X'
p3491
I1
sS'XO.X..OOX'
p3492
F0.9999999999999998
sS'O....XXXO'
p3493
F0.5
sS'X.O.X..OX'
p3494
I1
sS'X.XXOOX.O'
p3495
I1
sS'OX...O..X'
p3496
F0.5
sS'X.O.X..O.'
p3497
F0.9999999999999998
sS'XXOOOX.OX'
p3498
F0.5
sS'XX..OO..X'
p3499
F0.5
sS'.OXOXO..X'
p3500
F0.9984888427254818
sS'O..OXXXXO'
p3501
F0.5
sS'XOO.X....'
p3502
F1.0
sS'XX.O.X..O'
p3503
F0.5
sS'O..XX..XO'
p3504
F0.5
sS'OX.X..XOO'
p3505
F0.5
sS'X.OXO..OX'
p3506
F0.91611392
sS'XO.XXO.OX'
p3507
I1
sS'.X.OX.OX.'
p3508
I1
sS'.XX.OX.O.'
p3509
F0.5
sS'.X.OO.XXO'
p3510
F0.5
sS'.OXOXOX.X'
p3511
I1
sS'XXOX...OO'
p3512
F0.9999860620342509
sS'.XX....OO'
p3513
F1.0
sS'X..XOXXOO'
p3514
I1
sS'.X.OXOXXO'
p3515
I1
sS'.XX....O.'
p3516
F0.5
sS'O.XX...XO'
p3517
F0.5
sS'OX...OXOX'
p3518
F0.5
sS'OXX.OOXOX'
p3519
F0.5
sS'XO.XX.OOX'
p3520
I1
sS'.XX.OX.OO'
p3521
F0.744
sS'XO.XXO.O.'
p3522
F0.9999999999999998
sS'.X.OO.XX.'
p3523
F0.5
sS'.O.XXOO.X'
p3524
F1.0
sS'O.X......'
p3525
F0.5
sS'X..OX..OX'
p3526
I1
sS'.OXO.XOXX'
p3527
I1
sS'XOO.X.X.O'
p3528
F0.9999999999999998
sS'XOOOX..X.'
p3529
F0.9997464698799543
sS'XO.XX..O.'
p3530
F0.5
sS'.....OX..'
p3531
F0.5
sS'.O.X.O.XX'
p3532
F0.5
sS'.XXO..O..'
p3533
F0.9999999999999994
sS'.X.OOXX.O'
p3534
F0.5
sS'.O.X....X'
p3535
F0.5
sS'.XXOOOX..'
p3536
F0.0
sS'.O.X.....'
p3537
F0.5
sS'.X.OOXX..'
p3538
F0.5
sS'.XO..X.XO'
p3539
F0.5
sS'.XXO..O.X'
p3540
F0.5
sS'.O.X.O.X.'
p3541
F0.5
sS'O..O..X.X'
p3542
F0.9998377407231708
sS'XOO.OX.X.'
p3543
F0.5
sS'O.X.XOXXO'
p3544
I1
sS'OOXXXX..O'
p3545
I1
sS'.....OX.X'
p3546
F0.5
sS'X.OXO.XXO'
p3547
I1
sS'OXX..OXXO'
p3548
F0.5
sS'X..OX..O.'
p3549
F0.9999999999999998
sS'O.X.....X'
p3550
F0.5
sS'XOO.X.X..'
p3551
F0.5
sS'O.XXX.XOO'
p3552
I1
sS'XO.XX..OO'
p3553
F0.9999999999999998
sS'O.XOXOXX.'
p3554
I1
sS'.XOXOXXO.'
p3555
F0.5
sS'XOOOXX..X'
p3556
I1
sS'O.OX..X.X'
p3557
F0.5
sS'OX.OOXX..'
p3558
F0.5
sS'XX.O..O..'
p3559
F0.9999999999999998
sS'..O.XXOOX'
p3560
F0.9976388167585652
sS'.XO.XOXOX'
p3561
F0.5
sS'XOXOX..O.'
p3562
F0.9999999999999998
sS'..OXXOO.X'
p3563
F0.999999999689173
sS'.XXOXXO.O'
p3564
F0.5
sS'OXX.O.XOX'
p3565
F0.5
sS'OXX.O.XO.'
p3566
F0.5
sS'XOXOX..OX'
p3567
I1
sS'XX.O..O.X'
p3568
F0.5
sS'OX.OOXX.X'
p3569
F0.5
sS'XOOOXX...'
p3570
F0.9999999963814973
sS'XXOX..OOX'
p3571
F0.5
sS'O.OX..X..'
p3572
F0.5
sS'XOXXXO..O'
p3573
F0.5
sS'XXO...OXO'
p3574
F1.0
sS'..XOXX.O.'
p3575
F0.5
sS'XO.X.XXOO'
p3576
I1
sS'O.O.OX.XX'
p3577
F0.9999992337522295
sS'..OX.X...'
p3578
F0.5
sS'XOOX..X..'
p3579
I1
sS'.XO.XXOXO'
p3580
I1
sS'XOX.OX..O'
p3581
F0.5
sS'XOX...O.X'
p3582
F0.5
sS'XOX...O..'
p3583
F0.5
sS'..OX.X..O'
p3584
F0.9999999999999998
sS'OOOXX.XOX'
p3585
F0.0
sS'O.XO.XOX.'
p3586
F0.0
sS'XOX.OX...'
p3587
F0.5
sS'..XOXX.OO'
p3588
F0.9999999999998992
sS'XXO...OX.'
p3589
F0.5
sS'..X.OXXOO'
p3590
F0.5
sS'XOOOXXOX.'
p3591
F1.0
sS'OOX.XX...'
p3592
F0.5
sS'XXXOX.O.O'
p3593
I1
sS'OXOX..XXO'
p3594
F0.5
sS'OX.OXX..O'
p3595
F0.9999999999999998
sS'.XOOOXOXX'
p3596
F0.0
sS'OX.....X.'
p3597
F0.5
sS'.OXOXOXX.'
p3598
I1
sS'.X..XOOOX'
p3599
F1.0
sS'.XOXOXO..'
p3600
F0.0
sS'OX.OXX...'
p3601
F0.5
sS'OOX..XXXO'
p3602
F0.5
sS'.OO...X.X'
p3603
F0.9970485209482065
sS'..OXOX.XO'
p3604
F0.5
sS'XX..OO...'
p3605
F1.0
sS'......XXO'
p3606
F0.5
sS'..X.OXXO.'
p3607
F0.5
sS'XXX.OX.OO'
p3608
I1
sS'XOOXXXOOX'
p3609
I1
sS'XXX..OXOO'
p3610
I1
sS'OOX.XX..O'
p3611
F0.9999999999999998
sS'OXXX.XO.O'
p3612
F0.4
sS'XOOOXXOXX'
p3613
I1
sS'XX.O.O...'
p3614
F1.0
sS'.O.OXOX.X'
p3615
F0.5
sS'.O.X...X.'
p3616
F0.5
sS'XOO...X..'
p3617
F0.9999999999999587
sS'XO.X.OOXX'
p3618
F0.5
sS'OO.XO.XX.'
p3619
F0.6
sS'OX.O.OXXX'
p3620
I1
sS'XOX...XO.'
p3621
F0.5
sS'XO..XO.XO'
p3622
F0.5
sS'.OO.XOX.X'
p3623
F0.9859262511644672
sS'XOX...XOO'
p3624
F0.9999999999999998
sS'OO.XO.XXX'
p3625
I1
sS'XO..XO.X.'
p3626
F0.5
sS'XOOXX.XO.'
p3627
I1
sS'OX.O.OXX.'
p3628
F1.0
sS'XOO...X.X'
p3629
F0.5
sS'XO.X.OOX.'
p3630
F0.5
sS'.XOX.X..O'
p3631
F0.5
sS'XX.O.O..X'
p3632
F0.5
sS'XXOO..O.X'
p3633
F0.9997464698799543
sS'XOXOXOXOX'
p3634
I1
sS'.OOXOX.XX'
p3635
F0.5
sS'OOOXXOX.X'
p3636
F0.0
sS'XO...XOOX'
p3637
F0.9999999999999998
sS'.OXXX.OXO'
p3638
F0.5
sS'X.XO.XOXO'
p3639
F0.5
sS'OXOOXXX..'
p3640
F0.5
sS'OXXXXOOOX'
p3641
F0.5
sS'....XX.O.'
p3642
F0.5
sS'X.OX.OOXX'
p3643
F0.5
sS'....XXOOX'
p3644
F0.5
sS'.X.XOX..O'
p3645
F0.5
sS'....XXOO.'
p3646
F0.9999999999999998
sS'OX..OO.XX'
p3647
F0.9976388167585652
sS'OXOOXXX.O'
p3648
F1.0
sS'....XX.OO'
p3649
F0.9999999999999998
sS'.XOO.X.X.'
p3650
F0.5
sS'...OX.O.X'
p3651
F1.0
sS'O..X.O..X'
p3652
F0.5
sS'...XX.XOO'
p3653
F0.5
sS'X.XO..OX.'
p3654
F0.5
sS'XO.O.XXOX'
p3655
F0.5
sS'OXXXOO.XO'
p3656
F0.0
sS'OXX....XO'
p3657
F0.5
sS'..XXXOOXO'
p3658
F0.5
sS'XO..XX..O'
p3659
F0.5
sS'OXXXOO.X.'
p3660
F0.5
sS'XO.O.XXO.'
p3661
F0.5
sS'X.XO..OXO'
p3662
F0.9999999999999999
sS'..XXOXO.O'
p3663
F0.5
sS'..XO.X.O.'
p3664
F0.9999999999666251
sS'OOOX.XX..'
p3665
F0.0
sS'.O...X.X.'
p3666
F0.5
sS'..O.XO.X.'
p3667
F0.9999910797019206
sS'X.O.OX...'
p3668
F0.5
sS'X.X.OO...'
p3669
F1.0
sS'OXXOX...O'
p3670
F0.9999998714449565
sS'OOX.O..XX'
p3671
F0.9999999999999998
sS'.XX.O..XO'
p3672
F0.5
sS'.O...X.XO'
p3673
F0.5
sS'X.X.OO..X'
p3674
F0.5
sS'.XOOOXX.X'
p3675
F0.5
sS'O..OXX.XO'
p3676
F0.9999999999999998
sS'OXXOX....'
p3677
F0.5
sS'X.O.OX..X'
p3678
F0.5
sS'..O.XO.XX'
p3679
F0.5
sS'..XXOXO..'
p3680
F0.5
sS'XX..O.X.O'
p3681
F0.5
sS'..XO.X.OX'
p3682
I1
sS'..O.O..XX'
p3683
F1.0
sS'X.X.OOX.O'
p3684
F0.9999999999733001
sS'O.OX.XX.O'
p3685
F0.6799999999999999
sS'.OOXO.XX.'
p3686
F0.9992262874754466
sS'O.X...XOX'
p3687
F0.5
sS'..O...XOX'
p3688
F0.5
sS'XO.XOOXX.'
p3689
I1
sS'X.OOO.XXX'
p3690
I1
sS'X...OO.XX'
p3691
F0.5
sS'..X..XOOX'
p3692
I1
sS'OOX.O.XX.'
p3693
F0.999999999984
sS'.X.O.OXX.'
p3694
F0.5
sS'OXO...XX.'
p3695
F0.5
sS'.XX..XOO.'
p3696
F0.5
sS'XOOXOXO.X'
p3697
F0.0
sS'O..XOOX.X'
p3698
F0.9999996861449132
sS'XOO...XX.'
p3699
F0.5
sS'O...X.XXO'
p3700
F0.5
sS'OXO...XXO'
p3701
F0.9999999999999998
sS'..X..XOO.'
p3702
F0.9999993870017836
sS'X...OO.X.'
p3703
F0.5
sS'.XX..XOOO'
p3704
F0.0
sS'OOX.O.XXX'
p3705
I1
sS'X.X.OOX..'
p3706
F0.5
sS'O.OX.XX..'
p3707
F0.5
sS'X.OOO.XX.'
p3708
F0.965640261632
sS'.OOXO.XXX'
p3709
I1
sS'O.X...XO.'
p3710
F1.0
sS'...XOO.X.'
p3711
F0.5
sS'O.XO.XX..'
p3712
F0.5
sS'.OXO.XXO.'
p3713
F0.6799999999999999
sS'X......O.'
p3714
F0.5
sS'O.X.O.X..'
p3715
F0.5
sS'O.OXX.X..'
p3716
F0.5
sS'.X.OX..OX'
p3717
F0.5
sS'XX.OOXO..'
p3718
F0.8951424
sS'.OO.OXXXX'
p3719
I1
sS'.XX.XOXOO'
p3720
I1
sS'.OO.OXXX.'
p3721
F0.744
sS'OXXO.OOXX'
p3722
F0.0
sS'XX.OOXO.X'
p3723
F0.5
sS'.X.OX..O.'
p3724
F0.5
sS'O..OX.OXX'
p3725
F0.0
sS'.XOXOXOXO'
p3726
F0.0
sS'XXOXX..OO'
p3727
F0.5
sS'O.X.O.X.X'
p3728
F0.5
sS'O.XO..XOX'
p3729
F0.9999574647041348
sS'O.XO.XX.O'
p3730
F0.991203906977792
sS'X..O.OOXX'
p3731
F1.0
sS'...XOO.XX'
p3732
F0.5
sS'O.OXX.X.O'
p3733
F0.83616
sS'.OXO.XXOX'
p3734
I1
sS'XX.O.X.OO'
p3735
F1.0
sS'X..XX.OO.'
p3736
F0.5
sS'OXXXOXO..'
p3737
F0.5
sS'.XXOOX..O'
p3738
F0.6
sS'O.OXOX.X.'
p3739
F0.5
sS'..O.X.O.X'
p3740
F1.0
sS'XO.XO.X..'
p3741
I1
sS'XXX.OXOO.'
p3742
I1
sS'OX.OX.XO.'
p3743
F0.9999999999999998
sS'O..X.XXO.'
p3744
F0.5
sS'O.O.OXXX.'
p3745
F0.6
sS'X...OXX.O'
p3746
F0.5
sS'O.O.OXXXX'
p3747
I1
sS'XO...O.XX'
p3748
F0.5
sS'OX.OX.XOX'
p3749
F0.5
sS'O..X.XXOO'
p3750
F1.0
sS'XX.O.X.O.'
p3751
F0.5
sS'X..XX.OOO'
p3752
F0.0
sS'O.OXOX.XX'
p3753
F0.5
sS'OXXXOXO.O'
p3754
F0.0
sS'.XXOOX...'
p3755
F0.5
sS'.....XOOX'
p3756
F0.9999997991327445
sS'OXOXOXOX.'
p3757
I0
sS'XX.OXXOOO'
p3758
F0.0
sS'XXO.X.O.O'
p3759
F0.9999999999999971
sS'.OXX.OXXO'
p3760
F0.5
sS'...O.X..X'
p3761
F0.5
sS'OXX.OXOX.'
p3762
F0.5
sS'.O.XXO...'
p3763
F0.5
sS'OO..X..X.'
p3764
F0.5
sS'O.XXO.OX.'
p3765
F0.5
sS'OO.X.XXOX'
p3766
F0.5
sS'XXOOXO...'
p3767
F0.9999999784320427
sS'..OOOXXXX'
p3768
I1
sS'.XXO..OXO'
p3769
F0.9999999999999878
sS'OXOX.OXXO'
p3770
F0.0
sS'.XOX..XOO'
p3771
F0.9963106511852582
sS'O...O.XXX'
p3772
I1
sS'OXO.OXOXX'
p3773
F0.0
sS'X.XXOXOO.'
p3774
F0.5
sS'.XX.O.XOO'
p3775
F0.9999999889572059
sS'...OX.OX.'
p3776
F1.0
sS'.XXO..OX.'
p3777
F0.5
sS'OXOX.OXX.'
p3778
F0.5
sS'.XOX..XO.'
p3779
F0.5
sS'..OOOXXX.'
p3780
F0.7952
sS'XXOOXO..X'
p3781
I1
sS'.XOXXXO.O'
p3782
I1
sS'O...O.XX.'
p3783
F1.0
sS'X.XXOXOOO'
p3784
F0.0
sS'XO.X..O.X'
p3785
F0.5
sS'O.XXO.OXX'
p3786
F0.5
sS'XXO.X.O..'
p3787
F0.5
sS'OO..X..XX'
p3788
F0.5
sS'OO.X.XXO.'
p3789
F1.0
sS'X..XOOXXO'
p3790
I1
sS'OXX.OXOXO'
p3791
F0.0
sS'..O.....X'
p3792
F0.5
sS'.O.XXO..X'
p3793
F0.5
sS'...O.X...'
p3794
F0.5
sS'......O.X'
p3795
F0.5
sS'...OXXOXO'
p3796
F0.9999999999999998
sS'XO..O...X'
p3797
F0.5
sS'.X...OX.O'
p3798
F0.5
sS'OOXX.OXOX'
p3799
F1.0
sS'O.X.XO.X.'
p3800
F0.5
sS'OXX.X.XOO'
p3801
I1
sS'..OOXXOX.'
p3802
F0.9953883139815727
sS'.OX...OXX'
p3803
F0.5
sS'OX.XOX.O.'
p3804
F0.5
sS'.OOXXX.OX'
p3805
I1
sS'OX..XXO.O'
p3806
F0.9999999999999998
sS'XOOOXOXX.'
p3807
F0.5
sS'..OOX.OXX'
p3808
F0.91611392
sS'OOXXX.X.O'
p3809
I1
sS'OX.XOX.OX'
p3810
F0.5
sS'O.X.XO.XO'
p3811
F0.9942353924769658
sS'XOOOXOXXX'
p3812
I1
sS'X.OOO.X.X'
p3813
F0.9992262874754466
sS'.OX...OX.'
p3814
F0.5
sS'..OOXXOXX'
p3815
F0.5
sS'OX..XXO..'
p3816
F0.5
sS'.OXX.XO..'
p3817
F0.5
sS'X.XO.....'
p3818
F0.5
sS'O.O..X..X'
p3819
F0.5
sS'XX..XOXOO'
p3820
F0.5
sS'.OX..OXXO'
p3821
F0.9987910741803854
sS'OX.OOXXOX'
p3822
F0.999999999999874
sS'..X.XOO..'
p3823
F0.5
sS'OXXO.OX..'
p3824
F0.9999999999999998
sS'...O.O.XX'
p3825
F0.7952
sS'.OXOXX.XO'
p3826
F0.5
sS'X.XO..XOO'
p3827
F0.9999999999999998
sS'..OXXX.O.'
p3828
I1
sS'XO..XOXO.'
p3829
F0.5
sS'OXXXO.OXO'
p3830
F0.0
sS'..OO.X..X'
p3831
F0.5
sS'XO..XOXOX'
p3832
I1
sS'X.XO..XO.'
p3833
F0.5
sS'XO..XOOXX'
p3834
I1
sS'OXXXO.OX.'
p3835
F0.5
sS'.OX..OXX.'
p3836
F0.5
sS'OXXO.OX.X'
p3837
F0.5
sS'....XO.OX'
p3838
F1.0
sS'OXXOX.X.O'
p3839
I1
sS'.OO.X.XOX'
p3840
F0.9953883139815727
sS'..X.XOO.X'
p3841
F0.5
sS'OOXXOXOX.'
p3842
F1.0
sS'OX..X..O.'
p3843
F0.5
sS'O..XOXOXX'
p3844
F0.5
sS'XXO..OX..'
p3845
F0.4
sS'.XX..O..O'
p3846
F1.0
sS'XO.O...X.'
p3847
F0.5
sS'..OXX.OX.'
p3848
F0.5
sS'O.XXOXXOO'
p3849
F0.0
sS'X.XXOX.OO'
p3850
F0.5
sS'.O..X.O.X'
p3851
F0.9999999999998992
sS'.O.XO.XX.'
p3852
F0.5
sS'.XX..X.OO'
p3853
F0.5
sS'O.XXOXXO.'
p3854
F0.5
sS'.X..O.O.X'
p3855
F0.5
sS'XOOXO.XX.'
p3856
I1
sS'.OX.X.XO.'
p3857
I1
sS'.O.XO.XXO'
p3858
F0.6799999999999999
sS'XO.O...XX'
p3859
F0.5
sS'XXXOOXO..'
p3860
I1
sS'XXO..OX.O'
p3861
F0.0
sS'.XX..O...'
p3862
F0.5
sS'.O.X.X.XO'
p3863
F0.5
sS'O..XOXOX.'
p3864
F0.5
sS'..OXX.OXO'
p3865
F0.95705032704
sS'O.X..XXO.'
p3866
F0.5
sS'...OXX.OX'
p3867
F0.5
sS'OOO..XXX.'
p3868
F0.0
sS'.X..X.XOO'
p3869
F0.5
sS'.OOXXOX..'
p3870
F0.9963106511852582
sS'X.OOOXXX.'
p3871
F0.5
sS'XOOXO..X.'
p3872
F0.9859262511644672
sS'.X.XXOOXO'
p3873
I1
sS'XOOXO..XX'
p3874
F0.5
sS'X.OOOXXXO'
p3875
F0.5
sS'.OX.OXXXO'
p3876
F0.5
sS'.OOXXOX.X'
p3877
F0.5
sS'.XOOXOXX.'
p3878
I1
sS'XX.OXX.OO'
p3879
F0.5
sS'O.O.XOX.X'
p3880
F0.9927942405962072
sS'OX.XXOO.X'
p3881
F0.5
sS'...OXX.O.'
p3882
F0.5
sS'.XOX.X.OO'
p3883
F0.9992262874754466
sS'.XX..OOX.'
p3884
F0.5
sS'OXOOXOX.X'
p3885
F0.5
sS'OX.XXO...'
p3886
F0.5
sS'O.OOXX..X'
p3887
F0.5
sS'O.X.OOXXX'
p3888
I1
sS'...O..XXO'
p3889
F0.5
sS'OX.OXOXX.'
p3890
I1
sS'...O..XX.'
p3891
F0.5
sS'O.X.X.X.O'
p3892
I1
sS'.O.XXXXOO'
p3893
I1
sS'.OO.XO.XX'
p3894
F0.91611392
sS'O.X.OOXX.'
p3895
F0.744
sS'.XX..OOXO'
p3896
F0.99999999999998
sS'.XOX.X.O.'
p3897
F0.5
sS'OX.XXO..O'
p3898
F0.8951424
sS'XOX...OX.'
p3899
F0.5
sS'.OOX.XOX.'
p3900
F0.5
sS'OX.XX.OXO'
p3901
I1
sS'XO...XO.X'
p3902
F0.5
sS'OO.OX..XX'
p3903
F0.9990328593443083
sS'.O.OXXOXX'
p3904
F0.5
sS'.OOO.XXXX'
p3905
I1
sS'X..OXOX..'
p3906
F0.5
sS'XXOOXOX.O'
p3907
F0.0
sS'...O...X.'
p3908
F0.5
sS'XXO...O..'
p3909
F0.5
sS'XX.X.O.O.'
p3910
F0.5
sS'OOXX..XOX'
p3911
F0.5
sS'X..O.XXOO'
p3912
F0.5
sS'OOXOXO.XX'
p3913
F0.5
sS'OXO.OXXX.'
p3914
F0.5
sS'XO.O.X.X.'
p3915
F0.5
sS'X..OXOX.O'
p3916
F1.0
sS'OOXX..XO.'
p3917
F0.9981110534068522
sS'XXOOXOX..'
p3918
F0.5
sS'XX.X.O.OO'
p3919
F0.6
sS'XOO.XX.O.'
p3920
F1.0
sS'O...XOOXX'
p3921
F0.9996038591874287
sS'X..O.XXO.'
p3922
F0.5
sS'.OO.OX.XX'
p3923
F0.5
sS'...OX.XXO'
p3924
F0.5
sS'XX.O.OOX.'
p3925
F0.9999996076811415
sS'XXO...O.X'
p3926
F0.5
sS'XOX...OXO'
p3927
F0.5
sS'XOX.O.XO.'
p3928
F0.0
sS'OOOXOX.XX'
p3929
F0.0
sS'.O.OXXOX.'
p3930
F0.5
sS'.OOX.XOXX'
p3931
F0.5
sS'X..XXOOO.'
p3932
F0.9999999999999998
sS'XO...XO..'
p3933
F0.5
sS'.X..OX.O.'
p3934
F0.5
sS'O.OO.XXXX'
p3935
I1
sS'X.XOOO.X.'
p3936
F0.0
sS'XOXX..OXO'
p3937
F0.5
sS'X....OX.O'
p3938
F0.9999999999999998
sS'O.XX.....'
p3939
F0.5
sS'OXO..XOXX'
p3940
F0.5
sS'O.XOXXXO.'
p3941
I1
sS'OX..XOXOX'
p3942
F0.5
sS'X..OO.X.X'
p3943
F0.5
sS'X.O.X.O.X'
p3944
I1
sS'X.XXO...O'
p3945
F0.5
sS'XOO.OX.XX'
p3946
F0.5
sS'OXO..XOX.'
p3947
F0.9990328593443083
sS'OX..XOXO.'
p3948
F0.9999999999999998
sS'X.X.O..XO'
p3949
F0.5
sS'X..X.XO.O'
p3950
F0.5
sS'XOX.OO..X'
p3951
F0.5
sS'X....OX..'
p3952
F0.5
sS'O.XX....O'
p3953
F0.5
sS'XOXX.XO.O'
p3954
F0.5
sS'...O.XXXO'
p3955
F0.5
sS'XXO.O.XXO'
p3956
F0.5
sS'XOO..XXO.'
p3957
F1.0
sS'OX.X..X.O'
p3958
F0.5
sS'..O.X..XO'
p3959
F0.9999999999999998
sS'.O....X..'
p3960
F0.5
sS'..X.XXOO.'
p3961
F0.5
sS'..OOXXXO.'
p3962
F0.5
sS'.X.O.X.O.'
p3963
F0.5
sS'O....XO.X'
p3964
F0.9999999993929161
sS'OXXOX.O..'
p3965
F0.0
sS'X.XX.O..O'
p3966
F0.5
sS'.X.O.X.OX'
p3967
F0.5
sS'..OOXXXOX'
p3968
F0.5
sS'..X.XXOOO'
p3969
F0.0
sS'.XXXO.XOO'
p3970
F0.5
sS'OX...O.X.'
p3971
F1.0
sS'.O....X.X'
p3972
F0.5
sS'OXXX....O'
p3973
F0.5
sS'..O.X..X.'
p3974
F0.5
sS'XOO..XXOX'
p3975
F0.5
sS'OO.X..X.X'
p3976
F0.5
sS'...X..O..'
p3977
F0.5
sS'.XX.OX..O'
p3978
F0.5
sS'XX..OO.OX'
p3979
F0.9999997489159306
sS'.O..X..XO'
p3980
F0.5
sS'X.O.XXOXO'
p3981
F0.5
sS'..XXX..OO'
p3982
F0.5
sS'X..OXOXXO'
p3983
F0.5
sS'.OXXO.OXX'
p3984
F0.5
sS'.XOX.OO.X'
p3985
F0.5
sS'OXX.OOOXX'
p3986
F0.5
sS'..X.OOXXO'
p3987
F0.5
sS'OXOXOXX.O'
p3988
F0.0
sS'X.O..O.X.'
p3989
F0.49180788243509477
sS'..OXXO.OX'
p3990
F1.0
sS'.XO..OOXX'
p3991
F1.0
sS'.....XOX.'
p3992
F0.5
sS'X.O..O.XX'
p3993
F0.5
sS'..X.OOXX.'
p3994
F0.5
sS'O.O.XO.XX'
p3995
F0.9995048239842859
sS'O..X.XX.O'
p3996
F0.5
sS'X.OXX.O..'
p3997
F0.5
sS'.OXXO.OX.'
p3998
F0.5
sS'.O..X..X.'
p3999
F0.5
sS'OO.X..X..'
p4000
F0.5
sS'...X..O.X'
p4001
F0.5
sS'X.......O'
p4002
F0.5
sS'X..O.O..X'
p4003
F0.9999999963814973
sS'OXXXXOO..'
p4004
F0.5
sS'O.XO.O.XX'
p4005
F0.9999999999478518
sS'.O..XXXO.'
p4006
F0.5
sS'XO.XX...O'
p4007
F0.5
sS'OOXOXXX..'
p4008
I1
sS'...XOOXX.'
p4009
F0.5
sS'.XXO..XO.'
p4010
F0.5
sS'...XOOXXO'
p4011
F0.965640261632
sS'O.....XXO'
p4012
F0.5
sS'.XXO..XOO'
p4013
F0.9999999911657647
sS'.O.OX.XOX'
p4014
F0.9987910741803854
sS'X........'
p4015
F0.5
sS'OOXXXX.O.'
p4016
I1
sS'OXXXXOO.O'
p4017
F1.0
sS'OXX.O....'
p4018
F0.4999989106029747
sS'O.XO..X..'
p4019
F1.0
sS'.O..XXXOO'
p4020
F1.0
sS'XOOXX.X.O'
p4021
I1
sS'OXO.XXX.O'
p4022
F0.5
sS'.....XOXO'
p4023
F0.5
sS'OO.OX.XXX'
p4024
I1
sS'XOOXXOOX.'
p4025
F0.9999999999999998
sS'OXXXOXOOX'
p4026
I1
sS'XXO..XXOO'
p4027
F0.5
sS'O..XXX..O'
p4028
I1
sS'.X.OOXXO.'
p4029
F0.5
sS'.XOXOOOXX'
p4030
F0.0
sS'.XOX..OOX'
p4031
F0.5
sS'XO.XOOX.X'
p4032
I1
sS'XXOXO..XO'
p4033
F0.5
sS'X.OO.X.OX'
p4034
F0.9999999999999998
sS'.X.OOXXOX'
p4035
F0.5
sS'OXXXOXOO.'
p4036
F0.5
sS'OO.OX.XX.'
p4037
F0.9463129088000001
sS'.X.OXOOXX'
p4038
I1
sS'X.O..X.XO'
p4039
F0.5
sS'X.OXOXXO.'
p4040
I1
sS'O...X..OX'
p4041
F0.5
sS'.X.XXO.OO'
p4042
F0.5
sS'..OXOXXO.'
p4043
F0.868928
sS'...O.X.X.'
p4044
F0.5
sS'OO.OXX.XX'
p4045
F0.5
sS'X.OX.XO.O'
p4046
F0.9999999999999998
sS'.XXOXXOO.'
p4047
F0.5
sS'OOO.XXXXO'
p4048
F0.0
sS'X.OX.XO..'
p4049
F0.5
sS'OXX..XOXO'
p4050
F0.5
sS'.XXOX.OXO'
p4051
I1
sS'.OXXOOOXX'
p4052
F0.5
sS'OO.OXX.X.'
p4053
F0.5
sS'..OXOXXOX'
p4054
F0.5
sS'.X.XXO.O.'
p4055
F0.5
sS'...O.X.XO'
p4056
F0.5
sS'X..XO.OOX'
p4057
F0.5
sS'OXXX.XOOO'
p4058
F0.0
sS'OOX.XX.OX'
p4059
I1
sS'.X.X.XOO.'
p4060
F0.5
sS'XOXO.X.OX'
p4061
I1
sS'.X.XOXOO.'
p4062
F0.5
sS'OO.OXXXX.'
p4063
F0.5
sS'XOX.OX.O.'
p4064
F0.0
sS'OO.XX...X'
p4065
F0.5
sS'OO.XX....'
p4066
F0.9999999999999998
sS'OO..XX.OX'
p4067
F0.9999999827456342
sS'OO.OXXXXO'
p4068
F0.9999999999999994
sS'XX.OOOOXX'
p4069
I0
sS'.X.XOXOOX'
p4070
F0.5
sS'XOX..OO.X'
p4071
F1.0
sS'OOX.XX.O.'
p4072
F0.5
sS'OXXX.XOO.'
p4073
F0.5
sS'XX.X.OOXO'
p4074
F0.5
sS'.X.X.XOOO'
p4075
F0.0
sS'.....XX.O'
p4076
F0.5
sS'X..XO..O.'
p4077
F0.9999998714449565
sS'O.XX..OX.'
p4078
F0.5
sS'O.X.XXOO.'
p4079
F0.5
sS'.OX.O.OXX'
p4080
F0.97800976744448
sS'OX.OXX.O.'
p4081
F0.5
sS'.X.O.XOOX'
p4082
F0.9999995904
sS'XX.OX.OOX'
p4083
I1
sS'X.OX.XXOO'
p4084
I1
sS'OOXXXXOOX'
p4085
I1
sS'OX.OXX.OX'
p4086
F0.5
sS'XX.OX.OO.'
p4087
F0.9976388167585652
sS'.XO.XXXOO'
p4088
F0.5
sS'X..XO..OX'
p4089
F0.5
sS'XOX...X.O'
p4090
F0.5
sS'O.X.XXOOX'
p4091
I1
sS'.O.OX.XXO'
p4092
F0.9999999999999998
sS'.OXXX.XOO'
p4093
I1
sS'...XXXOO.'
p4094
I1
sS'.XX.XO..O'
p4095
F0.5
sS'.XXXOXO.O'
p4096
F0.5
sS'XOX.OXX.O'
p4097
F0.5
sS'.XXOX..O.'
p4098
F0.5
sS'O.X..XO..'
p4099
F0.9999999999999998
sS'XOXOX.O..'
p4100
F0.9999999999999998
sS'.XXOX..OO'
p4101
F0.8951424
sS'X...OXOOX'
p4102
F0.9999999999999998
sS'XOXOX.O.X'
p4103
I1
sS'O.X..XO.X'
p4104
I1
sS'.XX..O.O.'
p4105
F1.0
sS'X.X..OXO.'
p4106
F0.5
sS'X.OO..XXO'
p4107
F0.5
sS'.OOXX..OX'
p4108
F0.9999976615973802
sS'.XOXXOXOO'
p4109
F0.0
sS'.OXXOX...'
p4110
F0.5
sS'..XXOOOXX'
p4111
F0.5
sS'XOO.OXXOX'
p4112
F0.0
sS'O.X..OOXX'
p4113
F0.5
sS'..XXOOOX.'
p4114
F0.5
sS'.XOXXOXO.'
p4115
F0.5
sS'X..OXOOX.'
p4116
F1.0
sS'.OXXOX..O'
p4117
F0.5
sS'X.X..OXOO'
p4118
F0.5
sS'X.OO..XX.'
p4119
F0.5
sS'.OXXO.XO.'
p4120
F0.0
sS'XOXX.OXO.'
p4121
I1
sS'.X.OXO..X'
p4122
F0.5
sS'OOX.X.OXX'
p4123
F0.5
sS'.O.X.X..O'
p4124
F1.0
sS'XXXOX..OO'
p4125
I1
sS'XO.O.X..X'
p4126
F0.5
sS'.XX.OOOX.'
p4127
F0.982407813955584
sS'XX.O.OXOX'
p4128
F0.5
sS'.OO.XXO.X'
p4129
F0.95705032704
sS'.O.X.X...'
p4130
F0.5
sS'XX.O.OXO.'
p4131
F1.0
sS'.XX.OOOXX'
p4132
F0.5
sS'XO.O.X...'
p4133
F0.5
sS'.X.OXO...'
p4134
F0.9999999999997538
sS'O.OXXXOX.'
p4135
I1
sS'OXXX.X.OO'
p4136
F0.5
sS'OOX.X.OX.'
p4137
F0.5
sS'XOXOOXXXO'
p4138
F0.5
sS'OXO.OX.XX'
p4139
F0.5
sS'.....X...'
p4140
F0.5
sS'OOXX...X.'
p4141
F0.5
sS'...XXO.O.'
p4142
F0.5
sS'...OX..XO'
p4143
F0.9999999999998992
sS'X...OOXXO'
p4144
F0.9999888496274008
sS'.OOXOXX..'
p4145
F0.8951424
sS'X..XXOO.O'
p4146
F0.5
sS'OXXO.XX.O'
p4147
F0.5
sS'.X.XOOO.X'
p4148
F0.5
sS'X...OOXX.'
p4149
F0.5
sS'.OX.XX..O'
p4150
F0.5
sS'X..XXOO..'
p4151
F0.5
sS'...XXO.OX'
p4152
F0.5
sS'.....X..O'
p4153
F0.5
sS'X....O...'
p4154
F0.5
sS'OOXX...XO'
p4155
F0.5
sS'.XX..XO.O'
p4156
F0.5
sS'OXXXO.OOX'
p4157
F0.9970485209482065
sS'...OX..X.'
p4158
F0.5
sS'XX.OO..OX'
p4159
F0.9859262511644672
sS'X.OOX.OXX'
p4160
I1
sS'..XOX..O.'
p4161
F0.9909928007452591
sS'.X.XX.O.O'
p4162
F0.5
sS'X..X.OO.X'
p4163
F0.5
sS'X....OXOX'
p4164
F0.5
sS'XOXXOOX..'
p4165
I1
sS'.XXO.OX.O'
p4166
F0.9981110534068522
sS'OOXX.X..O'
p4167
F1.0
sS'OXXX..OOX'
p4168
F0.5
sS'.XXXOOOX.'
p4169
F0.5
sS'XOO..X...'
p4170
F0.5
sS'XOO..X..X'
p4171
F0.5
sS'.XXO.OX..'
p4172
F0.5
sS'OOXX.X...'
p4173
F0.5
sS'.XXXOOOXO'
p4174
F0.6799999999999999
sS'X....OXO.'
p4175
F0.9999999999999964
sS'OXXX..OO.'
p4176
F0.5
sS'X..X.OO..'
p4177
F0.5
sS'..XOX..OX'
p4178
F0.5
sS'O.XXXOX.O'
p4179
I1
sS'.X.XOO.XO'
p4180
F0.5
sS'OXO..O.XX'
p4181
F1.0
sS'XOO..XX.O'
p4182
F1.0
sS'.XXXO.O.O'
p4183
F0.9999335386002107
sS'OO..X.OXX'
p4184
F0.5
sS'XX...X.OO'
p4185
F0.5
sS'OX.OO.X.X'
p4186
F1.0
sS'X...X...O'
p4187
F0.5
sS'O..XOX.XO'
p4188
F0.0
sS'OO..OXXX.'
p4189
F0.7952
sS'.OX..X.OX'
p4190
I1
sS'XOOX..XXO'
p4191
I1
sS'X.XO.O.OX'
p4192
F0.9999999999999998
sS'OX.XOOXOX'
p4193
F0.5
sS'.OX..X.O.'
p4194
F0.9997971759039634
sS'OO..OXXXX'
p4195
I1
sS'XOOX.O..X'
p4196
F0.9998377407231708
sS'XOO..XX..'
p4197
F0.5
sS'.XXXO.O..'
p4198
F0.5
sS'XX...XOO.'
p4199
F0.5
sS'.X.OXOX..'
p4200
F0.5
sS'.X..OO.XX'
p4201
F0.5
sS'.XXOOOXXO'
p4202
I0
sS'.XOXXXOO.'
p4203
I1
sS'.O.XXO.OX'
p4204
F1.0
sS'OXOX.X.OX'
p4205
F0.5
sS'...X..OOX'
p4206
F0.5
sS'XX..OX.O.'
p4207
F0.5
sS'XXXO.O...'
p4208
I1
sS'XXOX..OO.'
p4209
F0.5
sS'.XXOXOOOX'
p4210
F0.5
sS'X..O.....'
p4211
F0.5
sS'.XO.X.XO.'
p4212
F0.5
sS'X.OXX.XOO'
p4213
I1
sS'O....OX.X'
p4214
F0.97800976744448
sS'XXOXOX..O'
p4215
F0.5
sS'.X.OO.X..'
p4216
F0.5
sS'OOXXO.X..'
p4217
F0.5
sS'OOXXO.X.X'
p4218
F0.5
sS'.X.OO.X.X'
p4219
F0.5
sS'.XOXOOXOX'
p4220
F1.0
sS'.XO.X.XOO'
p4221
F0.5
sS'OOX.X.O.X'
p4222
F0.9999999999999998
sS'X..O....X'
p4223
F0.5
sS'XXOXOOX..'
p4224
I1
sS'XX...XOOO'
p4225
F0.0
sS'OXOX.X.O.'
p4226
F0.9909928007452591
sS'.X.OXOX.O'
p4227
F0.965640261632
sS'.XX.XOOXO'
p4228
I1
sS'.X..OO.X.'
p4229
F0.5
sS'XXOX...O.'
p4230
F0.5
sS'XX..OX.OO'
p4231
F0.9984888427254818
sS'OXXOXOXOX'
p4232
I1
sS'OOX.OX.XX'
p4233
I1
sS'.X.OO...X'
p4234
F0.5
sS'.O....XXO'
p4235
F0.5
sS'.O..X.XO.'
p4236
F0.9999999999999998
sS'.X.OO..XX'
p4237
F0.5
sS'O..OOXX.X'
p4238
F0.9859262511644672
sS'O.X.XO..X'
p4239
F0.5
sS'XOXX.O...'
p4240
F0.5
sS'.O....XX.'
p4241
F0.5
sS'O.X.XO...'
p4242
F1.0
sS'OXXX..XOO'
p4243
F0.5
sS'.XOX..X.O'
p4244
F0.5
sS'.X.XOOXXO'
p4245
F0.5
sS'XOO.X.XXO'
p4246
F0.5
sS'.O..X.XOX'
p4247
F0.5
sS'XOXX.O..O'
p4248
F1.0
sS'.O.XO...X'
p4249
F0.5
sS'.XX.O.X.O'
p4250
F0.5
sS'XX.O...XO'
p4251
F0.5
sS'..OXOX.X.'
p4252
F0.5
sS'...X.O...'
p4253
F0.5
sS'OXXXXOOO.'
p4254
F0.5
sS'OO.XX.XXO'
p4255
F0.5
sS'OOX.OX.X.'
p4256
F1.0
sS'XO..XXXOO'
p4257
F0.5
sS'.XOX....O'
p4258
F0.5
sS'X..OOOXX.'
p4259
F0.0
sS'..XXOOXOX'
p4260
F0.5
sS'.OX.OXOXX'
p4261
I1
sS'O.OXX.OX.'
p4262
F0.9463129088000001
sS'OOX...XOX'
p4263
F0.9999468308801686
sS'X.XXXO.OO'
p4264
F0.5
sS'..X.O.XXO'
p4265
F0.5
sS'OXO.X..OX'
p4266
F0.5
sS'..XXOOXO.'
p4267
F0.9328911360000001
sS'OXXOXXXOO'
p4268
I1
sS'X.XO...XO'
p4269
F0.5
sS'.XOX.....'
p4270
F0.5
sS'..O.X.XXO'
p4271
F0.5
sS'OXXOX.XO.'
p4272
I1
sS'XXO..OXOX'
p4273
F0.5
sS'OX.O..X..'
p4274
F0.5
sS'XXXO.O.XO'
p4275
I1
sS'O.XOX..X.'
p4276
F0.5
sS'OXOXXX.O.'
p4277
I1
sS'XXOOXXO.O'
p4278
F0.9999999999999998
sS'OO.X..XX.'
p4279
F0.5
sS'OXXX.OXOO'
p4280
F0.9999976615973802
sS'.XX.OOXO.'
p4281
F0.7952
sS'.XX.OOXOX'
p4282
F0.5
sS'XXOOXXO..'
p4283
F0.5
sS'OO.X..XXO'
p4284
F0.5
sS'.X.XOO.X.'
p4285
F0.5
sS'OXXX.OXO.'
p4286
F0.5
sS'XXXXOOOXO'
p4287
I1
sS'OX.O..X.X'
p4288
F0.5
sS'XOOX.XXO.'
p4289
I1
sS'.OOO.XXX.'
p4290
F0.9328911360000001
sS'XXO..OXO.'
p4291
F0.9953883139815727
sS'O.XOX..XO'
p4292
F0.9887410009315738
sS'X.OO.XO.X'
p4293
F1.0
sS'.O.O..XX.'
p4294
F0.9990328593443083
sS'..O..OX.X'
p4295
F0.9953883139815727
sS'X.OXOX.XO'
p4296
F0.5
sS'..O..XXO.'
p4297
F0.5
sS'OXXO...X.'
p4298
F0.5
sS'.OO.XOXX.'
p4299
F0.744
sS'.OXXXO.XO'
p4300
F0.5
sS'O.X.OO.XX'
p4301
F0.9999999999999998
sS'XOXX.O.XO'
p4302
F0.5
sS'..X.OX.O.'
p4303
F0.9999335386002107
sS'XXOO..OXX'
p4304
F0.5
sS'.XOOX.O.X'
p4305
F1.0
sS'.OXO..X..'
p4306
F1.0
sS'.OXO..X.X'
p4307
F0.5
sS'XXOO..OX.'
p4308
F0.9999999943460894
sS'..X.OX.OX'
p4309
I1
sS'.OO.XOXXX'
p4310
I1
sS'..O..XXOX'
p4311
F0.5
sS'.OX.X.X.O'
p4312
I1
sS'OX.OXXOOX'
p4313
F0.0
sS'.O.O..XXX'
p4314
I1
sS'OXXO...XO'
p4315
F0.5
sS'..OX..XO.'
p4316
F0.9999999999999998
sS'...X.X.O.'
p4317
F0.5
sS'.OO.X.XX.'
p4318
F0.5
sS'X.O.OOXX.'
p4319
F0.95705032704
sS'X...O.XXO'
p4320
F0.5
sS'XO.XOXX.O'
p4321
I1
sS'X.O.OOXXX'
p4322
I1
sS'OXO..X...'
p4323
F0.5
sS'O..OXXOX.'
p4324
F0.0
sS'O.XX..OOX'
p4325
F0.982407813955584
sS'O.XX..XOO'
p4326
F0.9999574647041348
sS'..OX..XOX'
p4327
F0.5
sS'...X.X.OO'
p4328
F0.868928
sS'.OO.X.XXO'
p4329
F0.5
sS'.X.OXX.O.'
p4330
F0.5
sS'OO.XOX.X.'
p4331
F0.5
sS'X.XO.XOOX'
p4332
I1
sS'.OOX.XX.O'
p4333
F1.0
sS'XOOOOX.XX'
p4334
F0.9725122093056
sS'.X.XO.OOX'
p4335
F0.5
sS'..XO.XOX.'
p4336
F0.5
sS'.XX.XO.OO'
p4337
F0.9328911360000001
sS'.OX.XO.X.'
p4338
F0.5
sS'XXOOO.XOX'
p4339
F0.5
sS'.XOX...XO'
p4340
F0.5
sS'.OOXX.XXO'
p4341
F0.5
sS'.XXO.OOXX'
p4342
F0.5
sS'X.OX.XOXO'
p4343
F0.5
sS'.X.OXX.OO'
p4344
F0.5
sS'XX.X.O..O'
p4345
F0.5
sS'OO.XOX.XX'
p4346
F0.5
sS'.OOX.XX..'
p4347
F0.5
sS'..XO.XOXO'
p4348
F0.5
sS'.XX.XO.O.'
p4349
F0.5
sS'X.XO.XOO.'
p4350
F0.9999999999999998
sS'OO.XX..X.'
p4351
F0.5
sS'.X.OOXO.X'
p4352
F0.6
sS'XX.O..OX.'
p4353
F0.5
sS'XOXO.O..X'
p4354
F0.9999999999999998
sS'...OO.XX.'
p4355
F0.83616
sS'X..OXXO..'
p4356
F0.5
sS'X.XO.X.O.'
p4357
F0.5
sS'O.OXXOXXO'
p4358
F0.0
sS'.OO.XX.XO'
p4359
F0.9999985034223233
sS'XO...O..X'
p4360
F0.9999981292779042
sS'XXX.OOO.X'
p4361
I1
sS'.OXXO.X.O'
p4362
F0.9999999999999998
sS'O.X.XOOXX'
p4363
F0.5
sS'OXOOX.XX.'
p4364
I1
sS'O.X.XOOX.'
p4365
F0.9942353924769658
sS'.OXXO.X..'
p4366
F0.5
sS'...XX.OO.'
p4367
F1.0
sS'OO.XX..XO'
p4368
F0.9999999911657647
sS'X..O.XX.O'
p4369
F0.5
sS'.OX.XO.XO'
p4370
F1.0
sS'X..OXXO.O'
p4371
F0.5
sS'.XXO.O.XO'
p4372
F0.5
sS'O.OXXOXX.'
p4373
F0.5
sS'OOO.XXX..'
p4374
F0.0
sS'...OOXOXX'
p4375
F0.5
sS'OX.XO.OXX'
p4376
F0.5
sS'XOXX.OX.O'
p4377
I1
sS'..XO..OXX'
p4378
F0.5
sS'..OXXOX.O'
p4379
F0.0
sS'.X.O.X...'
p4380
F0.5
sS'OXX..O.X.'
p4381
F0.5
sS'O..XX..O.'
p4382
F1.0
sS'OO.XOXXOX'
p4383
F0.0
sS'O...XOX..'
p4384
F0.9999999999999998
sS'XXOO.XOX.'
p4385
F0.5
sS'O....XXOX'
p4386
F0.5
sS'....X..XO'
p4387
F0.5
sS'.OOOXXXXO'
p4388
F0.5
sS'OO.XXX.XO'
p4389
I1
sS'XXOO.XOXO'
p4390
F1.0
sS'.XOOX.XXO'
p4391
I1
sS'.OOXOX..X'
p4392
F0.5
sS'O...XOX.X'
p4393
F0.5
sS'X..OO.XOX'
p4394
F0.5
sS'O....XXO.'
p4395
F0.5
sS'.OOOXXXX.'
p4396
F0.5
sS'XXOXOOO.X'
p4397
F0.0
sS'O..XX..OX'
p4398
F0.5
sS'..XO..OX.'
p4399
F0.5
sS'.X.O.X..O'
p4400
F0.5
sS'OXX..O.XO'
p4401
F0.9997464698799543
sS'O.OXOX..X'
p4402
F0.5
sS'.XXO.O.X.'
p4403
F0.5
sS'XOOXOXOX.'
p4404
F0.0
sS'O.XXXX.OO'
p4405
I1
sS'.O..OXXOX'
p4406
F0.0
sS'.XOXO.X.O'
p4407
F0.5
sS'O...O.X.X'
p4408
F0.9999981292779042
sS'...OX.XO.'
p4409
F1.0
sS'...OX.XOX'
p4410
F0.5
sS'..XX....O'
p4411
F0.5
sS'OXOXX....'
p4412
F0.5
sS'O.O.OXX.X'
p4413
F0.9997971759039634
sS'XX.XOO.O.'
p4414
F0.7952
sS'OOO.XXOXX'
p4415
F0.0
sS'OXXO..O.X'
p4416
F0.0
sS'.X..OX.XO'
p4417
F0.5
sS'...XX.OOX'
p4418
F0.5
sS'...O.XXO.'
p4419
F0.5
sS'XX.OO...X'
p4420
F0.5
sS'...XOOX.X'
p4421
F0.5
sS'OX.XO.OX.'
p4422
F0.5
sS'OXOOOXXXX'
p4423
I1
sS'XXXXOO.O.'
p4424
I1
sS'...XOOX..'
p4425
F1.0
sS'OXOOOXXX.'
p4426
F0.9999999999999998
sS'XX.OO....'
p4427
F0.9999999999999998
sS'OXOXX...O'
p4428
F0.9999999929326118
sS'.OOXX.O.X'
p4429
F1.0
sS'...O.XXOX'
p4430
F0.5
sS'..XXOXXOO'
p4431
F0.5
sS'XXXO....O'
p4432
I1
sS'XX.XOO.OX'
p4433
F0.5
sS'.XXO..X.O'
p4434
F0.5
sS'OO.X.OXXX'
p4435
I1
sS'.XXX..OO.'
p4436
F0.5
sS'XXX.OOOX.'
p4437
I1
sS'X..XOXOOX'
p4438
F0.5
sS'O...XOXXO'
p4439
F0.9927942405962072
sS'XO.O..XOX'
p4440
F0.9999999999999996
sS'.OXX.O...'
p4441
F0.5
sS'XXOO..XOX'
p4442
F0.5
sS'OXXX..O..'
p4443
F0.5
sS'..OOXX.OX'
p4444
F0.9999999999999998
sS'OXO.XXOOX'
p4445
F1.0
sS'OXOXOXO.X'
p4446
F0.0
sS'.X.O.OOXX'
p4447
F0.83616
sS'XXOO..XO.'
p4448
F0.5
sS'OXXX..O.O'
p4449
F0.5
sS'.OXX.O..X'
p4450
F0.5
sS'OOO.XX..X'
p4451
F0.0
sS'OO.X.OXX.'
p4452
F0.9999999999786401
sS'..X..XO..'
p4453
F0.5
sS'.XO.O.XOX'
p4454
F0.5
sS'OO.XXX...'
p4455
I1
sS'.O..XO.XX'
p4456
F0.5
sS'X..XOX.O.'
p4457
F0.5
sS'XXXOO.OX.'
p4458
I1
sS'.OXX..OXO'
p4459
F0.5
sS'.X.O..X.O'
p4460
F0.5
sS'OXOX.X..O'
p4461
F0.83616
sS'OXXXO..OX'
p4462
F0.5
sS'..X.....O'
p4463
F0.5
sS'.X.O..X..'
p4464
F0.5
sS'OXXXO..O.'
p4465
F0.5
sS'OXOX.X...'
p4466
F0.5
sS'X..XOX.OO'
p4467
F0.9996038591874287
sS'...OO.XXX'
p4468
I1
sS'.OXX..OX.'
p4469
F0.5
sS'OO.OX.X.X'
p4470
F0.9963106511852582
sS'.O..XO.X.'
p4471
F0.5
sS'.X.OX...O'
p4472
F0.9999999999999998
sS'.XX.....O'
p4473
F0.5
sS'.OXXO....'
p4474
F0.5
sS'XO....XXO'
p4475
F0.5
sS'.X.OXXOO.'
p4476
F0.5
sS'X.XO.X.OO'
p4477
F0.9999999999999998
sS'X.O.OXXOX'
p4478
F0.5
sS'.X.OXXOOX'
p4479
F0.5
sS'.XXO.OXXO'
p4480
F0.5
sS'.OXXO...X'
p4481
F0.5
sS'OOOXX.OXX'
p4482
F0.0
sS'XX...OXO.'
p4483
F0.5
sS'O.XX.X.O.'
p4484
F0.5
sS'.XXOOXO..'
p4485
F0.6
sS'OOXXXXO..'
p4486
I1
sS'XX..O.OOX'
p4487
F0.91611392
sS'O.OOX.XX.'
p4488
F0.9987910741803854
sS'...XX.OXO'
p4489
F0.5
sS'XO.X....O'
p4490
F0.9999999999999998
sS'XO.XO..X.'
p4491
F0.5
sS'XX..O.OX.'
p4492
F0.5
sS'OOXXXO.X.'
p4493
F0.5
sS'.XOOOXXX.'
p4494
F0.5
sS'XO.X.....'
p4495
F0.5
sS'O.OOX.XXX'
p4496
I1
sS'XO.XO..XO'
p4497
F0.9463129088000001
sS'X.OO.X.XO'
p4498
F0.5
sS'.XXOOXO.X'
p4499
I1
sS'XX...OXOO'
p4500
F0.9999976615973802
sS'.O.X...OX'
p4501
F0.5
sS'O.XX.X.OO'
p4502
F1.0
sS'OO.XXXX.O'
p4503
I1
sS'XX.O....O'
p4504
F0.9999999999999998
sS'.XXOOO.X.'
p4505
F0.0
sS'XOOX.XX.O'
p4506
I1
sS'X.XOO.XXO'
p4507
F0.5
sS'.X..O.OXX'
p4508
F0.5
sS'.XO....X.'
p4509
F0.5
sS'.OO.XX.OX'
p4510
F0.9981110534068522
sS'XOO.XOXX.'
p4511
F0.5
sS'OOX...X..'
p4512
F1.0
sS'OOX...X.X'
p4513
F0.5
sS'XX..O..XO'
p4514
F0.5
sS'.XO....XO'
p4515
F0.9999988027378587
sS'.OX..XX.O'
p4516
F0.5
sS'XXO.X...O'
p4517
F0.5
sS'XOO.XOXXO'
p4518
F0.0
sS'XX.O.....'
p4519
F0.5
sS'..OXX.OOX'
p4520
F0.9999970769967254
sS'XX..O.OXO'
p4521
F1.0
sS'X.OXXXOO.'
p4522
I1
sS'O.OOX..XX'
p4523
F0.5
sS'.....OXX.'
p4524
F0.5
sS'X.X..OX.O'
p4525
F0.5
sS'.OXXOX.O.'
p4526
F0.0
sS'X.OOXX.O.'
p4527
F0.9999999999999998
sS'X.XX..OO.'
p4528
F0.5
sS'OX.O.XX.O'
p4529
F0.5
sS'OXX....OX'
p4530
F0.5
sS'XOXXO.O..'
p4531
F0.5
sS'X.OXXO.O.'
p4532
F0.9999999999999998
sS'.X..XOO.X'
p4533
F0.5
sS'XOXXO.O.X'
p4534
F0.5
sS'X.XX..OOO'
p4535
F0.0
sS'.X..XOO..'
p4536
F0.9999999177247721
sS'X.OXXO.OX'
p4537
I1
sS'X.OOXX.OX'
p4538
I1
sS'OXX....O.'
p4539
F0.5
sS'X..XXOXOO'
p4540
I1
sS'.....OXXO'
p4541
F0.5
sS'OXO.XO..X'
p4542
F0.9999998971559652
sS'..XOX.O.X'
p4543
F0.5
sS'..O..XOXX'
p4544
F0.5
sS'...X.X..O'
p4545
F0.5
sS'..X.XO...'
p4546
F0.5
sS'XO..X.X.O'
p4547
F0.5
sS'OXO.XX.OX'
p4548
F0.5
sS'XOX......'
p4549
F0.5
sS'.XOXOX.XO'
p4550
F0.5
sS'O.XXOOXXO'
p4551
F0.0
sS'XOX.OXO..'
p4552
F0.9999999999999998
sS'XO.OXXO..'
p4553
F0.9999999999999991
sS'.......XO'
p4554
F0.5
sS'.OOXX.X.O'
p4555
F0.5
sS'..X.XO..O'
p4556
F1.0
sS'XO.OXXO.X'
p4557
I1
sS'XOX.OXO.X'
p4558
I1
sS'.X..X.OOX'
p4559
F0.5
sS'XOX.....O'
p4560
F0.5
sS'OX....OX.'
p4561
F0.9999999995143328
sS'O.XXOOXX.'
p4562
F0.5
sS'XXOOX.OX.'
p4563
I1
sS'OXO.XX.O.'
p4564
F1.0
sS'.OOXX.X..'
p4565
F0.5
sS'.XXXOOX.O'
p4566
F0.5
sS'..XOX.O..'
p4567
F0.5
sS'..O..XOX.'
p4568
F0.5
sS'O.X.XXOXO'
p4569
F0.5
sS'XOX.XOO..'
p4570
F0.9999999999999998
sS'.O..X...X'
p4571
F0.5
sS'.XOXO..X.'
p4572
F0.5
sS'O.OXOXXX.'
p4573
F0.5
sS'X.X...O..'
p4574
F0.5
sS'X.OXOX...'
p4575
F0.32
sS'.X..XOXO.'
p4576
F0.5
sS'....XX..O'
p4577
F0.5
sS'.X.XO.O.X'
p4578
F0.5
sS'.XO.X..XO'
p4579
I1
sS'.X.XO.O..'
p4580
F0.5
sS'XO.O.X.OX'
p4581
F0.9999999999999998
sS'.X..XOXOO'
p4582
F0.9999999999999994
sS'OXOOXXXO.'
p4583
F0.5
sS'.XOOXXOX.'
p4584
I1
sS'.XO..XOOX'
p4585
F0.5
sS'.O..X....'
p4586
F0.5
sS'.X.X....O'
p4587
F0.5
sS'.XOXO..XO'
p4588
F0.5
sS'XOX.XOO.X'
p4589
I1
sS'O.OXOXXXO'
p4590
F0.0
sS'X.O.OXX.O'
p4591
F1.0
sS'XX.OO.OXX'
p4592
F0.5
sS'.XOOOXXXO'
p4593
F0.5
sS'OO..X.XX.'
p4594
F0.5
sS'...OX....'
p4595
F0.5
sS'..OXXOX..'
p4596
F0.5
sS'X..OX..XO'
p4597
F0.5
sS'..X...O..'
p4598
F0.5
sS'O.OX.XO.X'
p4599
F1.0
sS'OO..OX.XX'
p4600
F0.9999992337522295
sS'OOXXXOX..'
p4601
I1
sS'X.O.OXX..'
p4602
F0.5
sS'OXO.OX..X'
p4603
F0.5
sS'XX.OO.OX.'
p4604
F0.9999992337522295
sS'OOX.X..OX'
p4605
F0.9999996861449132
sS'OO..X.XXO'
p4606
F0.999999999999803
sS'XO.OO.X.X'
p4607
F0.9999999999999997
sS'OXXOXXO.O'
p4608
F0.0
sS'....OOX.X'
p4609
F0.9963106511852582
sS'XO.O.XX.O'
p4610
F0.5
sS'..XO.OX..'
p4611
F1.0
sS'XXOXOXXOO'
p4612
I1
sS'O..OX.X.X'
p4613
F0.5
sS'XXOXO...O'
p4614
F0.7952
sS'OOXX.X.O.'
p4615
F1.0
sS'OX.X.XO.O'
p4616
F0.9999999999999631
sS'XXX.OOXO.'
p4617
I1
sS'OX.XO.X..'
p4618
F0.5
sS'X..XOO.XO'
p4619
F0.8951424
sS'XO..XO..X'
p4620
I1
sS'.XO..OXOX'
p4621
F0.5
sS'XXOXO....'
p4622
F0.5
sS'XO..XO...'
p4623
F1.0
sS'OX.XO.X.O'
p4624
F0.0
sS'OX.OX.XXO'
p4625
I1
sS'XOO.XXX.O'
p4626
F0.5
sS'X..XOO.X.'
p4627
F0.5
sS'OOXX.X.OX'
p4628
I1
sS'..XO.OX.X'
p4629
F0.5
sS'O..OX.X..'
p4630
F1.0
sS'XO.O.XX..'
p4631
F0.5
sS'XO.XX.XOO'
p4632
I1
sS'OX.OO.XX.'
p4633
F1.0
sS'..XX.XOO.'
p4634
F0.5
sS'O..XO.OXX'
p4635
F0.5
sS'.XOXOOX..'
p4636
F0.6
sS'OX..OXXO.'
p4637
F0.5
sS'XXOXO.OXO'
p4638
F0.0
sS'XXOOOX...'
p4639
F0.5
sS'O.XX.XOO.'
p4640
F1.0
sS'O.XX.XOOX'
p4641
I1
sS'XXOOOX..X'
p4642
F0.5
sS'OX..OXXOX'
p4643
F0.5
sS'.OX..OOXX'
p4644
F0.5
sS'.XOXOOX.X'
p4645
F0.5
sS'OX.OO.XXX'
p4646
I1
sS'O.XXOXOXO'
p4647
F0.0
sS'.XXO.OO.X'
p4648
F0.744
sS'.O..X.X..'
p4649
F0.5
sS'O..OX...X'
p4650
F0.5
sS'.XXOO.XXO'
p4651
F0.5
sS'X.XOOX.XO'
p4652
F0.5
sS'OX.OX....'
p4653
F1.0
sS'..XXXOO..'
p4654
F0.5
sS'X.O..X..O'
p4655
F0.5
sS'.XOOO.XXX'
p4656
I1
sS'OXXX..OXO'
p4657
F0.5
sS'..XXXOO.O'
p4658
F0.5
sS'.XO.XOO.X'
p4659
F1.0
sS'X..X..OXO'
p4660
F0.5
sS'X.O..X...'
p4661
F0.5
sS'.XOOO.XX.'
p4662
F0.9463129088000001
sS'XXX.XO.OO'
p4663
I1
sS'.O..X.X.O'
p4664
F0.9999999999999998
sS'XX.XOXOOO'
p4665
F0.0
sS'OX.OX...X'
p4666
F0.5
sS'X.OO....X'
p4667
F0.9999999999999998
sS'XXXO...O.'
p4668
I1
sS'OXX.OX.OX'
p4669
I1
sS'OXO....XX'
p4670
F0.5
sS'OXXX.O..O'
p4671
F0.5
sS'X..OX....'
p4672
F0.5
sS'..X.XOX.O'
p4673
I1
sS'XXX.OXO.O'
p4674
I1
sS'XX.XXO.OO'
p4675
F0.5
sS'XOXXXOXOO'
p4676
I1
sS'OXO.OXXOX'
p4677
F0.5
sS'..X.O.O.X'
p4678
F1.0
sS'XXXXOO..O'
p4679
I1
sS'XO.O.OXX.'
p4680
F0.9887410009315738
sS'X..XOXOXO'
p4681
F0.5
sS'XX.OXO.XO'
p4682
I1
sS'O.......X'
p4683
F0.5
sS'OX.OX.X..'
p4684
F0.5
sS'..O.XO..X'
p4685
F1.0
sS'XOOO...XX'
p4686
F0.9999999999999998
sS'..XO..O.X'
p4687
F0.7952
sS'OOOX.XXXO'
p4688
F0.0
sS'OXXX.O...'
p4689
F0.5
sS'X..OX...O'
p4690
F0.5
sS'OXO....X.'
p4691
F0.9999999999999998
sS'.OX.XXO..'
p4692
F0.5
sS'XO..OXXXO'
p4693
F0.5
sS'.X.XO..XO'
p4694
F0.5
sS'OXX..O.OX'
p4695
F0.5
sS'X...OXXOO'
p4696
F1.0
sS'OXX.X.O..'
p4697
F0.5
sS'.OX..O.XX'
p4698
F0.5
sS'O.XO...XX'
p4699
F0.5
sS'OO...XXX.'
p4700
F0.5
sS'X..OX.X.O'
p4701
F0.5
sS'XXX..O.O.'
p4702
I1
sS'XXOX..OXO'
p4703
F0.5
sS'OOOXX.X..'
p4704
F0.0
sS'OO...XXXO'
p4705
F0.5
sS'.OOXO..XX'
p4706
F0.5
sS'.XOXO.XXO'
p4707
F0.5
sS'XX.OX.XOO'
p4708
F0.5
sS'X...OXXO.'
p4709
F0.5
sS'OXX.X.O.O'
p4710
F0.9999998714449565
sS'..XOO.XXO'
p4711
F0.5
sS'OO.X.XX..'
p4712
F0.5
sS'X.XO..OOX'
p4713
F0.5
sS'.XOO.OX.X'
p4714
F1.0
sS'.OX..O.X.'
p4715
F0.5
sS'.XOXX...O'
p4716
F0.5
sS'.OXO..XXO'
p4717
F0.9463129088000001
sS'O.X.OXOXX'
p4718
I1
sS'O..O.XOXX'
p4719
F0.0
sS'O.X.OXOX.'
p4720
F0.7952
sS'O.X.O.OXX'
p4721
F0.9999999999999998
sS'.OXO..XX.'
p4722
F0.5
sS'..XOXX..O'
p4723
F0.5
sS'..XOO.XX.'
p4724
F0.5
sS'OO.X.XX.O'
p4725
F1.0
sS'OXOXX.X.O'
p4726
F0.5
sS'.X.XOXXOO'
p4727
F0.5
sS'OX.OXXO..'
p4728
F0.0
sS'..OX..X.O'
p4729
F0.9999999999999998
sS'X.XO...O.'
p4730
F0.9999999999999998
sS'XOXOOXX..'
p4731
F0.5
sS'XOXOOOXX.'
p4732
F0.0
sS'XXOX.OO.X'
p4733
F0.5
sS'.OXX.X..O'
p4734
F0.5
sS'.X..OXOXO'
p4735
F0.5
sS'XO.XXXOO.'
p4736
I1
sS'..O.X.OXX'
p4737
F0.5
sS'OOX...XXO'
p4738
F0.982407813955584
sS'XOO.....X'
p4739
F0.9999999999999587
sS'..O.X.OX.'
p4740
F1.0
sS'..OXOXO.X'
p4741
F0.0
sS'XOXXX..OO'
p4742
F0.5
sS'OOX...XX.'
p4743
F0.5
sS'..OX..X..'
p4744
F0.5
sS'.OOXXX...'
p4745
I1
sS'....XOO.X'
p4746
F1.0
sS'XXOX.OO..'
p4747
F0.5
sS'XOXOOXX.O'
p4748
F0.5
sS'X.XO...OX'
p4749
F0.5
sS'OX..X.O..'
p4750
F1.0
sS'.X.OXX..O'
p4751
F0.5
sS'OOX.XOXX.'
p4752
I1
sS'..OXX.O.X'
p4753
F0.5
sS'XOO.XO.XX'
p4754
I1
sS'OX...OXX.'
p4755
F0.5
sS'.XXO.XOOX'
p4756
I1
sS'X..XXOOXO'
p4757
F0.5
sS'OX.XX...O'
p4758
F0.5
sS'XO.XXO.XO'
p4759
F0.5
sS'XO.X..OX.'
p4760
F0.5
sS'XO.X...O.'
p4761
F0.9999999999999998
sS'XO.XOO.X.'
p4762
F0.91611392
sS'..O.O.XX.'
p4763
F1.0
sS'OXXXO.O..'
p4764
F0.5
sS'.XX.OO.OX'
p4765
F0.9999999999999998
sS'..O.O.XXX'
p4766
I1
sS'XO.X..OXO'
p4767
F0.5
sS'XO.XOO.XX'
p4768
F0.5
sS'XOO...XOX'
p4769
F0.9993810299803573
sS'OXXXO.O.X'
p4770
F0.5
sS'.X..OOXOX'
p4771
F0.5
sS'XO.X...OX'
p4772
F0.5
sS'.XOO.X...'
p4773
F0.5
sS'O.OXXOOXX'
p4774
F1.0
sS'OX...OXXO'
p4775
F1.0
sS'X.XOO..X.'
p4776
F0.5
sS'OXOXXX..O'
p4777
I1
sS'.XXO.XOO.'
p4778
F0.5
sS'XOO.XO.X.'
p4779
F0.9328911360000001
sS'..OXX.O..'
p4780
F0.9999999999999998
sS'X.OXXXO.O'
p4781
I1
sS'O.O....XX'
p4782
F0.9999954328073833
sS'XO.OXX.OX'
p4783
I1
sS'XO.....X.'
p4784
F0.5
sS'OO.O.XX.X'
p4785
F0.95705032704
sS'..XO.XXOO'
p4786
F0.9999999999944248
sS'.XXOOXOXO'
p4787
F0.5
sS'.XXOO.OX.'
p4788
F0.6799999999999999
sS'O..XXO..X'
p4789
F0.5
sS'O.OO.X.XX'
p4790
F0.6799999999999999
sS'.OOOXX.XX'
p4791
F0.5
sS'XOXO.OXX.'
p4792
F0.5
sS'.XXOOXOX.'
p4793
F0.5
sS'..XO.XXO.'
p4794
F0.5
sS'.XXOO.OXX'
p4795
F0.5
sS'O..XXO...'
p4796
F0.5
sS'.OOOXX.X.'
p4797
F0.5
sS'XO.....XO'
p4798
F0.5
sS'XXOOO.X.X'
p4799
F0.5
sS'OX..O.XX.'
p4800
F0.4
sS'OOXXOO.XX'
p4801
F0.9995048239842859
sS'XO.OXX.O.'
p4802
F1.0
sS'XXO.XO.OX'
p4803
I1
sS'...XX.O..'
p4804
F0.5
sS'.O.OXXXXO'
p4805
F0.5
sS'XO.XOXOX.'
p4806
F0.5
sS'.X.OOXOX.'
p4807
F0.5
sS'.XXXOOXO.'
p4808
F0.5
sS'X.X.OO.OX'
p4809
F0.9999999999999998
sS'O.XO...X.'
p4810
F0.5
sS'XOOXXO..X'
p4811
I1
sS'.OXOOXXXO'
p4812
F0.5
sS'OX..XOXXO'
p4813
I1
sS'O.X.X.XO.'
p4814
I1
sS'XOOXXO...'
p4815
F0.9999999999999998
sS'.OXOOXXX.'
p4816
F0.5
sS'XOX.OOOXX'
p4817
F0.5
sS'...XX.O.O'
p4818
F1.0
sS'.X.OOXOXX'
p4819
F0.5
sS'XXO.XO.O.'
p4820
F0.9999999999999998
sS'XO.XOXOXO'
p4821
F0.5
sS'.XXXOOXOO'
p4822
F0.5
sS'X.XOO.X..'
p4823
F0.5
sS'.XXXOOO.X'
p4824
F0.5
sS'O....XX..'
p4825
F0.5
sS'XOX.XXO.O'
p4826
F0.5
sS'OOOOXXX.X'
p4827
F0.0
sS'.O..X..OX'
p4828
F0.9999999999999993
sS'OXO..XX..'
p4829
F0.5
sS'O...XXO..'
p4830
F0.9999999999981652
sS'.OX.OX.XO'
p4831
F0.5
sS'XO..X.XO.'
p4832
F0.5
sS'OOO..X.XX'
p4833
F0.0
sS'XO..OXOX.'
p4834
F0.5
sS'X..XO.X.O'
p4835
I1
sS'XO..O.OXX'
p4836
F0.5
sS'O.X.OOX.X'
p4837
F1.0
sS'XO..OXOXX'
p4838
F0.5
sS'..XXOXOOX'
p4839
I1
sS'X.XOO.X.O'
p4840
F0.9999999999999998
sS'O...XXO.X'
p4841
F0.5
sS'O....XX.O'
p4842
F0.5
sS'XXOOOO.XX'
p4843
I0
sS'.OOXXXX.O'
p4844
I1
sS'OXO..XX.O'
p4845
F0.5
sS'.XXXOOO..'
p4846
F0.9981110534068522
sS'O.XOX..OX'
p4847
F0.9999970769967254
sS'.OX.OX.X.'
p4848
F0.5
sS'XO..X.XOO'
p4849
F0.9999999999999998
sS'.X..XOOX.'
p4850
I1
sS'.XOOXO.XX'
p4851
I1
sS'XOX.O.X..'
p4852
F0.5
sS'.X..OOOXX'
p4853
F0.5
sS'XXOOXOXO.'
p4854
F0.9999727774106463
sS'X.OX.OO.X'
p4855
F0.9999999976841583
sS'O..XOX.OX'
p4856
F0.9999999999999998
sS'XOXOO.XXO'
p4857
F0.5
sS'...X.OOXX'
p4858
F0.5
sS'XOO..O.XX'
p4859
F0.999978221928517
sS'...X.OOX.'
p4860
F0.5
sS'.X.....XO'
p4861
F0.5
sS'..X...O.X'
p4862
F0.5
sS'O..X.X.O.'
p4863
F1.0
sS'XOX.O.X.O'
p4864
F0.9999999999999998
sS'.XOXXOOX.'
p4865
I1
sS'XXOOXOXOX'
p4866
I1
sS'OX.....OX'
p4867
F0.5
sS'OOO..XX.X'
p4868
F0.0
sS'OXXO..OX.'
p4869
F0.0
sS'X.OOXOXXO'
p4870
F0.0
sS'X.XOXX.OO'
p4871
F0.5
sS'X..OXX.O.'
p4872
F0.5
sS'.XXX..O.O'
p4873
F0.5
sS'OXO.XXO..'
p4874
F0.9999999911657647
sS'..OXX.XO.'
p4875
F0.5
sS'OX..XOX.O'
p4876
F0.9999999999999998
sS'.X...OXO.'
p4877
F0.5
sS'XO....O.X'
p4878
F0.9999999999999998
sS'X.X.OOOXX'
p4879
F0.5
sS'.OOOXXXOX'
p4880
F0.9999976615973802
sS'.X...X.OO'
p4881
F0.5
sS'X....XO.O'
p4882
F0.5
sS'XO.X.X..O'
p4883
F0.5
sS'X.O.XX.OO'
p4884
F0.9999999999995189
sS'OXOOXOXXX'
p4885
I1
sS'O.X.O.XOX'
p4886
F1.0
sS'OXXOXXOO.'
p4887
F0.0
sS'.X...X.O.'
p4888
F0.5
sS'X....XO..'
p4889
F0.5
sS'X.X.OOOX.'
p4890
F1.0
sS'OOXXXOXOX'
p4891
I1
sS'X.OOXOXX.'
p4892
F0.5
sS'X..OXX.OO'
p4893
F0.5
sS'.X...OXOX'
p4894
F0.5
sS'..OXX.XOO'
p4895
F0.9999999999999998
sS'.OOXOXXXO'
p4896
F0.5
sS'X...X.OOX'
p4897
I1
sS'.XOXO.O.X'
p4898
F0.0
sS'OX..OX.X.'
p4899
F0.5
sS'.OOX...X.'
p4900
F0.5
sS'X..X.OXO.'
p4901
I1
sS'.XXOOX.O.'
p4902
F0.744
sS'X..XXO..O'
p4903
F0.5
sS'.....XO..'
p4904
F0.5
sS'OOXOXXXOX'
p4905
I1
sS'OX.OO..XX'
p4906
F0.965640261632
sS'X..XX.O.O'
p4907
F0.5
sS'O.XXXOOOX'
p4908
F0.5
sS'.X.OOO.XX'
p4909
F0.0
sS'.X...XOXO'
p4910
F0.5
sS'.....XO.X'
p4911
F0.5
sS'OX..OX.XO'
p4912
F0.0
sS'.XXOOX.OX'
p4913
I1
sS'XOOXXXO..'
p4914
I1
sS'XXOX..XOO'
p4915
I1
sS'X.XX.O.O.'
p4916
F0.5
sS'.OOX...XX'
p4917
F0.5
sS'OXO..OX.X'
p4918
F1.0
sS'.O.XO.XOX'
p4919
F0.0
sS'XO..XXOO.'
p4920
F1.0
sS'.OXXO..OX'
p4921
F0.0
sS'XXO.X.OO.'
p4922
F0.9999999999999998
sS'X.OO.XOXX'
p4923
F0.5
sS'.OO...XXX'
p4924
I1
sS'OXX.XOX.O'
p4925
I1
sS'.O.X.O..X'
p4926
F0.5
sS'O..OXOXX.'
p4927
F0.5
sS'O..O..XX.'
p4928
F1.0
sS'OOXXX.XO.'
p4929
I1
sS'.OX.XOO.X'
p4930
F0.9999999999999998
sS'O..O..XXX'
p4931
I1
sS'O..OXOXXX'
p4932
I1
sS'.O.O.XX.X'
p4933
F0.5
sS'X.OO.XOX.'
p4934
F0.5
sS'O.O.X.OXX'
p4935
F0.9328911360000001
sS'XXO.X.OOX'
p4936
I1
sS'.O..XOXOX'
p4937
F0.9999999963814973
sS'XX...OX.O'
p4938
F0.5
sS'..O.OXXXO'
p4939
F0.5
sS'OOXX.OX..'
p4940
F0.9999574647041348
sS'.OO.XXX.O'
p4941
F0.9999999999999984
sS'.X..XXOO.'
p4942
F0.5
sS'O.XX.X..O'
p4943
F0.5
sS'O..OXXXOX'
p4944
F0.5
sS'.OXO.XOX.'
p4945
F1.0
sS'..OXXX..O'
p4946
I1
sS'X.OO..OXX'
p4947
F1.0
sS'X.OO.X..X'
p4948
F0.5
sS'OX..X.X.O'
p4949
F0.5
sS'XXXO.OO.X'
p4950
I1
sS'.X..OXXO.'
p4951
F0.5
sS'O..XXXOOX'
p4952
I1
sS'.XO.OOX.X'
p4953
F0.7952
sS'OXXO.O..X'
p4954
F0.5
sS'XXO..XOXO'
p4955
F0.5
sS'XO.O.XXXO'
p4956
F0.5
sS'.XO...O.X'
p4957
F0.5
sS'.X..OXXOO'
p4958
F0.5
sS'X.OO.X...'
p4959
F0.5
sS'O..OXXXO.'
p4960
F0.9999981292779042
sS'..O.OXXX.'
p4961
F0.5
sS'.X..XXOOO'
p4962
F0.0
sS'.OO.XXX..'
p4963
F0.5
sS'X.O..OXX.'
p4964
F0.4
sS'OOXX.OX.X'
p4965
F0.5
sS'..OXXXO..'
p4966
I1
sS'OXX.OOXX.'
p4967
F0.5
sS'X...OXOX.'
p4968
F0.5
sS'XX.O.XXOO'
p4969
F0.5
sS'OX..XO..X'
p4970
F0.5
sS'XOXXOOOX.'
p4971
F0.5
sS'.XXOOXX.O'
p4972
F0.5
sS'XO..X...O'
p4973
F0.5
sS'XOXOOX.X.'
p4974
F0.5
sS'OOXXO..X.'
p4975
F0.5
sS'OOXX..O.X'
p4976
F1.0
sS'.O.OXOXX.'
p4977
F0.9328911360000001
sS'.XO.XXO.O'
p4978
F0.744
sS'XX.OX.OXO'
p4979
I1
sS'OOXXO..XX'
p4980
F0.5
sS'..OXXXOOX'
p4981
I1
sS'.XO.XXO..'
p4982
F0.5
sS'.O.OXOXXX'
p4983
I1
sS'..X.XOOOX'
p4984
F1.0
sS'OX.X..O.X'
p4985
F0.5
sS'X...OXOXO'
p4986
F0.5
sS'OXX.OOXXO'
p4987
F0.0
sS'O..XXX.O.'
p4988
I1
sS'OX..XO...'
p4989
F1.0
sS'XOXXOOOXX'
p4990
F0.5
sS'XO..X....'
p4991
F0.5
sS'X.OXOXX.O'
p4992
I1
sS'XOXOOX.XO'
p4993
F0.5
sS'OO.X.X.OX'
p4994
F0.9999997991327445
sS'XXO.XOOX.'
p4995
I1
sS'.OX.O.X..'
p4996
F0.5
sS'X.OOXO.XX'
p4997
I1
sS'.XXX..OOO'
p4998
F0.0
sS'.OXOO.X.X'
p4999
F0.5
sS'OXX..OXOX'
p5000
F0.5
sS'OXOO.XOXX'
p5001
F0.0
sS'.X.XO.XO.'
p5002
F0.5
sS'O.XOOX.XX'
p5003
I1
sS'O.XOX.O.X'
p5004
F0.0
sS'X..OX.XO.'
p5005
F0.5
sS'X.OOXXOX.'
p5006
F0.5
sS'.OOOXXX.X'
p5007
F0.5
sS'.X.XO.XOO'
p5008
F0.97800976744448
sS'X..OX.XOO'
p5009
F1.0
sS'X.OOXXOXO'
p5010
F0.9999999999999998
sS'O.XOOX.X.'
p5011
F0.6
sS'X.XX..O.O'
p5012
F0.5
sS'O...XOXX.'
p5013
F0.5
sS'X.OOXO.X.'
p5014
F0.9997464698799543
sS'.OX.O.X.X'
p5015
F0.5
sS'OXX..OXO.'
p5016
F0.9999999999999998
sS'OOXOXXXXO'
p5017
I1
sS'OXX......'
p5018
F0.5
sS'XO..O.X.X'
p5019
F0.5
sS'OO..XXOXX'
p5020
F0.5
sS'....XXXOO'
p5021
F0.5
sS'..OOXO.XX'
p5022
F0.5
sS'.X..X.O..'
p5023
F0.5
sS'X..XO.O..'
p5024
F0.5
sS'....X...O'
p5025
F0.5
sS'OOXO..X.X'
p5026
F0.5
sS'XXOX.OOOX'
p5027
F0.9999999990514313
sS'....X....'
p5028
F0.5
sS'X.OX.X..O'
p5029
F0.5
sS'XOXOOXXO.'
p5030
F0.0
sS'..OX..XXO'
p5031
F0.5
sS'OXX.....O'
p5032
F0.5
sS'X..XO.O.X'
p5033
F0.5
sS'...OXX..O'
p5034
F0.5
sS'.OOXOXOXX'
p5035
F0.0
sS'OO..XXOX.'
p5036
F0.9999999999999998
sS'XO..O.X..'
p5037
F0.9999997991327445
sS'.X..X.O.O'
p5038
F0.9999999999999998
sS'OX.O.XXO.'
p5039
F0.5
sS'.X.O.XO.X'
p5040
F0.5
sS'.X.X...OO'
p5041
F0.5
sS'OOX..O.XX'
p5042
F0.9999992337522295
sS'XX.OX.O.O'
p5043
F0.9999999730400534
sS'....X.OXO'
p5044
F1.0
sS'...OOXXOX'
p5045
F0.744
sS'X.O.XXOOX'
p5046
I1
sS'X..OXOXOX'
p5047
I1
sS'.XXO.XO.O'
p5048
F0.5
sS'.OOXX.XO.'
p5049
F0.9999999999999998
sS'XXO...OOX'
p5050
F0.8951424
sS'....X.OX.'
p5051
F0.5
sS'X.O.XXOO.'
p5052
F0.9999999999988257
sS'.OOXX.XOX'
p5053
F0.5
sS'X..OXOXO.'
p5054
F0.9999999999971332
sS'OO.XX.O.X'
p5055
F1.0
sS'.XXO.XO..'
p5056
F0.5
sS'OXXOOOXX.'
p5057
I0
sS'X.XXO.XOO'
p5058
I1
sS'.OX.XO.OX'
p5059
F1.0
sS'X...XX.OO'
p5060
F0.5
sS'.X.X...O.'
p5061
F0.5
sS'.X.O.XO..'
p5062
F0.5
sS'OX.O.XXOX'
p5063
F0.5
sS'.XO.OXXXO'
p5064
F0.5
sS'XX.OX.O..'
p5065
F0.5
sS'X.OOX.XXO'
p5066
F0.5
sS'OO.O.XXX.'
p5067
F0.9927942405962072
sS'XOX..OOX.'
p5068
F0.5
sS'XO.OXX..O'
p5069
F0.5
sS'.X.O.XXOO'
p5070
F0.5
sS'....OXOX.'
p5071
F0.5
sS'....OXOXX'
p5072
F0.5
sS'XO.OXX...'
p5073
F0.5
sS'.X.O.XXO.'
p5074
F0.5
sS'OO.O.XXXX'
p5075
I1
sS'.OXX...XO'
p5076
F0.5
sS'.XOXXOO..'
p5077
F0.97800976744448
sS'XOX..OOXX'
p5078
F0.5
sS'..XO.OXOX'
p5079
F0.9999574647041348
sS'.OOXX...X'
p5080
F0.5
sS'.OXXOOX.X'
p5081
F0.5
sS'OOO.XX.X.'
p5082
F0.0
sS'OO.X.OX.X'
p5083
F0.9999999784320427
sS'XO.X.O...'
p5084
F0.9999999999999998
sS'OX.XO.XO.'
p5085
F0.5
sS'..O..X..X'
p5086
F0.5
sS'OX.XOXXO.'
p5087
F0.5
sS'..X.XXO.O'
p5088
F0.5
sS'O..OXX...'
p5089
F0.5
sS'O..XXOXXO'
p5090
F0.5
sS'OXXOX..XO'
p5091
I1
sS'XXO.XO..O'
p5092
F0.0
sS'.OXOO.XX.'
p5093
F1.0
sS'X.XO.O.X.'
p5094
F0.5
sS'XOOXOO.XX'
p5095
F0.5
sS'.O.X.XOOX'
p5096
F1.0
sS'OX.XOXXOO'
p5097
F0.0
sS'X.O.OX.XO'
p5098
F0.5
sS'.OXOO.XXX'
p5099
I1
sS'.OX..O..X'
p5100
F0.5
sS'..O..X...'
p5101
F0.5
sS'XXO.XO...'
p5102
F0.4
sS'X.XO.O.XO'
p5103
F0.9999999995886238
sS'O..OXX..X'
p5104
F0.5
sS'OX.XO.XOX'
p5105
F0.5
sS'XO.X.O..X'
p5106
F0.5
sS'.OOXX....'
p5107
F0.9999999999999998
sS'O.OXXXX.O'
p5108
I1
sS'.OXXOOX..'
p5109
F0.744
sS'OX.XO.O.X'
p5110
F0.5
sS'XOXXOO..X'
p5111
F0.5
sS'.O.X.X.OX'
p5112
F0.5
sS'XX.O.OX..'
p5113
F0.5
sS'.XXXOO.XO'
p5114
F0.5
sS'OX.XOXOXO'
p5115
F0.0
sS'O...X..XO'
p5116
F0.9999999999999998
sS'.XOOO..XX'
p5117
F0.744
sS'..X...OXO'
p5118
F0.5
sS'XXOXO..O.'
p5119
F0.9998701925785366
sS'.X.OXOO.X'
p5120
F1.0
sS'X....XXOO'
p5121
F0.5
sS'OXOXO.XX.'
p5122
F0.5
sS'..X.X.OXO'
p5123
F0.5
sS'.OXOXXO.X'
p5124
I1
sS'..X...OX.'
p5125
F0.5
sS'OOXXXOO.X'
p5126
F0.5
sS'XXO......'
p5127
F0.5
sS'XXOXO..OX'
p5128
F0.5
sS'OXOXO.XXO'
p5129
F0.0
sS'.O.X.X.O.'
p5130
F1.0
sS'XOXXOO...'
p5131
F0.9999999999999998
sS'XX.O.OX.O'
p5132
F0.9999999999999998
sS'OX.XOXOX.'
p5133
F0.5
sS'..XXXOOO.'
p5134
F0.5
sS'X.XX...OO'
p5135
F0.5
sS'XOX.O..OX'
p5136
F0.0
sS'OOX.X..X.'
p5137
F0.5
sS'OX.OX..OX'
p5138
F0.5
sS'X.XO.OX..'
p5139
F0.5
sS'X...XXOO.'
p5140
F0.5
sS'....XXOXO'
p5141
F0.5
sS'X...XXOOO'
p5142
F0.0
sS'XO.O.XO.X'
p5143
F1.0
sS'O.OXO..XX'
p5144
F0.6
sS'OO..XOX.X'
p5145
F0.9942353924769658
sS'OOX.X..XO'
p5146
F1.0
sS'XOOOX..XX'
p5147
I1
sS'..XXXOOOX'
p5148
F0.5
sS'X.XO.OX.O'
p5149
F0.9999999999999998
sS'X.OOXOX..'
p5150
F0.9999999999971332
sS'OOX..OXXX'
p5151
I1
sS'.X.XX.OO.'
p5152
F0.5
sS'.XXXOXOOO'
p5153
F0.0
sS'X.XO.O..X'
p5154
F0.5
sS'..X.O.XOX'
p5155
F0.5
sS'OX.O.X...'
p5156
F0.5
sS'XOXO..OXX'
p5157
F0.5
sS'.XXXOXOO.'
p5158
F0.5
sS'XOXO..OX.'
p5159
F0.5
sS'OX.O.X..X'
p5160
F0.5
sS'X.XO.O...'
p5161
F0.9999999999999998
sS'.XOOXOXOX'
p5162
F1.0
sS'.X...OOXX'
p5163
F0.5
sS'..X.O.XO.'
p5164
F0.5
sS'OOX..OXX.'
p5165
F0.965640261632
sS'OOOX..X.X'
p5166
F0.0
sS'OOXXXXOXO'
p5167
I1
sS'.OO..XOXX'
p5168
F0.5
sS'OXX.O..OX'
p5169
F0.9999999999999998
sS'.X.XX.OOO'
p5170
F0.0
sS'.XO.OX..X'
p5171
F0.5
sS'OXX.X.OOX'
p5172
F0.5
sS'XOO.XX.OX'
p5173
I1
sS'.O.XO.X.X'
p5174
F0.5
sS'O.X..XXOO'
p5175
F0.9970485209482065
sS'XXOX..O.O'
p5176
F0.5
sS'XX.OOX.XO'
p5177
F0.5
sS'X....XOO.'
p5178
F0.5
sS'X.OOXXXOO'
p5179
F0.5
sS'X..XXO.OO'
p5180
F0.9999999999999998
sS'XXOXO.OOX'
p5181
F0.0
sS'O.XOOXXX.'
p5182
F0.5
sS'O.X.X....'
p5183
F0.5
sS'X.XOOXXOO'
p5184
F1.0
sS'XO.X.X.O.'
p5185
F0.5
sS'OOXXO.XOX'
p5186
F0.0
sS'.O..XO..X'
p5187
F1.0
sS'XXOX..O..'
p5188
F0.5
sS'X.OOXXXO.'
p5189
F0.5
sS'X..XXO.O.'
p5190
F0.5
sS'.OXOX.XXO'
p5191
I1
sS'O.XOOXXXO'
p5192
F0.0
sS'X.XOOXXO.'
p5193
F0.5
sS'O.X.X...O'
p5194
F0.9999999999999998
sS'XO.X.X.OO'
p5195
F1.0
sS'O.XX.XOXO'
p5196
F0.5
sS'X....XOOX'
p5197
F0.5
sS'.O.XO.X..'
p5198
F1.0
sS'O.XXO.O.X'
p5199
F0.8951424
sS'.XO.OX...'
p5200
F0.5
sS'OX.XXX.OO'
p5201
I1
sS'OXX.X.OO.'
p5202
F0.5
sS'.X.OOOXX.'
p5203
F0.0
sS'OXO...XOX'
p5204
F0.5
sS'XXOXOOXOX'
p5205
I1
sS'.XOXOXX.O'
p5206
F0.5
sS'OXOXX.XOO'
p5207
F0.9993810299803573
sS'..O.XOXX.'
p5208
F0.5
sS'O...X....'
p5209
F0.5
sS'.O..XOX.X'
p5210
F0.5
sS'..XXOO..X'
p5211
F0.5
sS'X.OXXOXO.'
p5212
I1
sS'.X..O..XO'
p5213
F0.5
sS'X.OO..XOX'
p5214
F0.9999999730400534
sS'.XO...OXX'
p5215
F0.5
sS'..XX.O.XO'
p5216
F0.5
sS'X..OOXX..'
p5217
F0.5
sS'.X..O..X.'
p5218
F0.5
sS'.XO...OX.'
p5219
F0.9999999999999865
sS'..X..XOXO'
p5220
F0.5
sS'XXX..O..O'
p5221
I1
sS'X.OXO.OX.'
p5222
F0.0
sS'O..XOXO.X'
p5223
F1.0
sS'X..OOXX.O'
p5224
F0.5
sS'O...X...X'
p5225
F0.5
sS'..XXOO...'
p5226
F0.5
sS'.O..XOX..'
p5227
F0.9999995096014269
sS'OXOXX.XO.'
p5228
F0.5
sS'..O.XOXXO'
p5229
F0.0
sS'...X.OO.X'
p5230
F0.5
sS'.X...OO.X'
p5231
F0.5
sS'OXXO.OXX.'
p5232
F0.5
sS'O.XO.X...'
p5233
F0.9999999999999998
sS'O..OXXX.O'
p5234
F0.9999999999999998
sS'XOO....XX'
p5235
F0.5
sS'..O.XXOXO'
p5236
F0.965640261632
sS'.O.X.OXXO'
p5237
F0.83616
sS'OX.O.X.XO'
p5238
F0.6799999999999999
sS'O...X.X.O'
p5239
F0.9999999999999998
sS'X..OX.O..'
p5240
F0.9999999999999998
sS'O..OXXX..'
p5241
F0.5
sS'XXXO.X.OO'
p5242
I1
sS'X..OX.O.X'
p5243
I1
sS'..O.XXOX.'
p5244
F0.5
sS'.O.X.OXX.'
p5245
F0.5
sS'OX.O.X.X.'
p5246
F0.5
sS'O...X.X..'
p5247
F0.5
sS'.X.X.XO.O'
p5248
F0.5
sS'XOO....X.'
p5249
F0.5
sS'...OO..XX'
p5250
F1.0
sS'OXXXX.O.O'
p5251
F0.5
sS'O.XO.X..X'
p5252
I1
sS'OXXO.OXXO'
p5253
F0.5
sS'O.XX..OXO'
p5254
F0.5
sS'.XOX...O.'
p5255
F0.5
sS'O.OOXX.X.'
p5256
F0.91611392
sS'XXXOOXOXO'
p5257
I1
sS'OOXX...OX'
p5258
F1.0
sS'OXO.X...X'
p5259
F0.5
sS'..XXOOX.O'
p5260
F0.9995048239842859
sS'.XXOX...O'
p5261
F0.5
sS'OX..X.XO.'
p5262
F0.5
sS'OOXOX.OXX'
p5263
F0.0
sS'...XX..OO'
p5264
F1.0
sS'.OOX..OXX'
p5265
F0.5
sS'OX..X.XOO'
p5266
F0.9999999999999998
sS'O.OX.XXXO'
p5267
F0.5
sS'OXO.X....'
p5268
F1.0
sS'..O.XOX..'
p5269
F0.5
sS'O.OOXX.XX'
p5270
F0.5
sS'..XXOOX..'
p5271
F0.5
sS'XXXO..OXO'
p5272
I1
sS'..XOX..XO'
p5273
F0.5
sS'XO.OXXOXO'
p5274
F0.5
sS'OXXOX.OOX'
p5275
F0.0
sS'XOX..O.OX'
p5276
F0.9999999999999998
sS'.XOO.X.OX'
p5277
F0.5
sS'OXXOOX.X.'
p5278
F0.5
sS'..X...XOO'
p5279
F0.9997971759039634
sS'O.OXXOXOX'
p5280
F0.5
sS'...OX.OXX'
p5281
F0.5
sS'..X...XO.'
p5282
F0.5
sS'OOOOXXXX.'
p5283
F0.0
sS'XO.OXXOX.'
p5284
F0.5
sS'O..X.XO.X'
p5285
F0.5
sS'OX...XOX.'
p5286
F0.5
sS'.XOXOX...'
p5287
F0.5
sS'O.OOXXXOX'
p5288
F0.5
sS'XOX.XOOXO'
p5289
F0.5
sS'X..XOO..X'
p5290
F0.5
sS'...OOX.X.'
p5291
F0.5
sS'...OXOXX.'
p5292
F0.5
sS'X..XOO...'
p5293
F0.9999999999999998
sS'O..XXO.OX'
p5294
F0.5
sS'XOX.XOOX.'
p5295
F0.5
sS'...OOX.XX'
p5296
F0.5
sS'..XO.XX.O'
p5297
F0.5
sS'O.XOXOX.X'
p5298
I1
sS'OX...XOXO'
p5299
F0.868928
sS'OO..XXO.X'
p5300
F0.5
sS'.XOXOX..O'
p5301
F0.5
sS'O..X.XO..'
p5302
F1.0
sS'OX....O.X'
p5303
F0.5
sS'..OXOXXXO'
p5304
F0.5
sS'XO..XXO.O'
p5305
F0.9999999999999944
sS'O...XXOOX'
p5306
F0.9999999827456342
sS'.OX.XO..X'
p5307
F0.5
sS'O.XXOX.O.'
p5308
F1.0
sS'...OXO.XX'
p5309
F0.5
sS'O.XOXO..X'
p5310
F0.9999468308801686
sS'.X.O..O.X'
p5311
F0.5
sS'X.O.O.X..'
p5312
F0.9999999827456342
sS'.O.OXXO.X'
p5313
F0.9999999999829121
sS'O.XXOXOX.'
p5314
F0.5
sS'....O.OXX'
p5315
F0.5
sS'O.O.XXO.X'
p5316
F0.9328911360000001
sS'.XOO..XXO'
p5317
F0.9328911360000001
sS'O.X.XX..O'
p5318
F0.5
sS'X..XOOOXX'
p5319
F0.5
sS'.X..OOXX.'
p5320
F0.5
sS'X..XOOOX.'
p5321
F0.5
sS'.OX..X.XO'
p5322
F0.5
sS'X.OO.O.XX'
p5323
F0.9999999999999998
sS'.XOO..XX.'
p5324
F0.5
sS'OO.XO..XX'
p5325
F0.5
sS'.X..OOXXO'
p5326
F0.5
sS'...OXO.X.'
p5327
F0.9996038591874287
sS'O.XXOX.OX'
p5328
I1
sS'OX.O.XX..'
p5329
F0.5
sS'OOXXXO.XO'
p5330
F0.9999976615973802
sS'X.O.O.X.X'
p5331
F0.5
sS'...OXOXXO'
p5332
F0.7952
sS'.OX.XO...'
p5333
F1.0
sS'.XOX.OOX.'
p5334
F1.0
sS'.OX.OXXO.'
p5335
F0.0
sS'OX.....XO'
p5336
F0.9999659717633078
sS'OXO.X.X..'
p5337
F0.5
sS'X.XO.XO..'
p5338
F0.5
sS'XOO..X.OX'
p5339
F0.97800976744448
sS'.XXOXOOX.'
p5340
I1
sS'O.OX....X'
p5341
F0.5
sS'.....X.O.'
p5342
F0.5
sS'...O.OXXX'
p5343
I1
sS'...XXO...'
p5344
F0.5
sS'..OXXXOXO'
p5345
I1
sS'.X..OXOX.'
p5346
F0.5
sS'O.XXXO...'
p5347
F0.5
sS'XOXO...OX'
p5348
F0.9999999999999998
sS'...O.OXX.'
p5349
F0.9995048239842859
sS'X..XX..OO'
p5350
F0.5
sS'XXOX.X.OO'
p5351
F0.5
sS'...XXO..O'
p5352
F0.5
sS'.....X.OX'
p5353
F0.5
sS'O.XXXO..O'
p5354
F0.9999999999999998
sS'OXO.X.X.O'
p5355
F0.9999999999999998
sS'.XOX.OOXX'
p5356
F0.5
sS'OOXXOXXO.'
p5357
I0
sS'X...X.XOO'
p5358
F0.5
sS'X.OO.X.X.'
p5359
F0.5
sS'X.XO.XO.O'
p5360
F0.9999999999999998
sS'OXOXXXOOX'
p5361
I1
sS'..OOXOXX.'
p5362
F0.9987910741803854
sS'X.X..O.O.'
p5363
F0.9999999999999998
sS'X..OXX..O'
p5364
F0.5
sS'OOXXXOOXX'
p5365
F0.5
sS'OO...XX.X'
p5366
F0.5
sS'XOO.O.XXX'
p5367
I1
sS'..XOX....'
p5368
F0.5
sS'O.XXXOXO.'
p5369
I1
sS'XOO.O.XX.'
p5370
F0.965640261632
sS'XX.OXOOX.'
p5371
I1
sS'OO...XX..'
p5372
F0.5
sS'OXXXOO.OX'
p5373
F0.5
sS'OOXXXOOX.'
p5374
F0.5
sS'X..X.OOOX'
p5375
F0.9999999999999977
sS'..OX.O..X'
p5376
F0.5
sS'..OOXOXXX'
p5377
I1
sS'...XOXX.O'
p5378
F0.5
sS'X.OXX.OO.'
p5379
F0.9999999999999998
sS'.X.XO...O'
p5380
F0.5
sS'OOXOX...X'
p5381
F0.9999996861449132
sS'OOXXX...O'
p5382
F0.9999999999666251
sS'OX.XO..XO'
p5383
F0.0
sS'.OXX....O'
p5384
F0.5
sS'..O.XX...'
p5385
F0.5
sS'.X.OO.XOX'
p5386
F0.5
sS'OX.XOOX..'
p5387
F0.5
sS'.XO.X.X.O'
p5388
F0.5
sS'.X.O.XOX.'
p5389
F0.5
sS'XOXOX.XO.'
p5390
I1
sS'X.X.OXOXO'
p5391
F0.5
sS'XXXO.O.OX'
p5392
I1
sS'XOOXX.OXO'
p5393
F1.0
sS'.OOOXXX..'
p5394
F0.5
sS'.OXX.....'
p5395
F0.5
sS'..O.XX..O'
p5396
F1.0
sS'.X.O.XOXO'
p5397
F0.6799999999999999
sS'OX.XOOX.X'
p5398
F0.5
sS'XOOXX.OX.'
p5399
F0.5
sS'X.O.XX..O'
p5400
F0.5
sS'.X.XO....'
p5401
F0.5
sS'.X.O.O..X'
p5402
F0.5
sS'OOXXX....'
p5403
F0.5
sS'OX.XO..X.'
p5404
F0.5
sS'X.X.XOOOX'
p5405
I1
sS'XXO..XOOX'
p5406
F0.5
sS'O.O.X.X.X'
p5407
F0.5
sS'O...XX.O.'
p5408
F0.9999999999999998
sS'XXXOOXXOO'
p5409
I1
sS'X.XOO.OX.'
p5410
F1.0
sS'OXXO...OX'
p5411
F0.9999574647041348
sS'.XOOOX..X'
p5412
F0.5
sS'X.OXO.XOX'
p5413
I1
sS'XXOO....X'
p5414
F0.5
sS'XOO..XOXX'
p5415
F0.5
sS'.X.OXOXO.'
p5416
F0.9887410009315738
sS'.O...XO.X'
p5417
F0.9999999997513384
sS'.O...XX..'
p5418
F0.5
sS'O..OX..X.'
p5419
F0.9999659717633078
sS'O.XOXO.X.'
p5420
F0.9953883139815727
sS'XXXOO....'
p5421
I1
sS'O..OX..XX'
p5422
F0.5
sS'O.XOXO.XX'
p5423
F0.5
sS'.O...XX.O'
p5424
F0.5
sS'.X.OXOXOX'
p5425
F0.5
sS'XOO..XOX.'
p5426
F0.5
sS'X.OX..OX.'
p5427
F0.5
sS'X.XOO.OXX'
p5428
F0.5
sS'XXOO.....'
p5429
F0.5
sS'OXOO.XXOX'
p5430
F0.5
sS'OXOOOX.XX'
p5431
F0.5
sS'XXO..XOO.'
p5432
F0.5
sS'O.O.X.X..'
p5433
F0.5
sS'X.X.XOOO.'
p5434
F0.9999992337522295
sS'.XOOX..X.'
p5435
I1
sS'O...XX.OX'
p5436
F0.5
sS'.X....O..'
p5437
F0.5
sS'O..X..XO.'
p5438
F0.5
sS'.OXXOO..X'
p5439
F0.5
sS'.X..XXO.O'
p5440
F0.5
sS'OXOXO.X.X'
p5441
F0.5
sS'XOXX.O.O.'
p5442
F0.9999999999667692
sS'OXXOOX.XO'
p5443
F0.0
sS'.OOXX..X.'
p5444
F0.5
sS'OXX.XOXO.'
p5445
I1
sS'.XO...XO.'
p5446
F0.5
sS'..OOXX..X'
p5447
F0.5
sS'OXO.....X'
p5448
F0.5
sS'.XO...XOX'
p5449
F0.5
sS'OXX.XX.OO'
p5450
F0.5
sS'..OOXX...'
p5451
F0.5
sS'.OOXX..XO'
p5452
F0.9987910741803854
sS'XOXX.O.OX'
p5453
F0.5
sS'OXOXO.X..'
p5454
F0.5
sS'..OXOX.OX'
p5455
F0.5
sS'.O.XXXO..'
p5456
I1
sS'.X..OXX.O'
p5457
F0.5
sS'O..X..XOX'
p5458
F0.5
sS'X..XOXO..'
p5459
F0.5
sS'O..XX.OXO'
p5460
F0.9996830873499429
sS'XO.O..X..'
p5461
F0.5
sS'X...OX.O.'
p5462
F0.5
sS'.OOXXO..X'
p5463
F0.9999995096014269
sS'XXOO..X.O'
p5464
F0.5
sS'OXO...X.X'
p5465
F0.5
sS'OO.XXXO.X'
p5466
I1
sS'OXX..XO..'
p5467
F0.5
sS'XOO.XX..O'
p5468
F0.9999999999999998
sS'OXX..XO.O'
p5469
F0.5
sS'XOX.XOXO.'
p5470
I1
sS'XOO.XX...'
p5471
F0.5
sS'X..XOXO.O'
p5472
F0.5
sS'XOO.O.X.X'
p5473
F0.9990328593443083
sS'X...OX.OX'
p5474
F0.5
sS'O..XX.OX.'
p5475
F0.5
sS'OXO...X..'
p5476
F0.5
sS'XXOO..X..'
p5477
F0.5
sS'XO.O..X.X'
p5478
F0.5
s.